.model full
	.sourcedir '/Users/brzeszczot/workspace/Sterownik/'
	.sourcefile '/Users/brzeszczot/workspace/Sterownik/MainScreen.cpp'
	.stabs	"gcc2_compiled.",60,0,0,0
	.stabs	"__vtbl_ptr_type:t(0,1)=*(0,2)=f(0,3)=r(0,3);-2147483648;2147483647;",128,0,0,0
	.stabs	"bool:t(0,4)=@s8;-16;",128,0,0,0
	.stabs	"wchar_t:t(0,5)=@s16;r(0,5);0;65535;",128,0,0,0
	.stabs	"void:t(0,6)=(0,6)",128,0,0,0
	.stabs	"long double:t(0,7)=r(0,3);8;0;",128,0,0,0
	.stabs	"double:t(0,8)=r(0,3);8;0;",128,0,0,0
	.stabs	"float:t(0,9)=r(0,3);4;0;",128,0,0,0
	.stabs	"unsigned char:t(0,10)=@s8;r(0,10);0;255;",128,0,0,0
	.stabs	"signed char:t(0,11)=@s8;r(0,11);-128;127;",128,0,0,0
	.stabs	"short unsigned int:t(0,12)=@s16;r(0,12);0;65535;",128,0,0,0
	.stabs	"short int:t(0,13)=@s16;r(0,13);-32768;32767;",128,0,0,0
	.stabs	"long long unsigned int:t(0,14)=@s64;r(0,14);0000000000000;01777777777777777777777;",128,0,0,0
	.stabs	"long long int:t(0,15)=@s64;r(0,15);01000000000000000000000;0777777777777777777777;",128,0,0,0
	.stabs	"long unsigned int:t(0,16)=r(0,16);0000000000000;0037777777777;",128,0,0,0
	.stabs	"unsigned int:t(0,17)=r(0,17);0000000000000;0037777777777;",128,0,0,0
	.stabs	"long int:t(0,18)=r(0,18);-2147483648;2147483647;",128,0,0,0
	.stabs	"int:t(0,3)",128,0,0,0
	.stabs	"char:t(0,19)=r(0,19);0;127;",128,0,0,0
	.stabs	"__builtin_va_list:t(0,20)=*(0,6)",128,0,0,0
	.stabs	"complex long double:t(0,21)=R3;16;0;",128,0,0,0
	.stabs	"complex double:t(0,22)=R3;16;0;",128,0,0,0
	.stabs	"complex float:t(0,23)=R3;8;0;",128,0,0,0
	.stabs	"complex int:t(0,24)=s8real:(0,3),0,32;imag:(0,3),32,32;;",128,0,0,0
	.stabs	"/Users/brzeszczot/workspace/Sterownik/MainScreen.h",130,0,0,0
	.stabs	"/Applications/MoSync/include/newlib/stlport/string",130,0,0,0
	.stabs	"/Applications/MoSync/include/newlib/stlport/stl/_string.h",130,0,0,0
	.stabs	"/Applications/MoSync/include/newlib/stlport/stl/_alloc.h",130,0,0,0
	.stabs	"/Applications/MoSync/include/newlib/stlport/stl/_cstddef.h",130,0,0,0
	.stabs	"/Applications/MoSync/include/newlib/stlport/stddef.h",130,0,0,0
	.stabs	"/Applications/MoSync/include/newlib/stlport/../stddef.h",130,0,0,0
	.stabs	"wint_t:t(7,1)=(0,3)",128,0,6,0
	.stabs	"size_t:t(7,2)=(0,16)",128,0,7,0
	.stabs	"ptrdiff_t:t(7,3)=(0,3)",128,0,8,0
	.stabs	"wchar:t(7,4)=(0,5)",128,0,13,0
	.stabn	162,0,0,0
	.stabn	162,0,0,0
	.stabn	162,0,0,0
	.stabs	"/Applications/MoSync/include/newlib/stlport/stl/_cstdlib.h",130,0,0,0
	.stabs	"/Applications/MoSync/include/newlib/stlport/stdlib.h",130,0,0,0
	.stabs	"/Applications/MoSync/include/newlib/stlport/../stdlib.h",130,0,0,0
	.stabs	"/Applications/MoSync/include/newlib/sys/reent.h",130,0,0,0
	.stabs	"/Applications/MoSync/include/newlib/sys/_types.h",130,0,0,0
	.stabs	"/Applications/MoSync/include/newlib/machine/_types.h",130,0,0,0
	.stabs	"/Applications/MoSync/include/newlib/machine/_default_types.h",130,0,0,0
	.stabs	"__int8_t:t(14,1)=(0,11)",128,0,26,0
	.stabs	"__uint8_t:t(14,2)=(0,10)",128,0,27,0
	.stabs	"__int16_t:t(14,3)=(0,13)",128,0,36,0
	.stabs	"__uint16_t:t(14,4)=(0,12)",128,0,37,0
	.stabs	"__int_least16_t:t(14,5)=(14,3)",128,0,46,0
	.stabs	"__uint_least16_t:t(14,6)=(14,4)",128,0,47,0
	.stabs	"__int32_t:t(14,7)=(0,3)",128,0,58,0
	.stabs	"__uint32_t:t(14,8)=(0,17)",128,0,59,0
	.stabs	"__int_least32_t:t(14,9)=(14,7)",128,0,76,0
	.stabs	"__uint_least32_t:t(14,10)=(14,8)",128,0,77,0
	.stabs	"__int64_t:t(14,11)=(0,15)",128,0,99,0
	.stabs	"__uint64_t:t(14,12)=(0,14)",128,0,100,0
	.stabn	162,0,0,0
	.stabn	162,0,0,0
	.stabs	"/Applications/MoSync/include/newlib/sys/lock.h",130,0,0,0
	.stabs	"_LOCK_T:t(15,1)=(0,3)",128,0,6,0
	.stabs	"_LOCK_RECURSIVE_T:t(15,2)=(0,3)",128,0,7,0
	.stabn	162,0,0,0
	.stabs	"_off_t:t(12,1)=(0,18)",128,0,16,0
	.stabs	"__dev_t:t(12,2)=(0,13)",128,0,24,0
	.stabs	"__uid_t:t(12,3)=(0,12)",128,0,29,0
	.stabs	"__gid_t:t(12,4)=(0,12)",128,0,32,0
	.stabs	"_off64_t:t(12,5)=(0,15)",128,0,36,0
	.stabs	"_fpos_t:t(12,6)=(0,18)",128,0,44,0
	.stabs	"_ssize_t:t(12,7)=(0,3)",128,0,56,0
	.stabs	"_mbstate_t:t(12,8)=s8__count:(0,3),0,32;__value:(12,9)=u4__wch:(7,1),0,32;__wchb:(12,10)=ar(12,11)=r(12,11);0000000000000;0037777777777;;0;3;(0,10),0,32;operator=::(12,12)=#(12,9),(12,13)=&(12,9),(12,14)=*(12,9),(12,15)=&(12,16)=k(12,9),(0,6);:_ZN10_mbstate_t3$_1aSERKS0_;2A.;__base_ctor::(12,17)=#(12,9),(0,6),(12,14),(12,15),(0,6);:_ZN10_mbstate_t3$_1C2ERKS0_;2A.;__comp_ctor::(12,17):_ZN10_mbstate_t3$_1C1ERKS0_;2A.;__base_ctor::(12,18)=#(12,9),(0,6),(12,14),(0,6);:_ZN10_mbstate_t3$_1C2Ev;2A.;__comp_ctor::(12,18):_ZN10_mbstate_t3$_1C1Ev;2A.;;,32,32;operator=::(12,19)=#(12,8),(12,20)=&(12,8),(12,21)=*(12,8),(12,22)=&(12,23)=k(12,8),(0,6);:_ZN10_mbstate_taSERKS_;2A.;__base_ctor::(12,24)=#(12,8),(0,6),(12,21),(12,22),(0,6);:_ZN10_mbstate_tC2ERKS_;2A.;__comp_ctor::(12,24):_ZN10_mbstate_tC1ERKS_;2A.;__base_ctor::(12,25)=#(12,8),(0,6),(12,21),(0,6);:_ZN10_mbstate_tC2Ev;2A.;__comp_ctor::(12,25):_ZN10_mbstate_tC1Ev;2A.;;",128,0,75,0
	.stabs	"_flock_t:t(12,26)=(15,2)",128,0,79,0
	.stabs	"_iconv_t:t(12,27)=(12,28)=*(0,6)",128,0,84,0
	.stabn	162,0,0,0
	.stabs	"__ULong:t(11,1)=(0,16)",128,0,21,0
	.stabs	"_Bigint:Tt(11,2)=s24_next:(11,3)=*(11,2),0,32;_k:(0,3),32,32;_maxwds:(0,3),64,32;_sign:(0,3),96,32;_wds:(0,3),128,32;_x:(11,4)=ar(12,11);0;0;(11,1),160,32;operator=::(11,5)=#(11,2),(11,6)=&(11,2),(11,3),(11,7)=&(11,8)=k(11,2),(0,6);:_ZN7_BigintaSERKS_;2A.;__base_ctor::(11,9)=#(11,2),(0,6),(11,3),(11,7),(0,6);:_ZN7_BigintC2ERKS_;2A.;__comp_ctor::(11,9):_ZN7_BigintC1ERKS_;2A.;__base_ctor::(11,10)=#(11,2),(0,6),(11,3),(0,6);:_ZN7_BigintC2Ev;2A.;__comp_ctor::(11,10):_ZN7_BigintC1Ev;2A.;;",128,0,45,0
	.stabs	"__tm:Tt(11,11)=s36__tm_sec:(0,3),0,32;__tm_min:(0,3),32,32;__tm_hour:(0,3),64,32;__tm_mday:(0,3),96,32;__tm_mon:(0,3),128,32;__tm_year:(0,3),160,32;__tm_wday:(0,3),192,32;__tm_yday:(0,3),224,32;__tm_isdst:(0,3),256,32;operator=::(11,12)=#(11,11),(11,13)=&(11,11),(11,14)=*(11,11),(11,15)=&(11,16)=k(11,11),(0,6);:_ZN4__tmaSERKS_;2A.;__base_ctor::(11,17)=#(11,11),(0,6),(11,14),(11,15),(0,6);:_ZN4__tmC2ERKS_;2A.;__comp_ctor::(11,17):_ZN4__tmC1ERKS_;2A.;__base_ctor::(11,18)=#(11,11),(0,6),(11,14),(0,6);:_ZN4__tmC2Ev;2A.;__comp_ctor::(11,18):_ZN4__tmC1Ev;2A.;;",128,0,53,0
	.stabs	"_on_exit_args:Tt(11,19)=s264_fnargs:(11,20)=ar(12,11);0;31;(12,28),0,1024;_dso_handle:(11,20),1024,1024;_fntypes:(11,1),2048,32;_is_cxa:(11,1),2080,32;operator=::(11,21)=#(11,19),(11,22)=&(11,19),(11,23)=*(11,19),(11,24)=&(11,25)=k(11,19),(0,6);:_ZN13_on_exit_argsaSERKS_;2A.;__base_ctor::(11,26)=#(11,19),(0,6),(11,23),(11,24),(0,6);:_ZN13_on_exit_argsC2ERKS_;2A.;__comp_ctor::(11,26):_ZN13_on_exit_argsC1ERKS_;2A.;__base_ctor::(11,27)=#(11,19),(0,6),(11,23),(0,6);:_ZN13_on_exit_argsC2Ev;2A.;__comp_ctor::(11,27):_ZN13_on_exit_argsC1Ev;2A.;;",128,0,71,0
	.stabs	"_atexit:Tt(11,28)=s400_next:(11,29)=*(11,28),0,32;_ind:(0,3),32,32;_fns:(11,30)=ar(12,11);0;31;(11,31)=*(11,32)=f(0,6),64,1024;_on_exit_args:(11,19),1088,2112;operator=::(11,33)=#(11,28),(11,34)=&(11,28),(11,29),(11,35)=&(11,36)=k(11,28),(0,6);:_ZN7_atexitaSERKS_;2A.;__base_ctor::(11,37)=#(11,28),(0,6),(11,29),(11,35),(0,6);:_ZN7_atexitC2ERKS_;2A.;__comp_ctor::(11,37):_ZN7_atexitC1ERKS_;2A.;__base_ctor::(11,38)=#(11,28),(0,6),(11,29),(0,6);:_ZN7_atexitC2Ev;2A.;__comp_ctor::(11,38):_ZN7_atexitC1Ev;2A.;;",128,0,89,0
	.stabs	"__sbuf:Tt(11,39)=s8_base:(11,40)=*(0,10),0,32;_size:(0,3),32,32;operator=::(11,41)=#(11,39),(11,42)=&(11,39),(11,43)=*(11,39),(11,44)=&(11,45)=k(11,39),(0,6);:_ZN6__sbufaSERKS_;2A.;__base_ctor::(11,46)=#(11,39),(0,6),(11,43),(11,44),(0,6);:_ZN6__sbufC2ERKS_;2A.;__comp_ctor::(11,46):_ZN6__sbufC1ERKS_;2A.;__base_ctor::(11,47)=#(11,39),(0,6),(11,43),(0,6);:_ZN6__sbufC2Ev;2A.;__comp_ctor::(11,47):_ZN6__sbufC1Ev;2A.;;",128,0,105,0
	.stabs	"__sFILE:Tt(11,48)=s100_p:(11,40),0,32;_r:(0,3),32,32;_w:(0,3),64,32;_flags:(0,13),96,16;_file:(0,13),112,16;_bf:(11,39),128,64;_lbfsize:(0,3),192,32;_cookie:(12,28),224,32;_read:(11,49)=*(11,50)=f(0,3),256,32;_write:(11,51)=*(11,52)=f(0,3),288,32;_seek:(11,53)=*(11,54)=f(12,6),320,32;_close:(11,55)=*(11,56)=f(0,3),352,32;_ub:(11,39),384,64;_up:(11,40),448,32;_ur:(0,3),480,32;_ubuf:(11,57)=ar(12,11);0;2;(0,10),512,24;_nbuf:(11,58)=ar(12,11);0;0;(0,10),536,8;_lb:(11,39),544,64;_blksize:(0,3),608,32;_offset:(0,3),640,32;_data:(11,59)=*(11,60)=xs_reent:,672,32;_mbstate:(12,8),704,64;_flags2:(0,3),768,32;operator=::(11,61)=#(11,48),(11,62)=&(11,48),(11,63)=*(11,48),(11,64)=&(11,65)=k(11,48),(0,6);:_ZN7__sFILEaSERKS_;2A.;__base_ctor::(11,66)=#(11,48),(0,6),(11,63),(11,64),(0,6);:_ZN7__sFILEC2ERKS_;2A.;__comp_ctor::(11,66):_ZN7__sFILEC1ERKS_;2A.;__base_ctor::(11,67)=#(11,48),(0,6),(11,63),(0,6);:_ZN7__sFILEC2Ev;2A.;__comp_ctor::(11,67):_ZN7__sFILEC1Ev;2A.;;",128,0,169,0
	.stabs	"__FILE:t(11,68)=(11,48)",128,0,273,0
	.stabs	"_glue:Tt(11,69)=s12_next:(11,70)=*(11,69),0,32;_niobs:(0,3),32,32;_iobs:(11,71)=*(11,68),64,32;operator=::(11,72)=#(11,69),(11,73)=&(11,69),(11,70),(11,74)=&(11,75)=k(11,69),(0,6);:_ZN5_glueaSERKS_;2A.;__base_ctor::(11,76)=#(11,69),(0,6),(11,70),(11,74),(0,6);:_ZN5_glueC2ERKS_;2A.;__comp_ctor::(11,76):_ZN5_glueC1ERKS_;2A.;__base_ctor::(11,77)=#(11,69),(0,6),(11,70),(0,6);:_ZN5_glueC2Ev;2A.;__comp_ctor::(11,77):_ZN5_glueC1Ev;2A.;;",128,0,278,0
	.stabs	"_rand48:Tt(11,78)=s14_seed:(11,79)=ar(12,11);0;2;(0,12),0,48;_mult:(11,79),48,48;_add:(0,12),96,16;operator=::(11,80)=#(11,78),(11,81)=&(11,78),(11,82)=*(11,78),(11,83)=&(11,84)=k(11,78),(0,6);:_ZN7_rand48aSERKS_;2A.;__base_ctor::(11,85)=#(11,78),(0,6),(11,82),(11,83),(0,6);:_ZN7_rand48C2ERKS_;2A.;__comp_ctor::(11,85):_ZN7_rand48C1ERKS_;2A.;__base_ctor::(11,86)=#(11,78),(0,6),(11,82),(0,6);:_ZN7_rand48C2Ev;2A.;__comp_ctor::(11,86):_ZN7_rand48C1Ev;2A.;;",128,0,305,0
	.stabs	"_reent:Tt(11,60)=s1048_errno:(0,3),0,32;_stdin:(11,71),32,32;_stdout:(11,71),64,32;_stderr:(11,71),96,32;_inc:(0,3),128,32;_emergency:(11,87)=ar(12,11);0;24;(0,19),160,200;_current_category:(0,3),384,32;_current_locale:(11,88)=*(11,89)=k(0,19),416,32;__sdidinit:(0,3),448,32;__cleanup:(11,90)=*(11,91)=f(0,6),480,32;_result:(11,3),512,32;_result_k:(0,3),544,32;_p5s:(11,3),576,32;_freelist:(11,92)=*(11,3),608,32;_cvtlen:(0,3),640,32;_cvtbuf:(11,93)=*(0,19),672,32;_new:(11,94)=u240_reent:(11,95)=s204_unused_rand:(0,17),0,32;_strtok_last:(11,93),32,32;_asctime_buf:(11,96)=ar(12,11);0;25;(0,19),64,208;_localtime_buf:(11,11),288,288;_gamma_signgam:(0,3),576,32;_rand_next:(0,14),608,64;_r48:(11,78),672,112;_mblen_state:(12,8),800,64;_mbtowc_state:(12,8),864,64;_wctomb_state:(12,8),928,64;_l64a_buf:(11,97)=ar(12,11);0;7;(0,19),992,64;_signal_buf:(11,98)=ar(12,11);0;23;(0,19),1056,192;_getdate_err:(0,3),1248,32;_mbrlen_state:(12,8),1280,64;_mbrtowc_state:(12,8),1344,64;_mbsrtowcs_state:(12,8),1408,64;_wcrtomb_state:(12,8),1472,64;_wcsrtombs_state:(12,8),1536,64;_h_errno:(0,3),1600,32;operator=::(11,99)=#(11,95),(11,100)=&(11,95),(11,101)=*(11,95),(11,102)=&(11,103)=k(11,95),(0,6);:_ZN6_reent3$_23$_3aSERKS1_;2A.;__base_ctor::(11,104)=#(11,95),(0,6),(11,101),(11,102),(0,6);:_ZN6_reent3$_23$_3C2ERKS1_;2A.;__comp_ctor::(11,104):_ZN6_reent3$_23$_3C1ERKS1_;2A.;__base_ctor::(11,105)=#(11,95),(0,6),(11,101),(0,6);:_ZN6_reent3$_23$_3C2Ev;2A.;__comp_ctor::(11,105):_ZN6_reent3$_23$_3C1Ev;2A.;;,0,1632;_unused:(11,106)=s240_nextf:(11,107)=ar(12,11);0;29;(11,40),0,960;_nmalloc:(11,108)=ar(12,11);0;29;(0,17),960,960;operator=::(11,109)=#(11,106),(11,110)=&(11,106),(11,111)=*(11,106),(11,112)=&(11,113)=k(11,106),(0,6);:_ZN6_reent3$_23$_4aSERKS1_;2A.;__base_ctor::(11,114)=#(11,106),(0,6),(11,111),(11,112),(0,6);:_ZN6_reent3$_23$_4C2ERKS1_;2A.;__comp_ctor::(11,114):_ZN6_reent3$_23$_4C1ERKS1_;2A.;__base_ctor::(11,115)=#(11,106),(0,6),(11,111),(0,6);:_ZN6_reent3$_23$_4C2Ev;2A.;__comp_ctor::(11,115):_ZN6_reent3$_23$_4C1Ev;2A.;;,0,1920;operator=::(11,116)=#(11,94),(11,117)=&(11,94),(11,118)=*(11,94),(11,119)=&(11,120)=k(11,94),(0,6);:_ZN6_reent3$_2aSERKS0_;2A.;__base_ctor::(11,121)=#(11,94),(0,6),(11,118),(11,119),(0,6);:_ZN6_reent3$_2C2ERKS0_;2A.;__comp_ctor::(11,121):_ZN6_reent3$_2C1ERKS0_;2A.;__base_ctor::(11,122)=#(11,94),(0,6),(11,118),(0,6);:_ZN6_reent3$_2C2Ev;2A.;__comp_ctor::(11,122):_ZN6_reent3$_2C1Ev;2A.;;,704,1920;_atexit:(11,29),2624,32;_atexit0:(11,28),2656,3200;_sig_func:(11,123)=*(11,124)=*(11,125)=f(0,6),5856,32;__sglue:(11,69),5888,96;__sf:(11,126)=ar(12,11);0;2;(11,68),5984,2400;operator=::(11,127)=#(11,60),(11,128)=&(11,60),(11,59),(11,129)=&(11,130)=k(11,60),(0,6);:_ZN6_reentaSERKS_;2A.;__base_ctor::(11,131)=#(11,60),(0,6),(11,59),(11,129),(0,6);:_ZN6_reentC2ERKS_;2A.;__comp_ctor::(11,131):_ZN6_reentC1ERKS_;2A.;__base_ctor::(11,132)=#(11,60),(0,6),(11,59),(0,6);:_ZN6_reentC2Ev;2A.;__comp_ctor::(11,132):_ZN6_reentC1Ev;2A.;;",128,0,581,0
	.stabn	162,0,0,0
	.stabs	"/Applications/MoSync/include/newlib/malloc.h",130,0,0,0
	.stabs	"mallinfo:Tt(16,1)=s40arena:(0,3),0,32;ordblks:(0,3),32,32;smblks:(0,3),64,32;hblks:(0,3),96,32;hblkhd:(0,3),128,32;usmblks:(0,3),160,32;fsmblks:(0,3),192,32;uordblks:(0,3),224,32;fordblks:(0,3),256,32;keepcost:(0,3),288,32;operator=::(16,2)=#(16,1),(16,3)=&(16,1),(16,4)=*(16,1),(16,5)=&(16,6)=k(16,1),(0,6);:_ZN8mallinfoaSERKS_;2A.;__base_ctor::(16,7)=#(16,1),(0,6),(16,4),(16,5),(0,6);:_ZN8mallinfoC2ERKS_;2A.;__comp_ctor::(16,7):_ZN8mallinfoC1ERKS_;2A.;__base_ctor::(16,8)=#(16,1),(0,6),(16,4),(0,6);:_ZN8mallinfoC2Ev;2A.;__comp_ctor::(16,8):_ZN8mallinfoC1Ev;2A.;;",128,0,24,0
	.stabn	162,0,0,0
	.stabs	"div_t:t(10,1)=s8quot:(0,3),0,32;rem:(0,3),32,32;operator=::(10,2)=#(10,1),(10,3)=&(10,1),(10,4)=*(10,1),(10,5)=&(10,6)=k(10,1),(0,6);:_ZN5div_taSERKS_;2A.;__base_ctor::(10,7)=#(10,1),(0,6),(10,4),(10,5),(0,6);:_ZN5div_tC2ERKS_;2A.;__comp_ctor::(10,7):_ZN5div_tC1ERKS_;2A.;__base_ctor::(10,8)=#(10,1),(0,6),(10,4),(0,6);:_ZN5div_tC2Ev;2A.;__comp_ctor::(10,8):_ZN5div_tC1Ev;2A.;;",128,0,35,0
	.stabs	"ldiv_t:t(10,9)=s8quot:(0,18),0,32;rem:(0,18),32,32;operator=::(10,10)=#(10,9),(10,11)=&(10,9),(10,12)=*(10,9),(10,13)=&(10,14)=k(10,9),(0,6);:_ZN6ldiv_taSERKS_;2A.;__base_ctor::(10,15)=#(10,9),(0,6),(10,12),(10,13),(0,6);:_ZN6ldiv_tC2ERKS_;2A.;__comp_ctor::(10,15):_ZN6ldiv_tC1ERKS_;2A.;__base_ctor::(10,16)=#(10,9),(0,6),(10,12),(0,6);:_ZN6ldiv_tC2Ev;2A.;__comp_ctor::(10,16):_ZN6ldiv_tC1Ev;2A.;;",128,0,41,0
	.stabs	"lldiv_t:t(10,17)=s16quot:(0,15),0,64;rem:(0,15),64,64;operator=::(10,18)=#(10,17),(10,19)=&(10,17),(10,20)=*(10,17),(10,21)=&(10,22)=k(10,17),(0,6);:_ZN7lldiv_taSERKS_;2A.;__base_ctor::(10,23)=#(10,17),(0,6),(10,20),(10,21),(0,6);:_ZN7lldiv_tC2ERKS_;2A.;__comp_ctor::(10,23):_ZN7lldiv_tC1ERKS_;2A.;__base_ctor::(10,24)=#(10,17),(0,6),(10,20),(0,6);:_ZN7lldiv_tC2Ev;2A.;__comp_ctor::(10,24):_ZN7lldiv_tC1Ev;2A.;;",128,0,48,0
	.stabn	162,0,0,0
	.stabn	162,0,0,0
	.stabs	"/Applications/MoSync/include/newlib/stlport/stl/_cmath.h",130,0,0,0
	.stabs	"/Applications/MoSync/include/newlib/stlport/math.h",130,0,0,0
	.stabs	"/Applications/MoSync/include/newlib/stlport/../math.h",130,0,0,0
	.stabs	"__dmath:Tt(19,1)=u8d:(0,8),0,64;i:(19,2)=ar(12,11);0;1;(11,1),0,64;operator=::(19,3)=#(19,1),(19,4)=&(19,1),(19,5)=*(19,1),(19,6)=&(19,7)=k(19,1),(0,6);:_ZN7__dmathaSERKS_;2A.;__base_ctor::(19,8)=#(19,1),(0,6),(19,5),(19,6),(0,6);:_ZN7__dmathC2ERKS_;2A.;__comp_ctor::(19,8):_ZN7__dmathC1ERKS_;2A.;__base_ctor::(19,9)=#(19,1),(0,6),(19,5),(0,6);:_ZN7__dmathC2Ev;2A.;__comp_ctor::(19,9):_ZN7__dmathC1Ev;2A.;;",128,0,15,0
	.stabs	"__fmath:Tt(19,10)=u4f:(0,9),0,32;i:(11,4),0,32;operator=::(19,11)=#(19,10),(19,12)=&(19,10),(19,13)=*(19,10),(19,14)=&(19,15)=k(19,10),(0,6);:_ZN7__fmathaSERKS_;2A.;__base_ctor::(19,16)=#(19,10),(0,6),(19,13),(19,14),(0,6);:_ZN7__fmathC2ERKS_;2A.;__comp_ctor::(19,16):_ZN7__fmathC1ERKS_;2A.;__base_ctor::(19,17)=#(19,10),(0,6),(19,13),(0,6);:_ZN7__fmathC2Ev;2A.;__comp_ctor::(19,17):_ZN7__fmathC1Ev;2A.;;",128,0,21,0
	.stabs	"float_t:t(19,18)=(0,9)",128,0,148,0
	.stabs	"double_t:t(19,19)=(0,8)",128,0,149,0
	.stabs	"__exception:Tt(19,20)=s36type:(0,3),0,32;name:(11,88),32,32;arg1:(0,8),64,64;arg2:(0,8),128,64;retval:(0,8),192,64;err:(0,3),256,32;operator=::(19,21)=#(19,20),(19,22)=&(19,20),(19,23)=*(19,20),(19,24)=&(19,25)=k(19,20),(0,6);:_ZN11__exceptionaSERKS_;2A.;__base_ctor::(19,26)=#(19,20),(0,6),(19,23),(19,24),(0,6);:_ZN11__exceptionC2ERKS_;2A.;__comp_ctor::(19,26):_ZN11__exceptionC1ERKS_;2A.;__base_ctor::(19,27)=#(19,20),(0,6),(19,23),(0,6);:_ZN11__exceptionC2Ev;2A.;__comp_ctor::(19,27):_ZN11__exceptionC1Ev;2A.;;",128,0,501,0
	.stabs	"__fdlibm_version:t(19,28)=e__fdlibm_ieee:-1,__fdlibm_svid:0,__fdlibm_xopen:1,__fdlibm_posix:2,;",128,0,555,0
	.stabn	162,0,0,0
	.stabn	162,0,0,0
	.stabn	162,0,0,0
	.stabn	162,0,0,0
	.stabs	"/Applications/MoSync/include/newlib/stlport/stl/_algobase.h",130,0,0,0
	.stabs	"/Applications/MoSync/include/newlib/stlport/stl/_pair.h",130,0,0,0
	.stabs	"/Applications/MoSync/include/newlib/stlport/stl/type_traits.h",130,0,0,0
	.stabs	"/Applications/MoSync/include/newlib/stlport/stl/type_manips.h",130,0,0,0
	.stabs	"__true_type:Tt(23,1)=s1operator=::(23,2)=#(23,1),(23,3)=&(23,1),(23,4)=*(23,1),(23,5)=&(23,6)=k(23,1),(0,6);:_ZN11stlpmtx_std11__true_typeaSERKS0_;2A.;__base_ctor::(23,7)=#(23,1),(0,6),(23,4),(23,5),(0,6);:_ZN11stlpmtx_std11__true_typeC2ERKS0_;2A.;__comp_ctor::(23,7):_ZN11stlpmtx_std11__true_typeC1ERKS0_;2A.;__base_ctor::(23,8)=#(23,1),(0,6),(23,4),(0,6);:_ZN11stlpmtx_std11__true_typeC2Ev;2A.;__comp_ctor::(23,8):_ZN11stlpmtx_std11__true_typeC1Ev;2A.;;",128,0,23,0
	.stabs	"__false_type:Tt(23,9)=s1operator=::(23,10)=#(23,9),(23,11)=&(23,9),(23,12)=*(23,9),(23,13)=&(23,14)=k(23,9),(0,6);:_ZN11stlpmtx_std12__false_typeaSERKS0_;2A.;__base_ctor::(23,15)=#(23,9),(0,6),(23,12),(23,13),(0,6);:_ZN11stlpmtx_std12__false_typeC2ERKS0_;2A.;__comp_ctor::(23,15):_ZN11stlpmtx_std12__false_typeC1ERKS0_;2A.;__base_ctor::(23,16)=#(23,9),(0,6),(23,12),(0,6);:_ZN11stlpmtx_std12__false_typeC2Ev;2A.;__comp_ctor::(23,16):_ZN11stlpmtx_std12__false_typeC1Ev;2A.;;",128,0,24,0
	.stabs	"__bool2type<1>:Tt(23,17)=s1operator=::(23,18)=#(23,17),(23,19)=&(23,17),(23,20)=*(23,17),(23,21)=&(23,22)=k(23,17),(0,6);:_ZN11stlpmtx_std11__bool2typeILi1EEaSERKS1_;2A.;__base_ctor::(23,23)=#(23,17),(0,6),(23,20),(23,21),(0,6);:_ZN11stlpmtx_std11__bool2typeILi1EEC2ERKS1_;2A.;__comp_ctor::(23,23):_ZN11stlpmtx_std11__bool2typeILi1EEC1ERKS1_;2A.;__base_ctor::(23,24)=#(23,17),(0,6),(23,20),(0,6);:_ZN11stlpmtx_std11__bool2typeILi1EEC2Ev;2A.;__comp_ctor::(23,24):_ZN11stlpmtx_std11__bool2typeILi1EEC1Ev;2A.;;",128,0,39,0
	.stabs	"__bool2type<0>:Tt(23,25)=s1operator=::(23,26)=#(23,25),(23,27)=&(23,25),(23,28)=*(23,25),(23,29)=&(23,30)=k(23,25),(0,6);:_ZN11stlpmtx_std11__bool2typeILi0EEaSERKS1_;2A.;__base_ctor::(23,31)=#(23,25),(0,6),(23,28),(23,29),(0,6);:_ZN11stlpmtx_std11__bool2typeILi0EEC2ERKS1_;2A.;__comp_ctor::(23,31):_ZN11stlpmtx_std11__bool2typeILi0EEC1ERKS1_;2A.;__base_ctor::(23,32)=#(23,25),(0,6),(23,28),(0,6);:_ZN11stlpmtx_std11__bool2typeILi0EEC2Ev;2A.;__comp_ctor::(23,32):_ZN11stlpmtx_std11__bool2typeILi0EEC1Ev;2A.;;",128,0,42,0
	.stabs	"__type2bool<stlpmtx_std::__true_type>:Tt(23,33)=s1operator=::(23,34)=#(23,33),(23,35)=&(23,33),(23,36)=*(23,33),(23,37)=&(23,38)=k(23,33),(0,6);:_ZN11stlpmtx_std11__type2boolINS_11__true_typeEEaSERKS2_;2A.;__base_ctor::(23,39)=#(23,33),(0,6),(23,36),(23,37),(0,6);:_ZN11stlpmtx_std11__type2boolINS_11__true_typeEEC2ERKS2_;2A.;__comp_ctor::(23,39):_ZN11stlpmtx_std11__type2boolINS_11__true_typeEEC1ERKS2_;2A.;__base_ctor::(23,40)=#(23,33),(0,6),(23,36),(0,6);:_ZN11stlpmtx_std11__type2boolINS_11__true_typeEEC2Ev;2A.;__comp_ctor::(23,40):_ZN11stlpmtx_std11__type2boolINS_11__true_typeEEC1Ev;2A.;;",128,0,49,0
	.stabs	"__type2bool<stlpmtx_std::__false_type>:Tt(23,41)=s1operator=::(23,42)=#(23,41),(23,43)=&(23,41),(23,44)=*(23,41),(23,45)=&(23,46)=k(23,41),(0,6);:_ZN11stlpmtx_std11__type2boolINS_12__false_typeEEaSERKS2_;2A.;__base_ctor::(23,47)=#(23,41),(0,6),(23,44),(23,45),(0,6);:_ZN11stlpmtx_std11__type2boolINS_12__false_typeEEC2ERKS2_;2A.;__comp_ctor::(23,47):_ZN11stlpmtx_std11__type2boolINS_12__false_typeEEC1ERKS2_;2A.;__base_ctor::(23,48)=#(23,41),(0,6),(23,44),(0,6);:_ZN11stlpmtx_std11__type2boolINS_12__false_typeEEC2Ev;2A.;__comp_ctor::(23,48):_ZN11stlpmtx_std11__type2boolINS_12__false_typeEEC1Ev;2A.;;",128,0,52,0
	.stabs	"_Not<stlpmtx_std::__false_type>:Tt(23,49)=s1operator=::(23,50)=#(23,49),(23,51)=&(23,49),(23,52)=*(23,49),(23,53)=&(23,54)=k(23,49),(0,6);:_ZN11stlpmtx_std4_NotINS_12__false_typeEEaSERKS2_;2A.;__base_ctor::(23,55)=#(23,49),(0,6),(23,52),(23,53),(0,6);:_ZN11stlpmtx_std4_NotINS_12__false_typeEEC2ERKS2_;2A.;__comp_ctor::(23,55):_ZN11stlpmtx_std4_NotINS_12__false_typeEEC1ERKS2_;2A.;__base_ctor::(23,56)=#(23,49),(0,6),(23,52),(0,6);:_ZN11stlpmtx_std4_NotINS_12__false_typeEEC2Ev;2A.;__comp_ctor::(23,56):_ZN11stlpmtx_std4_NotINS_12__false_typeEEC1Ev;2A.;;",128,0,59,0
	.stabs	"_Land2<stlpmtx_std::__true_type,stlpmtx_std::__true_type>:Tt(23,57)=s1operator=::(23,58)=#(23,57),(23,59)=&(23,57),(23,60)=*(23,57),(23,61)=&(23,62)=k(23,57),(0,6);:_ZN11stlpmtx_std6_Land2INS_11__true_typeES1_EaSERKS2_;2A.;__base_ctor::(23,63)=#(23,57),(0,6),(23,60),(23,61),(0,6);:_ZN11stlpmtx_std6_Land2INS_11__true_typeES1_EC2ERKS2_;2A.;__comp_ctor::(23,63):_ZN11stlpmtx_std6_Land2INS_11__true_typeES1_EC1ERKS2_;2A.;__base_ctor::(23,64)=#(23,57),(0,6),(23,60),(0,6);:_ZN11stlpmtx_std6_Land2INS_11__true_typeES1_EC2Ev;2A.;__comp_ctor::(23,64):_ZN11stlpmtx_std6_Land2INS_11__true_typeES1_EC1Ev;2A.;;",128,0,66,0
	.stabs	"_Land3<stlpmtx_std::__true_type,stlpmtx_std::__true_type,stlpmtx_std::__true_type>:Tt(23,65)=s1operator=::(23,66)=#(23,65),(23,67)=&(23,65),(23,68)=*(23,65),(23,69)=&(23,70)=k(23,65),(0,6);:_ZN11stlpmtx_std6_Land3INS_11__true_typeES1_S1_EaSERKS2_;2A.;__base_ctor::(23,71)=#(23,65),(0,6),(23,68),(23,69),(0,6);:_ZN11stlpmtx_std6_Land3INS_11__true_typeES1_S1_EC2ERKS2_;2A.;__comp_ctor::(23,71):_ZN11stlpmtx_std6_Land3INS_11__true_typeES1_S1_EC1ERKS2_;2A.;__base_ctor::(23,72)=#(23,65),(0,6),(23,68),(0,6);:_ZN11stlpmtx_std6_Land3INS_11__true_typeES1_S1_EC2Ev;2A.;__comp_ctor::(23,72):_ZN11stlpmtx_std6_Land3INS_11__true_typeES1_S1_EC1Ev;2A.;;",128,0,73,0
	.stabs	"_Lor2<stlpmtx_std::__false_type,stlpmtx_std::__false_type>:Tt(23,73)=s1operator=::(23,74)=#(23,73),(23,75)=&(23,73),(23,76)=*(23,73),(23,77)=&(23,78)=k(23,73),(0,6);:_ZN11stlpmtx_std5_Lor2INS_12__false_typeES1_EaSERKS2_;2A.;__base_ctor::(23,79)=#(23,73),(0,6),(23,76),(23,77),(0,6);:_ZN11stlpmtx_std5_Lor2INS_12__false_typeES1_EC2ERKS2_;2A.;__comp_ctor::(23,79):_ZN11stlpmtx_std5_Lor2INS_12__false_typeES1_EC1ERKS2_;2A.;__base_ctor::(23,80)=#(23,73),(0,6),(23,76),(0,6);:_ZN11stlpmtx_std5_Lor2INS_12__false_typeES1_EC2Ev;2A.;__comp_ctor::(23,80):_ZN11stlpmtx_std5_Lor2INS_12__false_typeES1_EC1Ev;2A.;;",128,0,80,0
	.stabs	"_Lor3<stlpmtx_std::__false_type,stlpmtx_std::__false_type,stlpmtx_std::__false_type>:Tt(23,81)=s1operator=::(23,82)=#(23,81),(23,83)=&(23,81),(23,84)=*(23,81),(23,85)=&(23,86)=k(23,81),(0,6);:_ZN11stlpmtx_std5_Lor3INS_12__false_typeES1_S1_EaSERKS2_;2A.;__base_ctor::(23,87)=#(23,81),(0,6),(23,84),(23,85),(0,6);:_ZN11stlpmtx_std5_Lor3INS_12__false_typeES1_S1_EC2ERKS2_;2A.;__comp_ctor::(23,87):_ZN11stlpmtx_std5_Lor3INS_12__false_typeES1_S1_EC1ERKS2_;2A.;__base_ctor::(23,88)=#(23,81),(0,6),(23,84),(0,6);:_ZN11stlpmtx_std5_Lor3INS_12__false_typeES1_S1_EC2Ev;2A.;__comp_ctor::(23,88):_ZN11stlpmtx_std5_Lor3INS_12__false_typeES1_S1_EC1Ev;2A.;;",128,0,87,0
	.stabs	"_NoVolatilePointerShim:Tt(23,89)=s1__base_ctor::(23,90)=#(23,89),(0,6),(23,91)=*(23,89),(23,92)=*(23,93)=k(0,6),(0,6);:_ZN11stlpmtx_std22_NoVolatilePointerShimC2EPKv;2A.;__comp_ctor::(23,90):_ZN11stlpmtx_std22_NoVolatilePointerShimC1EPKv;2A.;operator=::(23,94)=#(23,89),(23,95)=&(23,89),(23,91),(23,96)=&(23,97)=k(23,89),(0,6);:_ZN11stlpmtx_std22_NoVolatilePointerShimaSERKS0_;2A.;__base_ctor::(23,98)=#(23,89),(0,6),(23,91),(23,96),(0,6);:_ZN11stlpmtx_std22_NoVolatilePointerShimC2ERKS0_;2A.;__comp_ctor::(23,98):_ZN11stlpmtx_std22_NoVolatilePointerShimC1ERKS0_;2A.;;",128,0,164,0
	.stabn	162,0,0,0
	.stabs	"_IsIntegral<bool>:Tt(22,1)=s1operator=::(22,2)=#(22,1),(22,3)=&(22,1),(22,4)=*(22,1),(22,5)=&(22,6)=k(22,1),(0,6);:_ZN11stlpmtx_std11_IsIntegralIbEaSERKS1_;2A.;__base_ctor::(22,7)=#(22,1),(0,6),(22,4),(22,5),(0,6);:_ZN11stlpmtx_std11_IsIntegralIbEC2ERKS1_;2A.;__comp_ctor::(22,7):_ZN11stlpmtx_std11_IsIntegralIbEC1ERKS1_;2A.;__base_ctor::(22,8)=#(22,1),(0,6),(22,4),(0,6);:_ZN11stlpmtx_std11_IsIntegralIbEC2Ev;2A.;__comp_ctor::(22,8):_ZN11stlpmtx_std11_IsIntegralIbEC1Ev;2A.;;",128,0,84,0
	.stabs	"_IsIntegral<char>:Tt(22,9)=s1operator=::(22,10)=#(22,9),(22,11)=&(22,9),(22,12)=*(22,9),(22,13)=&(22,14)=k(22,9),(0,6);:_ZN11stlpmtx_std11_IsIntegralIcEaSERKS1_;2A.;__base_ctor::(22,15)=#(22,9),(0,6),(22,12),(22,13),(0,6);:_ZN11stlpmtx_std11_IsIntegralIcEC2ERKS1_;2A.;__comp_ctor::(22,15):_ZN11stlpmtx_std11_IsIntegralIcEC1ERKS1_;2A.;__base_ctor::(22,16)=#(22,9),(0,6),(22,12),(0,6);:_ZN11stlpmtx_std11_IsIntegralIcEC2Ev;2A.;__comp_ctor::(22,16):_ZN11stlpmtx_std11_IsIntegralIcEC1Ev;2A.;;",128,0,88,0
	.stabs	"_IsIntegral<signed char>:Tt(22,17)=s1operator=::(22,18)=#(22,17),(22,19)=&(22,17),(22,20)=*(22,17),(22,21)=&(22,22)=k(22,17),(0,6);:_ZN11stlpmtx_std11_IsIntegralIaEaSERKS1_;2A.;__base_ctor::(22,23)=#(22,17),(0,6),(22,20),(22,21),(0,6);:_ZN11stlpmtx_std11_IsIntegralIaEC2ERKS1_;2A.;__comp_ctor::(22,23):_ZN11stlpmtx_std11_IsIntegralIaEC1ERKS1_;2A.;__base_ctor::(22,24)=#(22,17),(0,6),(22,20),(0,6);:_ZN11stlpmtx_std11_IsIntegralIaEC2Ev;2A.;__comp_ctor::(22,24):_ZN11stlpmtx_std11_IsIntegralIaEC1Ev;2A.;;",128,0,92,0
	.stabs	"_IsIntegral<unsigned char>:Tt(22,25)=s1operator=::(22,26)=#(22,25),(22,27)=&(22,25),(22,28)=*(22,25),(22,29)=&(22,30)=k(22,25),(0,6);:_ZN11stlpmtx_std11_IsIntegralIhEaSERKS1_;2A.;__base_ctor::(22,31)=#(22,25),(0,6),(22,28),(22,29),(0,6);:_ZN11stlpmtx_std11_IsIntegralIhEC2ERKS1_;2A.;__comp_ctor::(22,31):_ZN11stlpmtx_std11_IsIntegralIhEC1ERKS1_;2A.;__base_ctor::(22,32)=#(22,25),(0,6),(22,28),(0,6);:_ZN11stlpmtx_std11_IsIntegralIhEC2Ev;2A.;__comp_ctor::(22,32):_ZN11stlpmtx_std11_IsIntegralIhEC1Ev;2A.;;",128,0,96,0
	.stabs	"_IsIntegral<short int>:Tt(22,33)=s1operator=::(22,34)=#(22,33),(22,35)=&(22,33),(22,36)=*(22,33),(22,37)=&(22,38)=k(22,33),(0,6);:_ZN11stlpmtx_std11_IsIntegralIsEaSERKS1_;2A.;__base_ctor::(22,39)=#(22,33),(0,6),(22,36),(22,37),(0,6);:_ZN11stlpmtx_std11_IsIntegralIsEC2ERKS1_;2A.;__comp_ctor::(22,39):_ZN11stlpmtx_std11_IsIntegralIsEC1ERKS1_;2A.;__base_ctor::(22,40)=#(22,33),(0,6),(22,36),(0,6);:_ZN11stlpmtx_std11_IsIntegralIsEC2Ev;2A.;__comp_ctor::(22,40):_ZN11stlpmtx_std11_IsIntegralIsEC1Ev;2A.;;",128,0,104,0
	.stabs	"_IsIntegral<short unsigned int>:Tt(22,41)=s1operator=::(22,42)=#(22,41),(22,43)=&(22,41),(22,44)=*(22,41),(22,45)=&(22,46)=k(22,41),(0,6);:_ZN11stlpmtx_std11_IsIntegralItEaSERKS1_;2A.;__base_ctor::(22,47)=#(22,41),(0,6),(22,44),(22,45),(0,6);:_ZN11stlpmtx_std11_IsIntegralItEC2ERKS1_;2A.;__comp_ctor::(22,47):_ZN11stlpmtx_std11_IsIntegralItEC1ERKS1_;2A.;__base_ctor::(22,48)=#(22,41),(0,6),(22,44),(0,6);:_ZN11stlpmtx_std11_IsIntegralItEC2Ev;2A.;__comp_ctor::(22,48):_ZN11stlpmtx_std11_IsIntegralItEC1Ev;2A.;;",128,0,107,0
	.stabs	"_IsIntegral<int>:Tt(22,49)=s1operator=::(22,50)=#(22,49),(22,51)=&(22,49),(22,52)=*(22,49),(22,53)=&(22,54)=k(22,49),(0,6);:_ZN11stlpmtx_std11_IsIntegralIiEaSERKS1_;2A.;__base_ctor::(22,55)=#(22,49),(0,6),(22,52),(22,53),(0,6);:_ZN11stlpmtx_std11_IsIntegralIiEC2ERKS1_;2A.;__comp_ctor::(22,55):_ZN11stlpmtx_std11_IsIntegralIiEC1ERKS1_;2A.;__base_ctor::(22,56)=#(22,49),(0,6),(22,52),(0,6);:_ZN11stlpmtx_std11_IsIntegralIiEC2Ev;2A.;__comp_ctor::(22,56):_ZN11stlpmtx_std11_IsIntegralIiEC1Ev;2A.;;",128,0,110,0
	.stabs	"_IsIntegral<unsigned int>:Tt(22,57)=s1operator=::(22,58)=#(22,57),(22,59)=&(22,57),(22,60)=*(22,57),(22,61)=&(22,62)=k(22,57),(0,6);:_ZN11stlpmtx_std11_IsIntegralIjEaSERKS1_;2A.;__base_ctor::(22,63)=#(22,57),(0,6),(22,60),(22,61),(0,6);:_ZN11stlpmtx_std11_IsIntegralIjEC2ERKS1_;2A.;__comp_ctor::(22,63):_ZN11stlpmtx_std11_IsIntegralIjEC1ERKS1_;2A.;__base_ctor::(22,64)=#(22,57),(0,6),(22,60),(0,6);:_ZN11stlpmtx_std11_IsIntegralIjEC2Ev;2A.;__comp_ctor::(22,64):_ZN11stlpmtx_std11_IsIntegralIjEC1Ev;2A.;;",128,0,113,0
	.stabs	"_IsIntegral<long int>:Tt(22,65)=s1operator=::(22,66)=#(22,65),(22,67)=&(22,65),(22,68)=*(22,65),(22,69)=&(22,70)=k(22,65),(0,6);:_ZN11stlpmtx_std11_IsIntegralIlEaSERKS1_;2A.;__base_ctor::(22,71)=#(22,65),(0,6),(22,68),(22,69),(0,6);:_ZN11stlpmtx_std11_IsIntegralIlEC2ERKS1_;2A.;__comp_ctor::(22,71):_ZN11stlpmtx_std11_IsIntegralIlEC1ERKS1_;2A.;__base_ctor::(22,72)=#(22,65),(0,6),(22,68),(0,6);:_ZN11stlpmtx_std11_IsIntegralIlEC2Ev;2A.;__comp_ctor::(22,72):_ZN11stlpmtx_std11_IsIntegralIlEC1Ev;2A.;;",128,0,116,0
	.stabs	"_IsIntegral<long unsigned int>:Tt(22,73)=s1operator=::(22,74)=#(22,73),(22,75)=&(22,73),(22,76)=*(22,73),(22,77)=&(22,78)=k(22,73),(0,6);:_ZN11stlpmtx_std11_IsIntegralImEaSERKS1_;2A.;__base_ctor::(22,79)=#(22,73),(0,6),(22,76),(22,77),(0,6);:_ZN11stlpmtx_std11_IsIntegralImEC2ERKS1_;2A.;__comp_ctor::(22,79):_ZN11stlpmtx_std11_IsIntegralImEC1ERKS1_;2A.;__base_ctor::(22,80)=#(22,73),(0,6),(22,76),(0,6);:_ZN11stlpmtx_std11_IsIntegralImEC2Ev;2A.;__comp_ctor::(22,80):_ZN11stlpmtx_std11_IsIntegralImEC1Ev;2A.;;",128,0,119,0
	.stabs	"_IsIntegral<long long int>:Tt(22,81)=s1operator=::(22,82)=#(22,81),(22,83)=&(22,81),(22,84)=*(22,81),(22,85)=&(22,86)=k(22,81),(0,6);:_ZN11stlpmtx_std11_IsIntegralIxEaSERKS1_;2A.;__base_ctor::(22,87)=#(22,81),(0,6),(22,84),(22,85),(0,6);:_ZN11stlpmtx_std11_IsIntegralIxEC2ERKS1_;2A.;__comp_ctor::(22,87):_ZN11stlpmtx_std11_IsIntegralIxEC1ERKS1_;2A.;__base_ctor::(22,88)=#(22,81),(0,6),(22,84),(0,6);:_ZN11stlpmtx_std11_IsIntegralIxEC2Ev;2A.;__comp_ctor::(22,88):_ZN11stlpmtx_std11_IsIntegralIxEC1Ev;2A.;;",128,0,123,0
	.stabs	"_IsIntegral<long long unsigned int>:Tt(22,89)=s1operator=::(22,90)=#(22,89),(22,91)=&(22,89),(22,92)=*(22,89),(22,93)=&(22,94)=k(22,89),(0,6);:_ZN11stlpmtx_std11_IsIntegralIyEaSERKS1_;2A.;__base_ctor::(22,95)=#(22,89),(0,6),(22,92),(22,93),(0,6);:_ZN11stlpmtx_std11_IsIntegralIyEC2ERKS1_;2A.;__comp_ctor::(22,95):_ZN11stlpmtx_std11_IsIntegralIyEC1ERKS1_;2A.;__base_ctor::(22,96)=#(22,89),(0,6),(22,92),(0,6);:_ZN11stlpmtx_std11_IsIntegralIyEC2Ev;2A.;__comp_ctor::(22,96):_ZN11stlpmtx_std11_IsIntegralIyEC1Ev;2A.;;",128,0,126,0
	.stabs	"_IsRational<float>:Tt(22,97)=s1operator=::(22,98)=#(22,97),(22,99)=&(22,97),(22,100)=*(22,97),(22,101)=&(22,102)=k(22,97),(0,6);:_ZN11stlpmtx_std11_IsRationalIfEaSERKS1_;2A.;__base_ctor::(22,103)=#(22,97),(0,6),(22,100),(22,101),(0,6);:_ZN11stlpmtx_std11_IsRationalIfEC2ERKS1_;2A.;__comp_ctor::(22,103):_ZN11stlpmtx_std11_IsRationalIfEC1ERKS1_;2A.;__base_ctor::(22,104)=#(22,97),(0,6),(22,100),(0,6);:_ZN11stlpmtx_std11_IsRationalIfEC2Ev;2A.;__comp_ctor::(22,104):_ZN11stlpmtx_std11_IsRationalIfEC1Ev;2A.;;",128,0,133,0
	.stabs	"_IsRational<double>:Tt(22,105)=s1operator=::(22,106)=#(22,105),(22,107)=&(22,105),(22,108)=*(22,105),(22,109)=&(22,110)=k(22,105),(0,6);:_ZN11stlpmtx_std11_IsRationalIdEaSERKS1_;2A.;__base_ctor::(22,111)=#(22,105),(0,6),(22,108),(22,109),(0,6);:_ZN11stlpmtx_std11_IsRationalIdEC2ERKS1_;2A.;__comp_ctor::(22,111):_ZN11stlpmtx_std11_IsRationalIdEC1ERKS1_;2A.;__base_ctor::(22,112)=#(22,105),(0,6),(22,108),(0,6);:_ZN11stlpmtx_std11_IsRationalIdEC2Ev;2A.;__comp_ctor::(22,112):_ZN11stlpmtx_std11_IsRationalIdEC1Ev;2A.;;",128,0,136,0
	.stabs	"__type_traits_aux<stlpmtx_std::__false_type>:Tt(22,113)=s1operator=::(22,114)=#(22,113),(22,115)=&(22,113),(22,116)=*(22,113),(22,117)=&(22,118)=k(22,113),(0,6);:_ZN11stlpmtx_std17__type_traits_auxINS_12__false_typeEEaSERKS2_;2A.;__base_ctor::(22,119)=#(22,113),(0,6),(22,116),(22,117),(0,6);:_ZN11stlpmtx_std17__type_traits_auxINS_12__false_typeEEC2ERKS2_;2A.;__comp_ctor::(22,119):_ZN11stlpmtx_std17__type_traits_auxINS_12__false_typeEEC1ERKS2_;2A.;__base_ctor::(22,120)=#(22,113),(0,6),(22,116),(0,6);:_ZN11stlpmtx_std17__type_traits_auxINS_12__false_typeEEC2Ev;2A.;__comp_ctor::(22,120):_ZN11stlpmtx_std17__type_traits_auxINS_12__false_typeEEC1Ev;2A.;;",128,0,154,0
	.stabs	"__type_traits_aux<stlpmtx_std::__true_type>:Tt(22,121)=s1operator=::(22,122)=#(22,121),(22,123)=&(22,121),(22,124)=*(22,121),(22,125)=&(22,126)=k(22,121),(0,6);:_ZN11stlpmtx_std17__type_traits_auxINS_11__true_typeEEaSERKS2_;2A.;__base_ctor::(22,127)=#(22,121),(0,6),(22,124),(22,125),(0,6);:_ZN11stlpmtx_std17__type_traits_auxINS_11__true_typeEEC2ERKS2_;2A.;__comp_ctor::(22,127):_ZN11stlpmtx_std17__type_traits_auxINS_11__true_typeEEC1ERKS2_;2A.;__base_ctor::(22,128)=#(22,121),(0,6),(22,124),(0,6);:_ZN11stlpmtx_std17__type_traits_auxINS_11__true_typeEEC2Ev;2A.;__comp_ctor::(22,128):_ZN11stlpmtx_std17__type_traits_auxINS_11__true_typeEEC1Ev;2A.;;",128,0,163,0
	.stabs	"__type_traits<bool>:Tt(22,129)=s1!1,020,(22,121);operator=::(22,130)=#(22,129),(22,131)=&(22,129),(22,132)=*(22,129),(22,133)=&(22,134)=k(22,129),(0,6);:_ZN11stlpmtx_std13__type_traitsIbEaSERKS1_;2A.;__base_ctor::(22,135)=#(22,129),(0,6),(22,132),(22,133),(0,6);:_ZN11stlpmtx_std13__type_traitsIbEC2ERKS1_;2A.;__comp_ctor::(22,135):_ZN11stlpmtx_std13__type_traitsIbEC1ERKS1_;2A.;__base_ctor::(22,136)=#(22,129),(0,6),(22,132),(0,6);:_ZN11stlpmtx_std13__type_traitsIbEC2Ev;2A.;__comp_ctor::(22,136):_ZN11stlpmtx_std13__type_traitsIbEC1Ev;2A.;;",128,0,284,0
	.stabs	"__type_traits<const bool>:Tt(22,137)=s1!1,020,(22,121);operator=::(22,138)=#(22,137),(22,139)=&(22,137),(22,140)=*(22,137),(22,141)=&(22,142)=k(22,137),(0,6);:_ZN11stlpmtx_std13__type_traitsIKbEaSERKS2_;2A.;__base_ctor::(22,143)=#(22,137),(0,6),(22,140),(22,141),(0,6);:_ZN11stlpmtx_std13__type_traitsIKbEC2ERKS2_;2A.;__comp_ctor::(22,143):_ZN11stlpmtx_std13__type_traitsIKbEC1ERKS2_;2A.;__base_ctor::(22,144)=#(22,137),(0,6),(22,140),(0,6);:_ZN11stlpmtx_std13__type_traitsIKbEC2Ev;2A.;__comp_ctor::(22,144):_ZN11stlpmtx_std13__type_traitsIKbEC1Ev;2A.;;",128,0,284,0
	.stabs	"__type_traits<volatile bool>:Tt(22,145)=s1!1,020,(22,121);operator=::(22,146)=#(22,145),(22,147)=&(22,145),(22,148)=*(22,145),(22,149)=&(22,150)=k(22,145),(0,6);:_ZN11stlpmtx_std13__type_traitsIVbEaSERKS2_;2A.;__base_ctor::(22,151)=#(22,145),(0,6),(22,148),(22,149),(0,6);:_ZN11stlpmtx_std13__type_traitsIVbEC2ERKS2_;2A.;__comp_ctor::(22,151):_ZN11stlpmtx_std13__type_traitsIVbEC1ERKS2_;2A.;__base_ctor::(22,152)=#(22,145),(0,6),(22,148),(0,6);:_ZN11stlpmtx_std13__type_traitsIVbEC2Ev;2A.;__comp_ctor::(22,152):_ZN11stlpmtx_std13__type_traitsIVbEC1Ev;2A.;;",128,0,284,0
	.stabs	"__type_traits<const volatile bool>:Tt(22,153)=s1!1,020,(22,121);operator=::(22,154)=#(22,153),(22,155)=&(22,153),(22,156)=*(22,153),(22,157)=&(22,158)=k(22,153),(0,6);:_ZN11stlpmtx_std13__type_traitsIVKbEaSERKS2_;2A.;__base_ctor::(22,159)=#(22,153),(0,6),(22,156),(22,157),(0,6);:_ZN11stlpmtx_std13__type_traitsIVKbEC2ERKS2_;2A.;__comp_ctor::(22,159):_ZN11stlpmtx_std13__type_traitsIVKbEC1ERKS2_;2A.;__base_ctor::(22,160)=#(22,153),(0,6),(22,156),(0,6);:_ZN11stlpmtx_std13__type_traitsIVKbEC2Ev;2A.;__comp_ctor::(22,160):_ZN11stlpmtx_std13__type_traitsIVKbEC1Ev;2A.;;",128,0,284,0
	.stabs	"__type_traits<char>:Tt(22,161)=s1!1,020,(22,121);operator=::(22,162)=#(22,161),(22,163)=&(22,161),(22,164)=*(22,161),(22,165)=&(22,166)=k(22,161),(0,6);:_ZN11stlpmtx_std13__type_traitsIcEaSERKS1_;2A.;__base_ctor::(22,167)=#(22,161),(0,6),(22,164),(22,165),(0,6);:_ZN11stlpmtx_std13__type_traitsIcEC2ERKS1_;2A.;__comp_ctor::(22,167):_ZN11stlpmtx_std13__type_traitsIcEC1ERKS1_;2A.;__base_ctor::(22,168)=#(22,161),(0,6),(22,164),(0,6);:_ZN11stlpmtx_std13__type_traitsIcEC2Ev;2A.;__comp_ctor::(22,168):_ZN11stlpmtx_std13__type_traitsIcEC1Ev;2A.;;",128,0,286,0
	.stabs	"__type_traits<const char>:Tt(22,169)=s1!1,020,(22,121);operator=::(22,170)=#(22,169),(22,171)=&(22,169),(22,172)=*(22,169),(22,173)=&(22,174)=k(22,169),(0,6);:_ZN11stlpmtx_std13__type_traitsIKcEaSERKS2_;2A.;__base_ctor::(22,175)=#(22,169),(0,6),(22,172),(22,173),(0,6);:_ZN11stlpmtx_std13__type_traitsIKcEC2ERKS2_;2A.;__comp_ctor::(22,175):_ZN11stlpmtx_std13__type_traitsIKcEC1ERKS2_;2A.;__base_ctor::(22,176)=#(22,169),(0,6),(22,172),(0,6);:_ZN11stlpmtx_std13__type_traitsIKcEC2Ev;2A.;__comp_ctor::(22,176):_ZN11stlpmtx_std13__type_traitsIKcEC1Ev;2A.;;",128,0,286,0
	.stabs	"__type_traits<volatile char>:Tt(22,177)=s1!1,020,(22,121);operator=::(22,178)=#(22,177),(22,179)=&(22,177),(22,180)=*(22,177),(22,181)=&(22,182)=k(22,177),(0,6);:_ZN11stlpmtx_std13__type_traitsIVcEaSERKS2_;2A.;__base_ctor::(22,183)=#(22,177),(0,6),(22,180),(22,181),(0,6);:_ZN11stlpmtx_std13__type_traitsIVcEC2ERKS2_;2A.;__comp_ctor::(22,183):_ZN11stlpmtx_std13__type_traitsIVcEC1ERKS2_;2A.;__base_ctor::(22,184)=#(22,177),(0,6),(22,180),(0,6);:_ZN11stlpmtx_std13__type_traitsIVcEC2Ev;2A.;__comp_ctor::(22,184):_ZN11stlpmtx_std13__type_traitsIVcEC1Ev;2A.;;",128,0,286,0
	.stabs	"__type_traits<const volatile char>:Tt(22,185)=s1!1,020,(22,121);operator=::(22,186)=#(22,185),(22,187)=&(22,185),(22,188)=*(22,185),(22,189)=&(22,190)=k(22,185),(0,6);:_ZN11stlpmtx_std13__type_traitsIVKcEaSERKS2_;2A.;__base_ctor::(22,191)=#(22,185),(0,6),(22,188),(22,189),(0,6);:_ZN11stlpmtx_std13__type_traitsIVKcEC2ERKS2_;2A.;__comp_ctor::(22,191):_ZN11stlpmtx_std13__type_traitsIVKcEC1ERKS2_;2A.;__base_ctor::(22,192)=#(22,185),(0,6),(22,188),(0,6);:_ZN11stlpmtx_std13__type_traitsIVKcEC2Ev;2A.;__comp_ctor::(22,192):_ZN11stlpmtx_std13__type_traitsIVKcEC1Ev;2A.;;",128,0,286,0
	.stabs	"__type_traits<signed char>:Tt(22,193)=s1!1,020,(22,121);operator=::(22,194)=#(22,193),(22,195)=&(22,193),(22,196)=*(22,193),(22,197)=&(22,198)=k(22,193),(0,6);:_ZN11stlpmtx_std13__type_traitsIaEaSERKS1_;2A.;__base_ctor::(22,199)=#(22,193),(0,6),(22,196),(22,197),(0,6);:_ZN11stlpmtx_std13__type_traitsIaEC2ERKS1_;2A.;__comp_ctor::(22,199):_ZN11stlpmtx_std13__type_traitsIaEC1ERKS1_;2A.;__base_ctor::(22,200)=#(22,193),(0,6),(22,196),(0,6);:_ZN11stlpmtx_std13__type_traitsIaEC2Ev;2A.;__comp_ctor::(22,200):_ZN11stlpmtx_std13__type_traitsIaEC1Ev;2A.;;",128,0,288,0
	.stabs	"__type_traits<const signed char>:Tt(22,201)=s1!1,020,(22,121);operator=::(22,202)=#(22,201),(22,203)=&(22,201),(22,204)=*(22,201),(22,205)=&(22,206)=k(22,201),(0,6);:_ZN11stlpmtx_std13__type_traitsIKaEaSERKS2_;2A.;__base_ctor::(22,207)=#(22,201),(0,6),(22,204),(22,205),(0,6);:_ZN11stlpmtx_std13__type_traitsIKaEC2ERKS2_;2A.;__comp_ctor::(22,207):_ZN11stlpmtx_std13__type_traitsIKaEC1ERKS2_;2A.;__base_ctor::(22,208)=#(22,201),(0,6),(22,204),(0,6);:_ZN11stlpmtx_std13__type_traitsIKaEC2Ev;2A.;__comp_ctor::(22,208):_ZN11stlpmtx_std13__type_traitsIKaEC1Ev;2A.;;",128,0,288,0
	.stabs	"__type_traits<volatile signed char>:Tt(22,209)=s1!1,020,(22,121);operator=::(22,210)=#(22,209),(22,211)=&(22,209),(22,212)=*(22,209),(22,213)=&(22,214)=k(22,209),(0,6);:_ZN11stlpmtx_std13__type_traitsIVaEaSERKS2_;2A.;__base_ctor::(22,215)=#(22,209),(0,6),(22,212),(22,213),(0,6);:_ZN11stlpmtx_std13__type_traitsIVaEC2ERKS2_;2A.;__comp_ctor::(22,215):_ZN11stlpmtx_std13__type_traitsIVaEC1ERKS2_;2A.;__base_ctor::(22,216)=#(22,209),(0,6),(22,212),(0,6);:_ZN11stlpmtx_std13__type_traitsIVaEC2Ev;2A.;__comp_ctor::(22,216):_ZN11stlpmtx_std13__type_traitsIVaEC1Ev;2A.;;",128,0,288,0
	.stabs	"__type_traits<const volatile signed char>:Tt(22,217)=s1!1,020,(22,121);operator=::(22,218)=#(22,217),(22,219)=&(22,217),(22,220)=*(22,217),(22,221)=&(22,222)=k(22,217),(0,6);:_ZN11stlpmtx_std13__type_traitsIVKaEaSERKS2_;2A.;__base_ctor::(22,223)=#(22,217),(0,6),(22,220),(22,221),(0,6);:_ZN11stlpmtx_std13__type_traitsIVKaEC2ERKS2_;2A.;__comp_ctor::(22,223):_ZN11stlpmtx_std13__type_traitsIVKaEC1ERKS2_;2A.;__base_ctor::(22,224)=#(22,217),(0,6),(22,220),(0,6);:_ZN11stlpmtx_std13__type_traitsIVKaEC2Ev;2A.;__comp_ctor::(22,224):_ZN11stlpmtx_std13__type_traitsIVKaEC1Ev;2A.;;",128,0,288,0
	.stabs	"__type_traits<unsigned char>:Tt(22,225)=s1!1,020,(22,121);operator=::(22,226)=#(22,225),(22,227)=&(22,225),(22,228)=*(22,225),(22,229)=&(22,230)=k(22,225),(0,6);:_ZN11stlpmtx_std13__type_traitsIhEaSERKS1_;2A.;__base_ctor::(22,231)=#(22,225),(0,6),(22,228),(22,229),(0,6);:_ZN11stlpmtx_std13__type_traitsIhEC2ERKS1_;2A.;__comp_ctor::(22,231):_ZN11stlpmtx_std13__type_traitsIhEC1ERKS1_;2A.;__base_ctor::(22,232)=#(22,225),(0,6),(22,228),(0,6);:_ZN11stlpmtx_std13__type_traitsIhEC2Ev;2A.;__comp_ctor::(22,232):_ZN11stlpmtx_std13__type_traitsIhEC1Ev;2A.;;",128,0,290,0
	.stabs	"__type_traits<const unsigned char>:Tt(22,233)=s1!1,020,(22,121);operator=::(22,234)=#(22,233),(22,235)=&(22,233),(22,236)=*(22,233),(22,237)=&(22,238)=k(22,233),(0,6);:_ZN11stlpmtx_std13__type_traitsIKhEaSERKS2_;2A.;__base_ctor::(22,239)=#(22,233),(0,6),(22,236),(22,237),(0,6);:_ZN11stlpmtx_std13__type_traitsIKhEC2ERKS2_;2A.;__comp_ctor::(22,239):_ZN11stlpmtx_std13__type_traitsIKhEC1ERKS2_;2A.;__base_ctor::(22,240)=#(22,233),(0,6),(22,236),(0,6);:_ZN11stlpmtx_std13__type_traitsIKhEC2Ev;2A.;__comp_ctor::(22,240):_ZN11stlpmtx_std13__type_traitsIKhEC1Ev;2A.;;",128,0,290,0
	.stabs	"__type_traits<volatile unsigned char>:Tt(22,241)=s1!1,020,(22,121);operator=::(22,242)=#(22,241),(22,243)=&(22,241),(22,244)=*(22,241),(22,245)=&(22,246)=k(22,241),(0,6);:_ZN11stlpmtx_std13__type_traitsIVhEaSERKS2_;2A.;__base_ctor::(22,247)=#(22,241),(0,6),(22,244),(22,245),(0,6);:_ZN11stlpmtx_std13__type_traitsIVhEC2ERKS2_;2A.;__comp_ctor::(22,247):_ZN11stlpmtx_std13__type_traitsIVhEC1ERKS2_;2A.;__base_ctor::(22,248)=#(22,241),(0,6),(22,244),(0,6);:_ZN11stlpmtx_std13__type_traitsIVhEC2Ev;2A.;__comp_ctor::(22,248):_ZN11stlpmtx_std13__type_traitsIVhEC1Ev;2A.;;",128,0,290,0
	.stabs	"__type_traits<const volatile unsigned char>:Tt(22,249)=s1!1,020,(22,121);operator=::(22,250)=#(22,249),(22,251)=&(22,249),(22,252)=*(22,249),(22,253)=&(22,254)=k(22,249),(0,6);:_ZN11stlpmtx_std13__type_traitsIVKhEaSERKS2_;2A.;__base_ctor::(22,255)=#(22,249),(0,6),(22,252),(22,253),(0,6);:_ZN11stlpmtx_std13__type_traitsIVKhEC2ERKS2_;2A.;__comp_ctor::(22,255):_ZN11stlpmtx_std13__type_traitsIVKhEC1ERKS2_;2A.;__base_ctor::(22,256)=#(22,249),(0,6),(22,252),(0,6);:_ZN11stlpmtx_std13__type_traitsIVKhEC2Ev;2A.;__comp_ctor::(22,256):_ZN11stlpmtx_std13__type_traitsIVKhEC1Ev;2A.;;",128,0,290,0
	.stabs	"__type_traits<short int>:Tt(22,257)=s1!1,020,(22,121);operator=::(22,258)=#(22,257),(22,259)=&(22,257),(22,260)=*(22,257),(22,261)=&(22,262)=k(22,257),(0,6);:_ZN11stlpmtx_std13__type_traitsIsEaSERKS1_;2A.;__base_ctor::(22,263)=#(22,257),(0,6),(22,260),(22,261),(0,6);:_ZN11stlpmtx_std13__type_traitsIsEC2ERKS1_;2A.;__comp_ctor::(22,263):_ZN11stlpmtx_std13__type_traitsIsEC1ERKS1_;2A.;__base_ctor::(22,264)=#(22,257),(0,6),(22,260),(0,6);:_ZN11stlpmtx_std13__type_traitsIsEC2Ev;2A.;__comp_ctor::(22,264):_ZN11stlpmtx_std13__type_traitsIsEC1Ev;2A.;;",128,0,295,0
	.stabs	"__type_traits<const short int>:Tt(22,265)=s1!1,020,(22,121);operator=::(22,266)=#(22,265),(22,267)=&(22,265),(22,268)=*(22,265),(22,269)=&(22,270)=k(22,265),(0,6);:_ZN11stlpmtx_std13__type_traitsIKsEaSERKS2_;2A.;__base_ctor::(22,271)=#(22,265),(0,6),(22,268),(22,269),(0,6);:_ZN11stlpmtx_std13__type_traitsIKsEC2ERKS2_;2A.;__comp_ctor::(22,271):_ZN11stlpmtx_std13__type_traitsIKsEC1ERKS2_;2A.;__base_ctor::(22,272)=#(22,265),(0,6),(22,268),(0,6);:_ZN11stlpmtx_std13__type_traitsIKsEC2Ev;2A.;__comp_ctor::(22,272):_ZN11stlpmtx_std13__type_traitsIKsEC1Ev;2A.;;",128,0,295,0
	.stabs	"__type_traits<volatile short int>:Tt(22,273)=s1!1,020,(22,121);operator=::(22,274)=#(22,273),(22,275)=&(22,273),(22,276)=*(22,273),(22,277)=&(22,278)=k(22,273),(0,6);:_ZN11stlpmtx_std13__type_traitsIVsEaSERKS2_;2A.;__base_ctor::(22,279)=#(22,273),(0,6),(22,276),(22,277),(0,6);:_ZN11stlpmtx_std13__type_traitsIVsEC2ERKS2_;2A.;__comp_ctor::(22,279):_ZN11stlpmtx_std13__type_traitsIVsEC1ERKS2_;2A.;__base_ctor::(22,280)=#(22,273),(0,6),(22,276),(0,6);:_ZN11stlpmtx_std13__type_traitsIVsEC2Ev;2A.;__comp_ctor::(22,280):_ZN11stlpmtx_std13__type_traitsIVsEC1Ev;2A.;;",128,0,295,0
	.stabs	"__type_traits<const volatile short int>:Tt(22,281)=s1!1,020,(22,121);operator=::(22,282)=#(22,281),(22,283)=&(22,281),(22,284)=*(22,281),(22,285)=&(22,286)=k(22,281),(0,6);:_ZN11stlpmtx_std13__type_traitsIVKsEaSERKS2_;2A.;__base_ctor::(22,287)=#(22,281),(0,6),(22,284),(22,285),(0,6);:_ZN11stlpmtx_std13__type_traitsIVKsEC2ERKS2_;2A.;__comp_ctor::(22,287):_ZN11stlpmtx_std13__type_traitsIVKsEC1ERKS2_;2A.;__base_ctor::(22,288)=#(22,281),(0,6),(22,284),(0,6);:_ZN11stlpmtx_std13__type_traitsIVKsEC2Ev;2A.;__comp_ctor::(22,288):_ZN11stlpmtx_std13__type_traitsIVKsEC1Ev;2A.;;",128,0,295,0
	.stabs	"__type_traits<short unsigned int>:Tt(22,289)=s1!1,020,(22,121);operator=::(22,290)=#(22,289),(22,291)=&(22,289),(22,292)=*(22,289),(22,293)=&(22,294)=k(22,289),(0,6);:_ZN11stlpmtx_std13__type_traitsItEaSERKS1_;2A.;__base_ctor::(22,295)=#(22,289),(0,6),(22,292),(22,293),(0,6);:_ZN11stlpmtx_std13__type_traitsItEC2ERKS1_;2A.;__comp_ctor::(22,295):_ZN11stlpmtx_std13__type_traitsItEC1ERKS1_;2A.;__base_ctor::(22,296)=#(22,289),(0,6),(22,292),(0,6);:_ZN11stlpmtx_std13__type_traitsItEC2Ev;2A.;__comp_ctor::(22,296):_ZN11stlpmtx_std13__type_traitsItEC1Ev;2A.;;",128,0,296,0
	.stabs	"__type_traits<const short unsigned int>:Tt(22,297)=s1!1,020,(22,121);operator=::(22,298)=#(22,297),(22,299)=&(22,297),(22,300)=*(22,297),(22,301)=&(22,302)=k(22,297),(0,6);:_ZN11stlpmtx_std13__type_traitsIKtEaSERKS2_;2A.;__base_ctor::(22,303)=#(22,297),(0,6),(22,300),(22,301),(0,6);:_ZN11stlpmtx_std13__type_traitsIKtEC2ERKS2_;2A.;__comp_ctor::(22,303):_ZN11stlpmtx_std13__type_traitsIKtEC1ERKS2_;2A.;__base_ctor::(22,304)=#(22,297),(0,6),(22,300),(0,6);:_ZN11stlpmtx_std13__type_traitsIKtEC2Ev;2A.;__comp_ctor::(22,304):_ZN11stlpmtx_std13__type_traitsIKtEC1Ev;2A.;;",128,0,296,0
	.stabs	"__type_traits<volatile short unsigned int>:Tt(22,305)=s1!1,020,(22,121);operator=::(22,306)=#(22,305),(22,307)=&(22,305),(22,308)=*(22,305),(22,309)=&(22,310)=k(22,305),(0,6);:_ZN11stlpmtx_std13__type_traitsIVtEaSERKS2_;2A.;__base_ctor::(22,311)=#(22,305),(0,6),(22,308),(22,309),(0,6);:_ZN11stlpmtx_std13__type_traitsIVtEC2ERKS2_;2A.;__comp_ctor::(22,311):_ZN11stlpmtx_std13__type_traitsIVtEC1ERKS2_;2A.;__base_ctor::(22,312)=#(22,305),(0,6),(22,308),(0,6);:_ZN11stlpmtx_std13__type_traitsIVtEC2Ev;2A.;__comp_ctor::(22,312):_ZN11stlpmtx_std13__type_traitsIVtEC1Ev;2A.;;",128,0,296,0
	.stabs	"__type_traits<const volatile short unsigned int>:Tt(22,313)=s1!1,020,(22,121);operator=::(22,314)=#(22,313),(22,315)=&(22,313),(22,316)=*(22,313),(22,317)=&(22,318)=k(22,313),(0,6);:_ZN11stlpmtx_std13__type_traitsIVKtEaSERKS2_;2A.;__base_ctor::(22,319)=#(22,313),(0,6),(22,316),(22,317),(0,6);:_ZN11stlpmtx_std13__type_traitsIVKtEC2ERKS2_;2A.;__comp_ctor::(22,319):_ZN11stlpmtx_std13__type_traitsIVKtEC1ERKS2_;2A.;__base_ctor::(22,320)=#(22,313),(0,6),(22,316),(0,6);:_ZN11stlpmtx_std13__type_traitsIVKtEC2Ev;2A.;__comp_ctor::(22,320):_ZN11stlpmtx_std13__type_traitsIVKtEC1Ev;2A.;;",128,0,296,0
	.stabs	"__type_traits<int>:Tt(22,321)=s1!1,020,(22,121);operator=::(22,322)=#(22,321),(22,323)=&(22,321),(22,324)=*(22,321),(22,325)=&(22,326)=k(22,321),(0,6);:_ZN11stlpmtx_std13__type_traitsIiEaSERKS1_;2A.;__base_ctor::(22,327)=#(22,321),(0,6),(22,324),(22,325),(0,6);:_ZN11stlpmtx_std13__type_traitsIiEC2ERKS1_;2A.;__comp_ctor::(22,327):_ZN11stlpmtx_std13__type_traitsIiEC1ERKS1_;2A.;__base_ctor::(22,328)=#(22,321),(0,6),(22,324),(0,6);:_ZN11stlpmtx_std13__type_traitsIiEC2Ev;2A.;__comp_ctor::(22,328):_ZN11stlpmtx_std13__type_traitsIiEC1Ev;2A.;;",128,0,297,0
	.stabs	"__type_traits<const int>:Tt(22,329)=s1!1,020,(22,121);operator=::(22,330)=#(22,329),(22,331)=&(22,329),(22,332)=*(22,329),(22,333)=&(22,334)=k(22,329),(0,6);:_ZN11stlpmtx_std13__type_traitsIKiEaSERKS2_;2A.;__base_ctor::(22,335)=#(22,329),(0,6),(22,332),(22,333),(0,6);:_ZN11stlpmtx_std13__type_traitsIKiEC2ERKS2_;2A.;__comp_ctor::(22,335):_ZN11stlpmtx_std13__type_traitsIKiEC1ERKS2_;2A.;__base_ctor::(22,336)=#(22,329),(0,6),(22,332),(0,6);:_ZN11stlpmtx_std13__type_traitsIKiEC2Ev;2A.;__comp_ctor::(22,336):_ZN11stlpmtx_std13__type_traitsIKiEC1Ev;2A.;;",128,0,297,0
	.stabs	"__type_traits<volatile int>:Tt(22,337)=s1!1,020,(22,121);operator=::(22,338)=#(22,337),(22,339)=&(22,337),(22,340)=*(22,337),(22,341)=&(22,342)=k(22,337),(0,6);:_ZN11stlpmtx_std13__type_traitsIViEaSERKS2_;2A.;__base_ctor::(22,343)=#(22,337),(0,6),(22,340),(22,341),(0,6);:_ZN11stlpmtx_std13__type_traitsIViEC2ERKS2_;2A.;__comp_ctor::(22,343):_ZN11stlpmtx_std13__type_traitsIViEC1ERKS2_;2A.;__base_ctor::(22,344)=#(22,337),(0,6),(22,340),(0,6);:_ZN11stlpmtx_std13__type_traitsIViEC2Ev;2A.;__comp_ctor::(22,344):_ZN11stlpmtx_std13__type_traitsIViEC1Ev;2A.;;",128,0,297,0
	.stabs	"__type_traits<const volatile int>:Tt(22,345)=s1!1,020,(22,121);operator=::(22,346)=#(22,345),(22,347)=&(22,345),(22,348)=*(22,345),(22,349)=&(22,350)=k(22,345),(0,6);:_ZN11stlpmtx_std13__type_traitsIVKiEaSERKS2_;2A.;__base_ctor::(22,351)=#(22,345),(0,6),(22,348),(22,349),(0,6);:_ZN11stlpmtx_std13__type_traitsIVKiEC2ERKS2_;2A.;__comp_ctor::(22,351):_ZN11stlpmtx_std13__type_traitsIVKiEC1ERKS2_;2A.;__base_ctor::(22,352)=#(22,345),(0,6),(22,348),(0,6);:_ZN11stlpmtx_std13__type_traitsIVKiEC2Ev;2A.;__comp_ctor::(22,352):_ZN11stlpmtx_std13__type_traitsIVKiEC1Ev;2A.;;",128,0,297,0
	.stabs	"__type_traits<unsigned int>:Tt(22,353)=s1!1,020,(22,121);operator=::(22,354)=#(22,353),(22,355)=&(22,353),(22,356)=*(22,353),(22,357)=&(22,358)=k(22,353),(0,6);:_ZN11stlpmtx_std13__type_traitsIjEaSERKS1_;2A.;__base_ctor::(22,359)=#(22,353),(0,6),(22,356),(22,357),(0,6);:_ZN11stlpmtx_std13__type_traitsIjEC2ERKS1_;2A.;__comp_ctor::(22,359):_ZN11stlpmtx_std13__type_traitsIjEC1ERKS1_;2A.;__base_ctor::(22,360)=#(22,353),(0,6),(22,356),(0,6);:_ZN11stlpmtx_std13__type_traitsIjEC2Ev;2A.;__comp_ctor::(22,360):_ZN11stlpmtx_std13__type_traitsIjEC1Ev;2A.;;",128,0,298,0
	.stabs	"__type_traits<const unsigned int>:Tt(22,361)=s1!1,020,(22,121);operator=::(22,362)=#(22,361),(22,363)=&(22,361),(22,364)=*(22,361),(22,365)=&(22,366)=k(22,361),(0,6);:_ZN11stlpmtx_std13__type_traitsIKjEaSERKS2_;2A.;__base_ctor::(22,367)=#(22,361),(0,6),(22,364),(22,365),(0,6);:_ZN11stlpmtx_std13__type_traitsIKjEC2ERKS2_;2A.;__comp_ctor::(22,367):_ZN11stlpmtx_std13__type_traitsIKjEC1ERKS2_;2A.;__base_ctor::(22,368)=#(22,361),(0,6),(22,364),(0,6);:_ZN11stlpmtx_std13__type_traitsIKjEC2Ev;2A.;__comp_ctor::(22,368):_ZN11stlpmtx_std13__type_traitsIKjEC1Ev;2A.;;",128,0,298,0
	.stabs	"__type_traits<volatile unsigned int>:Tt(22,369)=s1!1,020,(22,121);operator=::(22,370)=#(22,369),(22,371)=&(22,369),(22,372)=*(22,369),(22,373)=&(22,374)=k(22,369),(0,6);:_ZN11stlpmtx_std13__type_traitsIVjEaSERKS2_;2A.;__base_ctor::(22,375)=#(22,369),(0,6),(22,372),(22,373),(0,6);:_ZN11stlpmtx_std13__type_traitsIVjEC2ERKS2_;2A.;__comp_ctor::(22,375):_ZN11stlpmtx_std13__type_traitsIVjEC1ERKS2_;2A.;__base_ctor::(22,376)=#(22,369),(0,6),(22,372),(0,6);:_ZN11stlpmtx_std13__type_traitsIVjEC2Ev;2A.;__comp_ctor::(22,376):_ZN11stlpmtx_std13__type_traitsIVjEC1Ev;2A.;;",128,0,298,0
	.stabs	"__type_traits<const volatile unsigned int>:Tt(22,377)=s1!1,020,(22,121);operator=::(22,378)=#(22,377),(22,379)=&(22,377),(22,380)=*(22,377),(22,381)=&(22,382)=k(22,377),(0,6);:_ZN11stlpmtx_std13__type_traitsIVKjEaSERKS2_;2A.;__base_ctor::(22,383)=#(22,377),(0,6),(22,380),(22,381),(0,6);:_ZN11stlpmtx_std13__type_traitsIVKjEC2ERKS2_;2A.;__comp_ctor::(22,383):_ZN11stlpmtx_std13__type_traitsIVKjEC1ERKS2_;2A.;__base_ctor::(22,384)=#(22,377),(0,6),(22,380),(0,6);:_ZN11stlpmtx_std13__type_traitsIVKjEC2Ev;2A.;__comp_ctor::(22,384):_ZN11stlpmtx_std13__type_traitsIVKjEC1Ev;2A.;;",128,0,298,0
	.stabs	"__type_traits<long int>:Tt(22,385)=s1!1,020,(22,121);operator=::(22,386)=#(22,385),(22,387)=&(22,385),(22,388)=*(22,385),(22,389)=&(22,390)=k(22,385),(0,6);:_ZN11stlpmtx_std13__type_traitsIlEaSERKS1_;2A.;__base_ctor::(22,391)=#(22,385),(0,6),(22,388),(22,389),(0,6);:_ZN11stlpmtx_std13__type_traitsIlEC2ERKS1_;2A.;__comp_ctor::(22,391):_ZN11stlpmtx_std13__type_traitsIlEC1ERKS1_;2A.;__base_ctor::(22,392)=#(22,385),(0,6),(22,388),(0,6);:_ZN11stlpmtx_std13__type_traitsIlEC2Ev;2A.;__comp_ctor::(22,392):_ZN11stlpmtx_std13__type_traitsIlEC1Ev;2A.;;",128,0,299,0
	.stabs	"__type_traits<const long int>:Tt(22,393)=s1!1,020,(22,121);operator=::(22,394)=#(22,393),(22,395)=&(22,393),(22,396)=*(22,393),(22,397)=&(22,398)=k(22,393),(0,6);:_ZN11stlpmtx_std13__type_traitsIKlEaSERKS2_;2A.;__base_ctor::(22,399)=#(22,393),(0,6),(22,396),(22,397),(0,6);:_ZN11stlpmtx_std13__type_traitsIKlEC2ERKS2_;2A.;__comp_ctor::(22,399):_ZN11stlpmtx_std13__type_traitsIKlEC1ERKS2_;2A.;__base_ctor::(22,400)=#(22,393),(0,6),(22,396),(0,6);:_ZN11stlpmtx_std13__type_traitsIKlEC2Ev;2A.;__comp_ctor::(22,400):_ZN11stlpmtx_std13__type_traitsIKlEC1Ev;2A.;;",128,0,299,0
	.stabs	"__type_traits<volatile long int>:Tt(22,401)=s1!1,020,(22,121);operator=::(22,402)=#(22,401),(22,403)=&(22,401),(22,404)=*(22,401),(22,405)=&(22,406)=k(22,401),(0,6);:_ZN11stlpmtx_std13__type_traitsIVlEaSERKS2_;2A.;__base_ctor::(22,407)=#(22,401),(0,6),(22,404),(22,405),(0,6);:_ZN11stlpmtx_std13__type_traitsIVlEC2ERKS2_;2A.;__comp_ctor::(22,407):_ZN11stlpmtx_std13__type_traitsIVlEC1ERKS2_;2A.;__base_ctor::(22,408)=#(22,401),(0,6),(22,404),(0,6);:_ZN11stlpmtx_std13__type_traitsIVlEC2Ev;2A.;__comp_ctor::(22,408):_ZN11stlpmtx_std13__type_traitsIVlEC1Ev;2A.;;",128,0,299,0
	.stabs	"__type_traits<const volatile long int>:Tt(22,409)=s1!1,020,(22,121);operator=::(22,410)=#(22,409),(22,411)=&(22,409),(22,412)=*(22,409),(22,413)=&(22,414)=k(22,409),(0,6);:_ZN11stlpmtx_std13__type_traitsIVKlEaSERKS2_;2A.;__base_ctor::(22,415)=#(22,409),(0,6),(22,412),(22,413),(0,6);:_ZN11stlpmtx_std13__type_traitsIVKlEC2ERKS2_;2A.;__comp_ctor::(22,415):_ZN11stlpmtx_std13__type_traitsIVKlEC1ERKS2_;2A.;__base_ctor::(22,416)=#(22,409),(0,6),(22,412),(0,6);:_ZN11stlpmtx_std13__type_traitsIVKlEC2Ev;2A.;__comp_ctor::(22,416):_ZN11stlpmtx_std13__type_traitsIVKlEC1Ev;2A.;;",128,0,299,0
	.stabs	"__type_traits<long unsigned int>:Tt(22,417)=s1!1,020,(22,121);operator=::(22,418)=#(22,417),(22,419)=&(22,417),(22,420)=*(22,417),(22,421)=&(22,422)=k(22,417),(0,6);:_ZN11stlpmtx_std13__type_traitsImEaSERKS1_;2A.;__base_ctor::(22,423)=#(22,417),(0,6),(22,420),(22,421),(0,6);:_ZN11stlpmtx_std13__type_traitsImEC2ERKS1_;2A.;__comp_ctor::(22,423):_ZN11stlpmtx_std13__type_traitsImEC1ERKS1_;2A.;__base_ctor::(22,424)=#(22,417),(0,6),(22,420),(0,6);:_ZN11stlpmtx_std13__type_traitsImEC2Ev;2A.;__comp_ctor::(22,424):_ZN11stlpmtx_std13__type_traitsImEC1Ev;2A.;;",128,0,300,0
	.stabs	"__type_traits<const long unsigned int>:Tt(22,425)=s1!1,020,(22,121);operator=::(22,426)=#(22,425),(22,427)=&(22,425),(22,428)=*(22,425),(22,429)=&(22,430)=k(22,425),(0,6);:_ZN11stlpmtx_std13__type_traitsIKmEaSERKS2_;2A.;__base_ctor::(22,431)=#(22,425),(0,6),(22,428),(22,429),(0,6);:_ZN11stlpmtx_std13__type_traitsIKmEC2ERKS2_;2A.;__comp_ctor::(22,431):_ZN11stlpmtx_std13__type_traitsIKmEC1ERKS2_;2A.;__base_ctor::(22,432)=#(22,425),(0,6),(22,428),(0,6);:_ZN11stlpmtx_std13__type_traitsIKmEC2Ev;2A.;__comp_ctor::(22,432):_ZN11stlpmtx_std13__type_traitsIKmEC1Ev;2A.;;",128,0,300,0
	.stabs	"__type_traits<volatile long unsigned int>:Tt(22,433)=s1!1,020,(22,121);operator=::(22,434)=#(22,433),(22,435)=&(22,433),(22,436)=*(22,433),(22,437)=&(22,438)=k(22,433),(0,6);:_ZN11stlpmtx_std13__type_traitsIVmEaSERKS2_;2A.;__base_ctor::(22,439)=#(22,433),(0,6),(22,436),(22,437),(0,6);:_ZN11stlpmtx_std13__type_traitsIVmEC2ERKS2_;2A.;__comp_ctor::(22,439):_ZN11stlpmtx_std13__type_traitsIVmEC1ERKS2_;2A.;__base_ctor::(22,440)=#(22,433),(0,6),(22,436),(0,6);:_ZN11stlpmtx_std13__type_traitsIVmEC2Ev;2A.;__comp_ctor::(22,440):_ZN11stlpmtx_std13__type_traitsIVmEC1Ev;2A.;;",128,0,300,0
	.stabs	"__type_traits<const volatile long unsigned int>:Tt(22,441)=s1!1,020,(22,121);operator=::(22,442)=#(22,441),(22,443)=&(22,441),(22,444)=*(22,441),(22,445)=&(22,446)=k(22,441),(0,6);:_ZN11stlpmtx_std13__type_traitsIVKmEaSERKS2_;2A.;__base_ctor::(22,447)=#(22,441),(0,6),(22,444),(22,445),(0,6);:_ZN11stlpmtx_std13__type_traitsIVKmEC2ERKS2_;2A.;__comp_ctor::(22,447):_ZN11stlpmtx_std13__type_traitsIVKmEC1ERKS2_;2A.;__base_ctor::(22,448)=#(22,441),(0,6),(22,444),(0,6);:_ZN11stlpmtx_std13__type_traitsIVKmEC2Ev;2A.;__comp_ctor::(22,448):_ZN11stlpmtx_std13__type_traitsIVKmEC1Ev;2A.;;",128,0,300,0
	.stabs	"__type_traits<long long int>:Tt(22,449)=s1!1,020,(22,121);operator=::(22,450)=#(22,449),(22,451)=&(22,449),(22,452)=*(22,449),(22,453)=&(22,454)=k(22,449),(0,6);:_ZN11stlpmtx_std13__type_traitsIxEaSERKS1_;2A.;__base_ctor::(22,455)=#(22,449),(0,6),(22,452),(22,453),(0,6);:_ZN11stlpmtx_std13__type_traitsIxEC2ERKS1_;2A.;__comp_ctor::(22,455):_ZN11stlpmtx_std13__type_traitsIxEC1ERKS1_;2A.;__base_ctor::(22,456)=#(22,449),(0,6),(22,452),(0,6);:_ZN11stlpmtx_std13__type_traitsIxEC2Ev;2A.;__comp_ctor::(22,456):_ZN11stlpmtx_std13__type_traitsIxEC1Ev;2A.;;",128,0,303,0
	.stabs	"__type_traits<const long long int>:Tt(22,457)=s1!1,020,(22,121);operator=::(22,458)=#(22,457),(22,459)=&(22,457),(22,460)=*(22,457),(22,461)=&(22,462)=k(22,457),(0,6);:_ZN11stlpmtx_std13__type_traitsIKxEaSERKS2_;2A.;__base_ctor::(22,463)=#(22,457),(0,6),(22,460),(22,461),(0,6);:_ZN11stlpmtx_std13__type_traitsIKxEC2ERKS2_;2A.;__comp_ctor::(22,463):_ZN11stlpmtx_std13__type_traitsIKxEC1ERKS2_;2A.;__base_ctor::(22,464)=#(22,457),(0,6),(22,460),(0,6);:_ZN11stlpmtx_std13__type_traitsIKxEC2Ev;2A.;__comp_ctor::(22,464):_ZN11stlpmtx_std13__type_traitsIKxEC1Ev;2A.;;",128,0,303,0
	.stabs	"__type_traits<volatile long long int>:Tt(22,465)=s1!1,020,(22,121);operator=::(22,466)=#(22,465),(22,467)=&(22,465),(22,468)=*(22,465),(22,469)=&(22,470)=k(22,465),(0,6);:_ZN11stlpmtx_std13__type_traitsIVxEaSERKS2_;2A.;__base_ctor::(22,471)=#(22,465),(0,6),(22,468),(22,469),(0,6);:_ZN11stlpmtx_std13__type_traitsIVxEC2ERKS2_;2A.;__comp_ctor::(22,471):_ZN11stlpmtx_std13__type_traitsIVxEC1ERKS2_;2A.;__base_ctor::(22,472)=#(22,465),(0,6),(22,468),(0,6);:_ZN11stlpmtx_std13__type_traitsIVxEC2Ev;2A.;__comp_ctor::(22,472):_ZN11stlpmtx_std13__type_traitsIVxEC1Ev;2A.;;",128,0,303,0
	.stabs	"__type_traits<const volatile long long int>:Tt(22,473)=s1!1,020,(22,121);operator=::(22,474)=#(22,473),(22,475)=&(22,473),(22,476)=*(22,473),(22,477)=&(22,478)=k(22,473),(0,6);:_ZN11stlpmtx_std13__type_traitsIVKxEaSERKS2_;2A.;__base_ctor::(22,479)=#(22,473),(0,6),(22,476),(22,477),(0,6);:_ZN11stlpmtx_std13__type_traitsIVKxEC2ERKS2_;2A.;__comp_ctor::(22,479):_ZN11stlpmtx_std13__type_traitsIVKxEC1ERKS2_;2A.;__base_ctor::(22,480)=#(22,473),(0,6),(22,476),(0,6);:_ZN11stlpmtx_std13__type_traitsIVKxEC2Ev;2A.;__comp_ctor::(22,480):_ZN11stlpmtx_std13__type_traitsIVKxEC1Ev;2A.;;",128,0,303,0
	.stabs	"__type_traits<long long unsigned int>:Tt(22,481)=s1!1,020,(22,121);operator=::(22,482)=#(22,481),(22,483)=&(22,481),(22,484)=*(22,481),(22,485)=&(22,486)=k(22,481),(0,6);:_ZN11stlpmtx_std13__type_traitsIyEaSERKS1_;2A.;__base_ctor::(22,487)=#(22,481),(0,6),(22,484),(22,485),(0,6);:_ZN11stlpmtx_std13__type_traitsIyEC2ERKS1_;2A.;__comp_ctor::(22,487):_ZN11stlpmtx_std13__type_traitsIyEC1ERKS1_;2A.;__base_ctor::(22,488)=#(22,481),(0,6),(22,484),(0,6);:_ZN11stlpmtx_std13__type_traitsIyEC2Ev;2A.;__comp_ctor::(22,488):_ZN11stlpmtx_std13__type_traitsIyEC1Ev;2A.;;",128,0,304,0
	.stabs	"__type_traits<const long long unsigned int>:Tt(22,489)=s1!1,020,(22,121);operator=::(22,490)=#(22,489),(22,491)=&(22,489),(22,492)=*(22,489),(22,493)=&(22,494)=k(22,489),(0,6);:_ZN11stlpmtx_std13__type_traitsIKyEaSERKS2_;2A.;__base_ctor::(22,495)=#(22,489),(0,6),(22,492),(22,493),(0,6);:_ZN11stlpmtx_std13__type_traitsIKyEC2ERKS2_;2A.;__comp_ctor::(22,495):_ZN11stlpmtx_std13__type_traitsIKyEC1ERKS2_;2A.;__base_ctor::(22,496)=#(22,489),(0,6),(22,492),(0,6);:_ZN11stlpmtx_std13__type_traitsIKyEC2Ev;2A.;__comp_ctor::(22,496):_ZN11stlpmtx_std13__type_traitsIKyEC1Ev;2A.;;",128,0,304,0
	.stabs	"__type_traits<volatile long long unsigned int>:Tt(22,497)=s1!1,020,(22,121);operator=::(22,498)=#(22,497),(22,499)=&(22,497),(22,500)=*(22,497),(22,501)=&(22,502)=k(22,497),(0,6);:_ZN11stlpmtx_std13__type_traitsIVyEaSERKS2_;2A.;__base_ctor::(22,503)=#(22,497),(0,6),(22,500),(22,501),(0,6);:_ZN11stlpmtx_std13__type_traitsIVyEC2ERKS2_;2A.;__comp_ctor::(22,503):_ZN11stlpmtx_std13__type_traitsIVyEC1ERKS2_;2A.;__base_ctor::(22,504)=#(22,497),(0,6),(22,500),(0,6);:_ZN11stlpmtx_std13__type_traitsIVyEC2Ev;2A.;__comp_ctor::(22,504):_ZN11stlpmtx_std13__type_traitsIVyEC1Ev;2A.;;",128,0,304,0
	.stabs	"__type_traits<const volatile long long unsigned int>:Tt(22,505)=s1!1,020,(22,121);operator=::(22,506)=#(22,505),(22,507)=&(22,505),(22,508)=*(22,505),(22,509)=&(22,510)=k(22,505),(0,6);:_ZN11stlpmtx_std13__type_traitsIVKyEaSERKS2_;2A.;__base_ctor::(22,511)=#(22,505),(0,6),(22,508),(22,509),(0,6);:_ZN11stlpmtx_std13__type_traitsIVKyEC2ERKS2_;2A.;__comp_ctor::(22,511):_ZN11stlpmtx_std13__type_traitsIVKyEC1ERKS2_;2A.;__base_ctor::(22,512)=#(22,505),(0,6),(22,508),(0,6);:_ZN11stlpmtx_std13__type_traitsIVKyEC2Ev;2A.;__comp_ctor::(22,512):_ZN11stlpmtx_std13__type_traitsIVKyEC1Ev;2A.;;",128,0,304,0
	.stabs	"__type_traits<float>:Tt(22,513)=s1!1,020,(22,121);operator=::(22,514)=#(22,513),(22,515)=&(22,513),(22,516)=*(22,513),(22,517)=&(22,518)=k(22,513),(0,6);:_ZN11stlpmtx_std13__type_traitsIfEaSERKS1_;2A.;__base_ctor::(22,519)=#(22,513),(0,6),(22,516),(22,517),(0,6);:_ZN11stlpmtx_std13__type_traitsIfEC2ERKS1_;2A.;__comp_ctor::(22,519):_ZN11stlpmtx_std13__type_traitsIfEC1ERKS1_;2A.;__base_ctor::(22,520)=#(22,513),(0,6),(22,516),(0,6);:_ZN11stlpmtx_std13__type_traitsIfEC2Ev;2A.;__comp_ctor::(22,520):_ZN11stlpmtx_std13__type_traitsIfEC1Ev;2A.;;",128,0,307,0
	.stabs	"__type_traits<const float>:Tt(22,521)=s1!1,020,(22,121);operator=::(22,522)=#(22,521),(22,523)=&(22,521),(22,524)=*(22,521),(22,525)=&(22,526)=k(22,521),(0,6);:_ZN11stlpmtx_std13__type_traitsIKfEaSERKS2_;2A.;__base_ctor::(22,527)=#(22,521),(0,6),(22,524),(22,525),(0,6);:_ZN11stlpmtx_std13__type_traitsIKfEC2ERKS2_;2A.;__comp_ctor::(22,527):_ZN11stlpmtx_std13__type_traitsIKfEC1ERKS2_;2A.;__base_ctor::(22,528)=#(22,521),(0,6),(22,524),(0,6);:_ZN11stlpmtx_std13__type_traitsIKfEC2Ev;2A.;__comp_ctor::(22,528):_ZN11stlpmtx_std13__type_traitsIKfEC1Ev;2A.;;",128,0,307,0
	.stabs	"__type_traits<volatile float>:Tt(22,529)=s1!1,020,(22,121);operator=::(22,530)=#(22,529),(22,531)=&(22,529),(22,532)=*(22,529),(22,533)=&(22,534)=k(22,529),(0,6);:_ZN11stlpmtx_std13__type_traitsIVfEaSERKS2_;2A.;__base_ctor::(22,535)=#(22,529),(0,6),(22,532),(22,533),(0,6);:_ZN11stlpmtx_std13__type_traitsIVfEC2ERKS2_;2A.;__comp_ctor::(22,535):_ZN11stlpmtx_std13__type_traitsIVfEC1ERKS2_;2A.;__base_ctor::(22,536)=#(22,529),(0,6),(22,532),(0,6);:_ZN11stlpmtx_std13__type_traitsIVfEC2Ev;2A.;__comp_ctor::(22,536):_ZN11stlpmtx_std13__type_traitsIVfEC1Ev;2A.;;",128,0,307,0
	.stabs	"__type_traits<const volatile float>:Tt(22,537)=s1!1,020,(22,121);operator=::(22,538)=#(22,537),(22,539)=&(22,537),(22,540)=*(22,537),(22,541)=&(22,542)=k(22,537),(0,6);:_ZN11stlpmtx_std13__type_traitsIVKfEaSERKS2_;2A.;__base_ctor::(22,543)=#(22,537),(0,6),(22,540),(22,541),(0,6);:_ZN11stlpmtx_std13__type_traitsIVKfEC2ERKS2_;2A.;__comp_ctor::(22,543):_ZN11stlpmtx_std13__type_traitsIVKfEC1ERKS2_;2A.;__base_ctor::(22,544)=#(22,537),(0,6),(22,540),(0,6);:_ZN11stlpmtx_std13__type_traitsIVKfEC2Ev;2A.;__comp_ctor::(22,544):_ZN11stlpmtx_std13__type_traitsIVKfEC1Ev;2A.;;",128,0,307,0
	.stabs	"__type_traits<double>:Tt(22,545)=s1!1,020,(22,121);operator=::(22,546)=#(22,545),(22,547)=&(22,545),(22,548)=*(22,545),(22,549)=&(22,550)=k(22,545),(0,6);:_ZN11stlpmtx_std13__type_traitsIdEaSERKS1_;2A.;__base_ctor::(22,551)=#(22,545),(0,6),(22,548),(22,549),(0,6);:_ZN11stlpmtx_std13__type_traitsIdEC2ERKS1_;2A.;__comp_ctor::(22,551):_ZN11stlpmtx_std13__type_traitsIdEC1ERKS1_;2A.;__base_ctor::(22,552)=#(22,545),(0,6),(22,548),(0,6);:_ZN11stlpmtx_std13__type_traitsIdEC2Ev;2A.;__comp_ctor::(22,552):_ZN11stlpmtx_std13__type_traitsIdEC1Ev;2A.;;",128,0,308,0
	.stabs	"__type_traits<const double>:Tt(22,553)=s1!1,020,(22,121);operator=::(22,554)=#(22,553),(22,555)=&(22,553),(22,556)=*(22,553),(22,557)=&(22,558)=k(22,553),(0,6);:_ZN11stlpmtx_std13__type_traitsIKdEaSERKS2_;2A.;__base_ctor::(22,559)=#(22,553),(0,6),(22,556),(22,557),(0,6);:_ZN11stlpmtx_std13__type_traitsIKdEC2ERKS2_;2A.;__comp_ctor::(22,559):_ZN11stlpmtx_std13__type_traitsIKdEC1ERKS2_;2A.;__base_ctor::(22,560)=#(22,553),(0,6),(22,556),(0,6);:_ZN11stlpmtx_std13__type_traitsIKdEC2Ev;2A.;__comp_ctor::(22,560):_ZN11stlpmtx_std13__type_traitsIKdEC1Ev;2A.;;",128,0,308,0
	.stabs	"__type_traits<volatile double>:Tt(22,561)=s1!1,020,(22,121);operator=::(22,562)=#(22,561),(22,563)=&(22,561),(22,564)=*(22,561),(22,565)=&(22,566)=k(22,561),(0,6);:_ZN11stlpmtx_std13__type_traitsIVdEaSERKS2_;2A.;__base_ctor::(22,567)=#(22,561),(0,6),(22,564),(22,565),(0,6);:_ZN11stlpmtx_std13__type_traitsIVdEC2ERKS2_;2A.;__comp_ctor::(22,567):_ZN11stlpmtx_std13__type_traitsIVdEC1ERKS2_;2A.;__base_ctor::(22,568)=#(22,561),(0,6),(22,564),(0,6);:_ZN11stlpmtx_std13__type_traitsIVdEC2Ev;2A.;__comp_ctor::(22,568):_ZN11stlpmtx_std13__type_traitsIVdEC1Ev;2A.;;",128,0,308,0
	.stabs	"__type_traits<const volatile double>:Tt(22,569)=s1!1,020,(22,121);operator=::(22,570)=#(22,569),(22,571)=&(22,569),(22,572)=*(22,569),(22,573)=&(22,574)=k(22,569),(0,6);:_ZN11stlpmtx_std13__type_traitsIVKdEaSERKS2_;2A.;__base_ctor::(22,575)=#(22,569),(0,6),(22,572),(22,573),(0,6);:_ZN11stlpmtx_std13__type_traitsIVKdEC2ERKS2_;2A.;__comp_ctor::(22,575):_ZN11stlpmtx_std13__type_traitsIVKdEC1ERKS2_;2A.;__base_ctor::(22,576)=#(22,569),(0,6),(22,572),(0,6);:_ZN11stlpmtx_std13__type_traitsIVKdEC2Ev;2A.;__comp_ctor::(22,576):_ZN11stlpmtx_std13__type_traitsIVKdEC1Ev;2A.;;",128,0,308,0
	.stabs	"_NegativeAnswer:Tt(22,577)=s1_Answer::(22,578)=f(23,9):_ZN11stlpmtx_std15_NegativeAnswer7_AnswerEv;2A?;operator=::(22,579)=#(22,577),(22,580)=&(22,577),(22,581)=*(22,577),(22,582)=&(22,583)=k(22,577),(0,6);:_ZN11stlpmtx_std15_NegativeAnsweraSERKS0_;2A.;__base_ctor::(22,584)=#(22,577),(0,6),(22,581),(22,582),(0,6);:_ZN11stlpmtx_std15_NegativeAnswerC2ERKS0_;2A.;__comp_ctor::(22,584):_ZN11stlpmtx_std15_NegativeAnswerC1ERKS0_;2A.;__base_ctor::(22,585)=#(22,577),(0,6),(22,581),(0,6);:_ZN11stlpmtx_std15_NegativeAnswerC2Ev;2A.;__comp_ctor::(22,585):_ZN11stlpmtx_std15_NegativeAnswerC1Ev;2A.;;",128,0,510,0
	.stabn	162,0,0,0
	.stabn	162,0,0,0
	.stabs	"/Applications/MoSync/include/newlib/stlport/stl/_iterator_base.h",130,0,0,0
	.stabs	"input_iterator_tag:Tt(24,1)=s1operator=::(24,2)=#(24,1),(24,3)=&(24,1),(24,4)=*(24,1),(24,5)=&(24,6)=k(24,1),(0,6);:_ZN11stlpmtx_std18input_iterator_tagaSERKS0_;2A.;__base_ctor::(24,7)=#(24,1),(0,6),(24,4),(24,5),(0,6);:_ZN11stlpmtx_std18input_iterator_tagC2ERKS0_;2A.;__comp_ctor::(24,7):_ZN11stlpmtx_std18input_iterator_tagC1ERKS0_;2A.;__base_ctor::(24,8)=#(24,1),(0,6),(24,4),(0,6);:_ZN11stlpmtx_std18input_iterator_tagC2Ev;2A.;__comp_ctor::(24,8):_ZN11stlpmtx_std18input_iterator_tagC1Ev;2A.;;",128,0,51,0
	.stabs	"output_iterator_tag:Tt(24,9)=s1operator=::(24,10)=#(24,9),(24,11)=&(24,9),(24,12)=*(24,9),(24,13)=&(24,14)=k(24,9),(0,6);:_ZN11stlpmtx_std19output_iterator_tagaSERKS0_;2A.;__base_ctor::(24,15)=#(24,9),(0,6),(24,12),(24,13),(0,6);:_ZN11stlpmtx_std19output_iterator_tagC2ERKS0_;2A.;__comp_ctor::(24,15):_ZN11stlpmtx_std19output_iterator_tagC1ERKS0_;2A.;__base_ctor::(24,16)=#(24,9),(0,6),(24,12),(0,6);:_ZN11stlpmtx_std19output_iterator_tagC2Ev;2A.;__comp_ctor::(24,16):_ZN11stlpmtx_std19output_iterator_tagC1Ev;2A.;;",128,0,52,0
	.stabs	"forward_iterator_tag:Tt(24,17)=s1!1,020,(24,1);operator=::(24,18)=#(24,17),(24,19)=&(24,17),(24,20)=*(24,17),(24,21)=&(24,22)=k(24,17),(0,6);:_ZN11stlpmtx_std20forward_iterator_tagaSERKS0_;2A.;__base_ctor::(24,23)=#(24,17),(0,6),(24,20),(24,21),(0,6);:_ZN11stlpmtx_std20forward_iterator_tagC2ERKS0_;2A.;__comp_ctor::(24,23):_ZN11stlpmtx_std20forward_iterator_tagC1ERKS0_;2A.;__base_ctor::(24,24)=#(24,17),(0,6),(24,20),(0,6);:_ZN11stlpmtx_std20forward_iterator_tagC2Ev;2A.;__comp_ctor::(24,24):_ZN11stlpmtx_std20forward_iterator_tagC1Ev;2A.;;",128,0,53,0
	.stabs	"bidirectional_iterator_tag:Tt(24,25)=s1!1,020,(24,17);operator=::(24,26)=#(24,25),(24,27)=&(24,25),(24,28)=*(24,25),(24,29)=&(24,30)=k(24,25),(0,6);:_ZN11stlpmtx_std26bidirectional_iterator_tagaSERKS0_;2A.;__base_ctor::(24,31)=#(24,25),(0,6),(24,28),(24,29),(0,6);:_ZN11stlpmtx_std26bidirectional_iterator_tagC2ERKS0_;2A.;__comp_ctor::(24,31):_ZN11stlpmtx_std26bidirectional_iterator_tagC1ERKS0_;2A.;__base_ctor::(24,32)=#(24,25),(0,6),(24,28),(0,6);:_ZN11stlpmtx_std26bidirectional_iterator_tagC2Ev;2A.;__comp_ctor::(24,32):_ZN11stlpmtx_std26bidirectional_iterator_tagC1Ev;2A.;;",128,0,54,0
	.stabs	"random_access_iterator_tag:Tt(24,33)=s1!1,020,(24,25);operator=::(24,34)=#(24,33),(24,35)=&(24,33),(24,36)=*(24,33),(24,37)=&(24,38)=k(24,33),(0,6);:_ZN11stlpmtx_std26random_access_iterator_tagaSERKS0_;2A.;__base_ctor::(24,39)=#(24,33),(0,6),(24,36),(24,37),(0,6);:_ZN11stlpmtx_std26random_access_iterator_tagC2ERKS0_;2A.;__comp_ctor::(24,39):_ZN11stlpmtx_std26random_access_iterator_tagC1ERKS0_;2A.;__base_ctor::(24,40)=#(24,33),(0,6),(24,36),(0,6);:_ZN11stlpmtx_std26random_access_iterator_tagC2Ev;2A.;__comp_ctor::(24,40):_ZN11stlpmtx_std26random_access_iterator_tagC1Ev;2A.;;",128,0,55,0
	.stabs	"iterator<stlpmtx_std::output_iterator_tag,void,void,void,void>:Tt(24,41)=s1operator=::(24,42)=#(24,41),(24,43)=&(24,41),(24,44)=*(24,41),(24,45)=&(24,46)=k(24,41),(0,6);:_ZN11stlpmtx_std8iteratorINS_19output_iterator_tagEvvvvEaSERKS2_;2A.;__base_ctor::(24,47)=#(24,41),(0,6),(24,44),(24,45),(0,6);:_ZN11stlpmtx_std8iteratorINS_19output_iterator_tagEvvvvEC2ERKS2_;2A.;__comp_ctor::(24,47):_ZN11stlpmtx_std8iteratorINS_19output_iterator_tagEvvvvEC1ERKS2_;2A.;__base_ctor::(24,48)=#(24,41),(0,6),(24,44),(0,6);:_ZN11stlpmtx_std8iteratorINS_19output_iterator_tagEvvvvEC2Ev;2A.;__comp_ctor::(24,48):_ZN11stlpmtx_std8iteratorINS_19output_iterator_tagEvvvvEC1Ev;2A.;;",128,0,67,0
	.stabs	"output_iterator:Tt(24,49)=s1!1,020,(24,41);operator=::(24,50)=#(24,49),(24,51)=&(24,49),(24,52)=*(24,49),(24,53)=&(24,54)=k(24,49),(0,6);:_ZN11stlpmtx_std15output_iteratoraSERKS0_;2A.;__base_ctor::(24,55)=#(24,49),(0,6),(24,52),(24,53),(0,6);:_ZN11stlpmtx_std15output_iteratorC2ERKS0_;2A.;__comp_ctor::(24,55):_ZN11stlpmtx_std15output_iteratorC1ERKS0_;2A.;__base_ctor::(24,56)=#(24,49),(0,6),(24,52),(0,6);:_ZN11stlpmtx_std15output_iteratorC2Ev;2A.;__comp_ctor::(24,56):_ZN11stlpmtx_std15output_iteratorC1Ev;2A.;;",128,0,269,0
	.stabn	162,0,0,0
	.stabs	"/Applications/MoSync/include/newlib/stlport/stl/_algobase.c",130,0,0,0
	.stabs	"_IsCharLikeType<char>:Tt(25,1)=s1operator=::(25,2)=#(25,1),(25,3)=&(25,1),(25,4)=*(25,1),(25,5)=&(25,6)=k(25,1),(0,6);:_ZN11stlpmtx_std4priv15_IsCharLikeTypeIcEaSERKS2_;2A.;__base_ctor::(25,7)=#(25,1),(0,6),(25,4),(25,5),(0,6);:_ZN11stlpmtx_std4priv15_IsCharLikeTypeIcEC2ERKS2_;2A.;__comp_ctor::(25,7):_ZN11stlpmtx_std4priv15_IsCharLikeTypeIcEC1ERKS2_;2A.;__base_ctor::(25,8)=#(25,1),(0,6),(25,4),(0,6);:_ZN11stlpmtx_std4priv15_IsCharLikeTypeIcEC2Ev;2A.;__comp_ctor::(25,8):_ZN11stlpmtx_std4priv15_IsCharLikeTypeIcEC1Ev;2A.;;",128,0,276,0
	.stabs	"_IsCharLikeType<unsigned char>:Tt(25,9)=s1operator=::(25,10)=#(25,9),(25,11)=&(25,9),(25,12)=*(25,9),(25,13)=&(25,14)=k(25,9),(0,6);:_ZN11stlpmtx_std4priv15_IsCharLikeTypeIhEaSERKS2_;2A.;__base_ctor::(25,15)=#(25,9),(0,6),(25,12),(25,13),(0,6);:_ZN11stlpmtx_std4priv15_IsCharLikeTypeIhEC2ERKS2_;2A.;__comp_ctor::(25,15):_ZN11stlpmtx_std4priv15_IsCharLikeTypeIhEC1ERKS2_;2A.;__base_ctor::(25,16)=#(25,9),(0,6),(25,12),(0,6);:_ZN11stlpmtx_std4priv15_IsCharLikeTypeIhEC2Ev;2A.;__comp_ctor::(25,16):_ZN11stlpmtx_std4priv15_IsCharLikeTypeIhEC1Ev;2A.;;",128,0,279,0
	.stabs	"_IsCharLikeType<signed char>:Tt(25,17)=s1operator=::(25,18)=#(25,17),(25,19)=&(25,17),(25,20)=*(25,17),(25,21)=&(25,22)=k(25,17),(0,6);:_ZN11stlpmtx_std4priv15_IsCharLikeTypeIaEaSERKS2_;2A.;__base_ctor::(25,23)=#(25,17),(0,6),(25,20),(25,21),(0,6);:_ZN11stlpmtx_std4priv15_IsCharLikeTypeIaEC2ERKS2_;2A.;__comp_ctor::(25,23):_ZN11stlpmtx_std4priv15_IsCharLikeTypeIaEC1ERKS2_;2A.;__base_ctor::(25,24)=#(25,17),(0,6),(25,20),(0,6);:_ZN11stlpmtx_std4priv15_IsCharLikeTypeIaEC2Ev;2A.;__comp_ctor::(25,24):_ZN11stlpmtx_std4priv15_IsCharLikeTypeIaEC1Ev;2A.;;",128,0,283,0
	.stabn	162,0,0,0
	.stabn	162,0,0,0
	.stabs	"/Applications/MoSync/include/newlib/stlport/stl/_new.h",130,0,0,0
	.stabs	"/Applications/MoSync/include/newlib/stlport/../new",130,0,0,0
	.stabs	"/Applications/MoSync/include/newlib/stlport/../macpp.h",130,0,0,0
	.stabs	"size_t:t(28,1)=(0,16)",128,0,17,0
	.stabn	162,0,0,0
	.stabs	"nothrow_t:Tt(27,1)=s1operator=::(27,2)=#(27,1),(27,3)=&(27,1),(27,4)=*(27,1),(27,5)=&(27,6)=k(27,1),(0,6);:_ZNSt9nothrow_taSERKS_;2A.;__base_ctor::(27,7)=#(27,1),(0,6),(27,4),(27,5),(0,6);:_ZNSt9nothrow_tC2ERKS_;2A.;__comp_ctor::(27,7):_ZNSt9nothrow_tC1ERKS_;2A.;__base_ctor::(27,8)=#(27,1),(0,6),(27,4),(0,6);:_ZNSt9nothrow_tC2Ev;2A.;__comp_ctor::(27,8):_ZNSt9nothrow_tC1Ev;2A.;;",128,0,50,0
	.stabn	162,0,0,0
	.stabs	"/Applications/MoSync/include/newlib/stlport/stl/_cstdio.h",130,0,0,0
	.stabs	"/Applications/MoSync/include/newlib/stlport/stdio.h",130,0,0,0
	.stabs	"/Applications/MoSync/include/newlib/stlport/../stdio.h",130,0,0,0
	.stabs	"/Applications/MoSync/include/newlib/stlport/stdarg.h",130,0,0,0
	.stabs	"/Applications/MoSync/include/newlib/stlport/../stdarg.h",130,0,0,0
	.stabs	"__gnuc_va_list:t(33,1)=(0,20)",128,0,34,0
	.stabs	"va_list:t(33,2)=(33,1)",128,0,35,0
	.stabn	162,0,0,0
	.stabn	162,0,0,0
	.stabs	"/Applications/MoSync/include/newlib/sys/types.h",130,0,0,0
	.stabs	"u_int8_t:t(34,1)=(14,2)",128,0,36,0
	.stabs	"u_int16_t:t(34,2)=(14,4)",128,0,39,0
	.stabs	"u_int32_t:t(34,3)=(14,8)",128,0,42,0
	.stabs	"u_int64_t:t(34,4)=(14,12)",128,0,46,0
	.stabs	"u_quad_t:t(34,5)=(14,12)",128,0,49,0
	.stabs	"quad_t:t(34,6)=(14,11)",128,0,50,0
	.stabs	"qaddr_t:t(34,7)=(34,8)=*(34,6)",128,0,51,0
	.stabs	"/Applications/MoSync/include/newlib/machine/types.h",130,0,0,0
	.stabs	"__off_t:t(35,1)=(0,18)",128,0,19,0
	.stabs	"__pid_t:t(35,2)=(0,3)",128,0,20,0
	.stabs	"__loff_t:t(35,3)=(0,15)",128,0,22,0
	.stabn	162,0,0,0
	.stabs	"u_char:t(34,9)=(0,10)",128,0,92,0
	.stabs	"u_short:t(34,10)=(0,12)",128,0,93,0
	.stabs	"u_int:t(34,11)=(0,17)",128,0,94,0
	.stabs	"u_long:t(34,12)=(0,16)",128,0,95,0
	.stabs	"ushort:t(34,13)=(0,12)",128,0,101,0
	.stabs	"uint:t(34,14)=(0,17)",128,0,102,0
	.stabs	"clock_t:t(34,15)=(0,16)",128,0,107,0
	.stabs	"time_t:t(34,16)=(0,18)",128,0,112,0
	.stabs	"timespec:Tt(34,17)=s8tv_sec:(34,16),0,32;tv_nsec:(0,18),32,32;operator=::(34,18)=#(34,17),(34,19)=&(34,17),(34,20)=*(34,17),(34,21)=&(34,22)=k(34,17),(0,6);:_ZN8timespecaSERKS_;2A.;__base_ctor::(34,23)=#(34,17),(0,6),(34,20),(34,21),(0,6);:_ZN8timespecC2ERKS_;2A.;__comp_ctor::(34,23):_ZN8timespecC1ERKS_;2A.;__base_ctor::(34,24)=#(34,17),(0,6),(34,20),(0,6);:_ZN8timespecC2Ev;2A.;__comp_ctor::(34,24):_ZN8timespecC1Ev;2A.;;",128,0,117,0
	.stabs	"itimerspec:Tt(34,25)=s16it_interval:(34,17),0,64;it_value:(34,17),64,64;operator=::(34,26)=#(34,25),(34,27)=&(34,25),(34,28)=*(34,25),(34,29)=&(34,30)=k(34,25),(0,6);:_ZN10itimerspecaSERKS_;2A.;__base_ctor::(34,31)=#(34,25),(0,6),(34,28),(34,29),(0,6);:_ZN10itimerspecC2ERKS_;2A.;__comp_ctor::(34,31):_ZN10itimerspecC1ERKS_;2A.;__base_ctor::(34,32)=#(34,25),(0,6),(34,28),(0,6);:_ZN10itimerspecC2Ev;2A.;__comp_ctor::(34,32):_ZN10itimerspecC1Ev;2A.;;",128,0,122,0
	.stabs	"daddr_t:t(34,33)=(0,18)",128,0,128,0
	.stabs	"caddr_t:t(34,34)=(11,93)",128,0,129,0
	.stabs	"ino_t:t(34,35)=(0,12)",128,0,136,0
	.stabs	"off_t:t(34,36)=(12,1)",128,0,165,0
	.stabs	"dev_t:t(34,37)=(12,2)",128,0,166,0
	.stabs	"uid_t:t(34,38)=(12,3)",128,0,167,0
	.stabs	"gid_t:t(34,39)=(12,4)",128,0,168,0
	.stabs	"pid_t:t(34,40)=(0,3)",128,0,174,0
	.stabs	"key_t:t(34,41)=(0,18)",128,0,182,0
	.stabs	"ssize_t:t(34,42)=(12,7)",128,0,184,0
	.stabs	"mode_t:t(34,43)=(0,17)",128,0,198,0
	.stabs	"nlink_t:t(34,44)=(0,12)",128,0,203,0
	.stabs	"fd_mask:t(34,45)=(0,18)",128,0,225,0
	.stabs	"_types_fd_set:Tt(34,46)=s8fds_bits:(34,47)=ar(12,11);0;1;(34,45),0,64;operator=::(34,48)=#(34,46),(34,49)=&(34,46),(34,50)=*(34,46),(34,51)=&(34,52)=k(34,46),(0,6);:_ZN13_types_fd_setaSERKS_;2A.;__base_ctor::(34,53)=#(34,46),(0,6),(34,50),(34,51),(0,6);:_ZN13_types_fd_setC2ERKS_;2A.;__comp_ctor::(34,53):_ZN13_types_fd_setC1ERKS_;2A.;__base_ctor::(34,54)=#(34,46),(0,6),(34,50),(0,6);:_ZN13_types_fd_setC2Ev;2A.;__comp_ctor::(34,54):_ZN13_types_fd_setC1Ev;2A.;;",128,0,233,0
	.stabs	"_types_fd_set:t(34,55)=(34,46)",128,0,235,0
	.stabs	"clockid_t:t(34,56)=(0,16)",128,0,256,0
	.stabs	"timer_t:t(34,57)=(0,16)",128,0,261,0
	.stabs	"useconds_t:t(34,58)=(0,16)",128,0,265,0
	.stabs	"suseconds_t:t(34,59)=(0,18)",128,0,266,0
	.stabn	162,0,0,0
	.stabs	"FILE:t(31,1)=(11,68)",128,0,50,0
	.stabs	"fpos_t:t(31,2)=(12,6)",128,0,55,0
	.stabs	"cookie_read_function_t:t(31,3)=(31,4)=f(34,42)",128,0,552,0
	.stabs	"cookie_write_function_t:t(31,5)=(31,6)=f(34,42)",128,0,554,0
	.stabs	"cookie_seek_function_t:t(31,7)=(31,8)=f(0,3)",128,0,559,0
	.stabs	"cookie_close_function_t:t(31,9)=(31,10)=f(0,3)",128,0,561,0
	.stabs	"cookie_io_functions_t:t(31,11)=s16read:(31,12)=*(31,3),0,32;write:(31,13)=*(31,5),32,32;seek:(31,14)=*(31,7),64,32;close:(31,15)=*(31,9),96,32;operator=::(31,16)=#(31,11),(31,17)=&(31,11),(31,18)=*(31,11),(31,19)=&(31,20)=k(31,11),(0,6);:_ZN21cookie_io_functions_taSERKS_;2A.;__base_ctor::(31,21)=#(31,11),(0,6),(31,18),(31,19),(0,6);:_ZN21cookie_io_functions_tC2ERKS_;2A.;__comp_ctor::(31,21):_ZN21cookie_io_functions_tC1ERKS_;2A.;__base_ctor::(31,22)=#(31,11),(0,6),(31,18),(0,6);:_ZN21cookie_io_functions_tC2Ev;2A.;__comp_ctor::(31,22):_ZN21cookie_io_functions_tC1Ev;2A.;;",128,0,570,0
	.stabn	162,0,0,0
	.stabn	162,0,0,0
	.stabn	162,0,0,0
	.stabn	162,0,0,0
	.stabs	"__malloc_alloc:Tt(4,1)=s1allocate::(4,2)=f(12,28):_ZN11stlpmtx_std14__malloc_alloc8allocateEm;2A?;deallocate::(4,3)=f(0,6):_ZN11stlpmtx_std14__malloc_alloc10deallocateEPvm;2A?;operator=::(4,4)=#(4,1),(4,5)=&(4,1),(4,6)=*(4,1),(4,7)=&(4,8)=k(4,1),(0,6);:_ZN11stlpmtx_std14__malloc_allocaSERKS0_;2A.;__base_ctor::(4,9)=#(4,1),(0,6),(4,6),(4,7),(0,6);:_ZN11stlpmtx_std14__malloc_allocC2ERKS0_;2A.;__comp_ctor::(4,9):_ZN11stlpmtx_std14__malloc_allocC1ERKS0_;2A.;__base_ctor::(4,10)=#(4,1),(0,6),(4,6),(0,6);:_ZN11stlpmtx_std14__malloc_allocC2Ev;2A.;__comp_ctor::(4,10):_ZN11stlpmtx_std14__malloc_allocC1Ev;2A.;;",128,0,63,0
	.stabs	"__new_alloc:Tt(4,11)=s1allocate::(4,2):_ZN11stlpmtx_std11__new_alloc8allocateEm;2A?;deallocate::(4,3):_ZN11stlpmtx_std11__new_alloc10deallocateEPvm;2A?;operator=::(4,12)=#(4,11),(4,13)=&(4,11),(4,14)=*(4,11),(4,15)=&(4,16)=k(4,11),(0,6);:_ZN11stlpmtx_std11__new_allocaSERKS0_;2A.;__base_ctor::(4,17)=#(4,11),(0,6),(4,14),(4,15),(0,6);:_ZN11stlpmtx_std11__new_allocC2ERKS0_;2A.;__comp_ctor::(4,17):_ZN11stlpmtx_std11__new_allocC1ERKS0_;2A.;__base_ctor::(4,18)=#(4,11),(0,6),(4,14),(0,6);:_ZN11stlpmtx_std11__new_allocC2Ev;2A.;__comp_ctor::(4,18):_ZN11stlpmtx_std11__new_allocC1Ev;2A.;;",128,0,88,0
	.stabs	"__alloc_type:t(4,19)=(4,11)",128,0,220,0
	.stabs	"__sgi_alloc:t(4,20)=(4,19)",128,0,230,0
	.stabs	"__single_client_alloc:t(4,21)=(4,20)",128,0,234,0
	.stabs	"__multithreaded_alloc:t(4,22)=(4,20)",128,0,235,0
	.stabs	"allocator<void>:Tt(4,23)=s1operator=::(4,24)=#(4,23),(4,25)=&(4,23),(4,26)=*(4,23),(4,27)=&(4,28)=k(4,23),(0,6);:_ZN11stlpmtx_std9allocatorIvEaSERKS1_;2A.;__base_ctor::(4,29)=#(4,23),(0,6),(4,26),(4,27),(0,6);:_ZN11stlpmtx_std9allocatorIvEC2ERKS1_;2A.;__comp_ctor::(4,29):_ZN11stlpmtx_std9allocatorIvEC1ERKS1_;2A.;__base_ctor::(4,30)=#(4,23),(0,6),(4,26),(0,6);:_ZN11stlpmtx_std9allocatorIvEC2Ev;2A.;__comp_ctor::(4,30):_ZN11stlpmtx_std9allocatorIvEC1Ev;2A.;;",128,0,364,0
	.stabn	162,0,0,0
	.stabs	"/Applications/MoSync/include/newlib/stlport/stl/_string_fwd.h",130,0,0,0
	.stabs	"/Applications/MoSync/include/newlib/stlport/stl/_iosfwd.h",130,0,0,0
	.stabs	"/Applications/MoSync/include/newlib/stlport/stl/char_traits.h",130,0,0,0
	.stabs	"/Applications/MoSync/include/newlib/stlport/stl/_cwchar.h",130,0,0,0
	.stabs	"/Applications/MoSync/include/newlib/stlport/../wchar.h",130,0,0,0
	.stabs	"mbstate_t:t(40,1)=(12,8)",128,0,47,0
	.stabn	162,0,0,0
	.stabn	162,0,0,0
	.stabs	"streamoff:t(38,1)=(34,36)",128,0,74,0
	.stabs	"streamsize:t(38,2)=(7,3)",128,0,81,0
	.stabs	"streampos:t(38,3)=(38,4)=xsfpos<_mbstate_t>:",128,0,127,0
	.stabs	"wstreampos:t(38,5)=(38,4)",128,0,128,0
	.stabs	"__char_traits_base<char,int>:Tt(38,6)=s1assign::(38,7)=f(0,6):_ZN11stlpmtx_std18__char_traits_baseIciE6assignERcRKc;2A?;eq::(38,8)=f(0,4):_ZN11stlpmtx_std18__char_traits_baseIciE2eqERKcS3_;2A?;lt::(38,8):_ZN11stlpmtx_std18__char_traits_baseIciE2ltERKcS3_;2A?;compare::(38,9)=f(0,3):_ZN11stlpmtx_std18__char_traits_baseIciE7compareEPKcS3_m;2A?;length::(38,10)=f(7,2):_ZN11stlpmtx_std18__char_traits_baseIciE6lengthEPKc;2A?;find::(38,11)=f(11,88):_ZN11stlpmtx_std18__char_traits_baseIciE4findEPKcmRS2_;2A?;move::(38,12)=f(11,93):_ZN11stlpmtx_std18__char_traits_baseIciE4moveEPcPKcm;2A?;copy::(38,12):_ZN11stlpmtx_std18__char_traits_baseIciE4copyEPcPKcm;2A?;assign::(38,13)=f(11,93):_ZN11stlpmtx_std18__char_traits_baseIciE6assignEPcmc;2A?;not_eof::(38,14)=f(0,3):_ZN11stlpmtx_std18__char_traits_baseIciE7not_eofERKi;2A?;to_char_type::(38,15)=f(0,19):_ZN11stlpmtx_std18__char_traits_baseIciE12to_char_typeERKi;2A?;to_int_type::(38,16)=f(0,3):_ZN11stlpmtx_std18__char_traits_baseIciE11to_int_typeERKc;2A?;eq_int_type::(38,17)=f(0,4):_ZN11stlpmtx_std18__char_traits_baseIciE11eq_int_typeERKiS3_;2A?;eof::(38,18)=f(0,3):_ZN11stlpmtx_std18__char_traits_baseIciE3eofEv;2A?;operator=::(38,19)=#(38,6),(38,20)=&(38,6),(38,21)=*(38,6),(38,22)=&(38,23)=k(38,6),(0,6);:_ZN11stlpmtx_std18__char_traits_baseIciEaSERKS1_;2A.;__base_ctor::(38,24)=#(38,6),(0,6),(38,21),(38,22),(0,6);:_ZN11stlpmtx_std18__char_traits_baseIciEC2ERKS1_;2A.;__comp_ctor::(38,24):_ZN11stlpmtx_std18__char_traits_baseIciEC1ERKS1_;2A.;__base_ctor::(38,25)=#(38,6),(0,6),(38,21),(0,6);:_ZN11stlpmtx_std18__char_traits_baseIciEC2Ev;2A.;__comp_ctor::(38,25):_ZN11stlpmtx_std18__char_traits_baseIciEC1Ev;2A.;;",128,0,132,0
	.stabs	"__stlport_class<stlpmtx_std::char_traits<char> >:Tt(38,26)=s1operator=::(38,27)=#(38,26),(38,28)=&(38,26),(38,29)=*(38,26),(38,30)=&(38,31)=k(38,26),(0,6);:_ZN11stlpmtx_std15__stlport_classINS_11char_traitsIcEEEaSERKS3_;2A.;__base_ctor::(38,32)=#(38,26),(0,6),(38,29),(38,30),(0,6);:_ZN11stlpmtx_std15__stlport_classINS_11char_traitsIcEEEC2ERKS3_;2A.;__comp_ctor::(38,32):_ZN11stlpmtx_std15__stlport_classINS_11char_traitsIcEEEC1ERKS3_;2A.;__base_ctor::(38,33)=#(38,26),(0,6),(38,29),(0,6);:_ZN11stlpmtx_std15__stlport_classINS_11char_traitsIcEEEC2Ev;2A.;__comp_ctor::(38,33):_ZN11stlpmtx_std15__stlport_classINS_11char_traitsIcEEEC1Ev;2A.;;",128,0,572,0
	.stabs	"char_traits<char>:Tt(38,34)=s1!2,020,(38,6);020,(38,26);to_char_type::(38,15):_ZN11stlpmtx_std11char_traitsIcE12to_char_typeERKi;2A?;to_int_type::(38,16):_ZN11stlpmtx_std11char_traitsIcE11to_int_typeERKc;2A?;compare::(38,35)=f(0,3):_ZN11stlpmtx_std11char_traitsIcE7compareEPKcS3_m;2A?;length::(38,10):_ZN11stlpmtx_std11char_traitsIcE6lengthEPKc;2A?;assign::(38,7):_ZN11stlpmtx_std11char_traitsIcE6assignERcRKc;2A?(38,36)=f(11,93):_ZN11stlpmtx_std11char_traitsIcE6assignEPcmc;2A?;operator=::(38,37)=#(38,34),(38,38)=&(38,34),(38,39)=*(38,34),(38,40)=&(38,41)=k(38,34),(0,6);:_ZN11stlpmtx_std11char_traitsIcEaSERKS1_;2A.;__base_ctor::(38,42)=#(38,34),(0,6),(38,39),(38,40),(0,6);:_ZN11stlpmtx_std11char_traitsIcEC2ERKS1_;2A.;__comp_ctor::(38,42):_ZN11stlpmtx_std11char_traitsIcEC1ERKS1_;2A.;__base_ctor::(38,43)=#(38,34),(0,6),(38,39),(0,6);:_ZN11stlpmtx_std11char_traitsIcEC2Ev;2A.;__comp_ctor::(38,43):_ZN11stlpmtx_std11char_traitsIcEC1Ev;2A.;;",128,0,211,0
	.stabs	"__char_traits_base<wchar_t,wint_t>:Tt(38,44)=s1assign::(38,45)=f(0,6):_ZN11stlpmtx_std18__char_traits_baseIwiE6assignERwRKw;2A?;eq::(38,46)=f(0,4):_ZN11stlpmtx_std18__char_traits_baseIwiE2eqERKwS3_;2A?;lt::(38,46):_ZN11stlpmtx_std18__char_traits_baseIwiE2ltERKwS3_;2A?;compare::(38,47)=f(0,3):_ZN11stlpmtx_std18__char_traits_baseIwiE7compareEPKwS3_m;2A?;length::(38,48)=f(7,2):_ZN11stlpmtx_std18__char_traits_baseIwiE6lengthEPKw;2A?;find::(38,49)=f(38,50)=*(38,51)=k(0,5):_ZN11stlpmtx_std18__char_traits_baseIwiE4findEPKwmRS2_;2A?;move::(38,52)=f(38,53)=*(0,5):_ZN11stlpmtx_std18__char_traits_baseIwiE4moveEPwPKwm;2A?;copy::(38,52):_ZN11stlpmtx_std18__char_traits_baseIwiE4copyEPwPKwm;2A?;assign::(38,54)=f(38,53):_ZN11stlpmtx_std18__char_traits_baseIwiE6assignEPwmw;2A?;not_eof::(38,55)=f(7,1):_ZN11stlpmtx_std18__char_traits_baseIwiE7not_eofERKi;2A?;to_char_type::(38,56)=f(0,5):_ZN11stlpmtx_std18__char_traits_baseIwiE12to_char_typeERKi;2A?;to_int_type::(38,57)=f(7,1):_ZN11stlpmtx_std18__char_traits_baseIwiE11to_int_typeERKw;2A?;eq_int_type::(38,58)=f(0,4):_ZN11stlpmtx_std18__char_traits_baseIwiE11eq_int_typeERKiS3_;2A?;eof::(38,59)=f(7,1):_ZN11stlpmtx_std18__char_traits_baseIwiE3eofEv;2A?;operator=::(38,60)=#(38,44),(38,61)=&(38,44),(38,62)=*(38,44),(38,63)=&(38,64)=k(38,44),(0,6);:_ZN11stlpmtx_std18__char_traits_baseIwiEaSERKS1_;2A.;__base_ctor::(38,65)=#(38,44),(0,6),(38,62),(38,63),(0,6);:_ZN11stlpmtx_std18__char_traits_baseIwiEC2ERKS1_;2A.;__comp_ctor::(38,65):_ZN11stlpmtx_std18__char_traits_baseIwiEC1ERKS1_;2A.;__base_ctor::(38,66)=#(38,44),(0,6),(38,62),(0,6);:_ZN11stlpmtx_std18__char_traits_baseIwiEC2Ev;2A.;__comp_ctor::(38,66):_ZN11stlpmtx_std18__char_traits_baseIwiEC1Ev;2A.;;",128,0,132,0
	.stabs	"char_traits<wchar_t>:Tt(38,67)=s1!1,020,(38,44);move::(38,68)=f(38,53):_ZN11stlpmtx_std11char_traitsIwE4moveEPwPKwm;2A?;copy::(38,68):_ZN11stlpmtx_std11char_traitsIwE4copyEPwPKwm;2A?;compare::(38,69)=f(0,3):_ZN11stlpmtx_std11char_traitsIwE7compareEPKwS3_m;2A?;assign::(38,70)=f(38,53):_ZN11stlpmtx_std11char_traitsIwE6assignEPwmw;2A?;length::(38,48):_ZN11stlpmtx_std11char_traitsIwE6lengthEPKw;2A?;assign::(38,45):_ZN11stlpmtx_std11char_traitsIwE6assignERwRKw;2A?;operator=::(38,71)=#(38,67),(38,72)=&(38,67),(38,73)=*(38,67),(38,74)=&(38,75)=k(38,67),(0,6);:_ZN11stlpmtx_std11char_traitsIwEaSERKS1_;2A.;__base_ctor::(38,76)=#(38,67),(0,6),(38,73),(38,74),(0,6);:_ZN11stlpmtx_std11char_traitsIwEC2ERKS1_;2A.;__comp_ctor::(38,76):_ZN11stlpmtx_std11char_traitsIwEC1ERKS1_;2A.;__base_ctor::(38,77)=#(38,67),(0,6),(38,73),(0,6);:_ZN11stlpmtx_std11char_traitsIwEC2Ev;2A.;__comp_ctor::(38,77):_ZN11stlpmtx_std11char_traitsIwEC1Ev;2A.;;",128,0,244,0
	.stabn	162,0,0,0
	.stabs	"ios:t(37,1)=(37,2)=xsbasic_ios<char,stlpmtx_std::char_traits<char> >:",128,0,78,0
	.stabs	"wios:t(37,3)=(37,4)=xsbasic_ios<wchar_t,stlpmtx_std::char_traits<wchar_t> >:",128,0,81,0
	.stabs	"istream:t(37,5)=(37,6)=xsbasic_istream<char,stlpmtx_std::char_traits<char> >:",128,0,120,0
	.stabs	"ostream:t(37,7)=(37,8)=xsbasic_ostream<char,stlpmtx_std::char_traits<char> >:",128,0,121,0
	.stabs	"iostream:t(37,9)=(37,10)=xsbasic_iostream<char,stlpmtx_std::char_traits<char> >:",128,0,122,0
	.stabs	"streambuf:t(37,11)=(37,12)=xsbasic_streambuf<char,stlpmtx_std::char_traits<char> >:",128,0,123,0
	.stabs	"stringbuf:t(37,13)=(37,14)=xsbasic_stringbuf<char,stlpmtx_std::char_traits<char>,stlpmtx_std::allocator<char> >:",128,0,125,0
	.stabs	"istringstream:t(37,15)=(37,16)=xsbasic_istringstream<char,stlpmtx_std::char_traits<char>,stlpmtx_std::allocator<char> >:",128,0,126,0
	.stabs	"ostringstream:t(37,17)=(37,18)=xsbasic_ostringstream<char,stlpmtx_std::char_traits<char>,stlpmtx_std::allocator<char> >:",128,0,127,0
	.stabs	"stringstream:t(37,19)=(37,20)=xsbasic_stringstream<char,stlpmtx_std::char_traits<char>,stlpmtx_std::allocator<char> >:",128,0,128,0
	.stabs	"filebuf:t(37,21)=(37,22)=xsbasic_filebuf<char,stlpmtx_std::char_traits<char> >:",128,0,130,0
	.stabs	"ifstream:t(37,23)=(37,24)=xsbasic_ifstream<char,stlpmtx_std::char_traits<char> >:",128,0,131,0
	.stabs	"ofstream:t(37,25)=(37,26)=xsbasic_ofstream<char,stlpmtx_std::char_traits<char> >:",128,0,132,0
	.stabs	"fstream:t(37,27)=(37,28)=xsbasic_fstream<char,stlpmtx_std::char_traits<char> >:",128,0,133,0
	.stabs	"wstreambuf:t(37,29)=(37,30)=xsbasic_streambuf<wchar_t,stlpmtx_std::char_traits<wchar_t> >:",128,0,137,0
	.stabs	"wistream:t(37,31)=(37,32)=xsbasic_istream<wchar_t,stlpmtx_std::char_traits<wchar_t> >:",128,0,138,0
	.stabs	"wostream:t(37,33)=(37,34)=xsbasic_ostream<wchar_t,stlpmtx_std::char_traits<wchar_t> >:",128,0,139,0
	.stabs	"wiostream:t(37,35)=(37,36)=xsbasic_iostream<wchar_t,stlpmtx_std::char_traits<wchar_t> >:",128,0,140,0
	.stabs	"wstringbuf:t(37,37)=(37,38)=xsbasic_stringbuf<wchar_t,stlpmtx_std::char_traits<wchar_t>,stlpmtx_std::allocator<wchar_t> >:",128,0,142,0
	.stabs	"wistringstream:t(37,39)=(37,40)=xsbasic_istringstream<wchar_t,stlpmtx_std::char_traits<wchar_t>,stlpmtx_std::allocator<wchar_t> >:",128,0,143,0
	.stabs	"wostringstream:t(37,41)=(37,42)=xsbasic_ostringstream<wchar_t,stlpmtx_std::char_traits<wchar_t>,stlpmtx_std::allocator<wchar_t> >:",128,0,144,0
	.stabs	"wstringstream:t(37,43)=(37,44)=xsbasic_stringstream<wchar_t,stlpmtx_std::char_traits<wchar_t>,stlpmtx_std::allocator<wchar_t> >:",128,0,145,0
	.stabs	"wfilebuf:t(37,45)=(37,46)=xsbasic_filebuf<wchar_t,stlpmtx_std::char_traits<wchar_t> >:",128,0,147,0
	.stabs	"wifstream:t(37,47)=(37,48)=xsbasic_ifstream<wchar_t,stlpmtx_std::char_traits<wchar_t> >:",128,0,148,0
	.stabs	"wofstream:t(37,49)=(37,50)=xsbasic_ofstream<wchar_t,stlpmtx_std::char_traits<wchar_t> >:",128,0,149,0
	.stabs	"wfstream:t(37,51)=(37,52)=xsbasic_fstream<wchar_t,stlpmtx_std::char_traits<wchar_t> >:",128,0,150,0
	.stabn	162,0,0,0
	.stabs	"string:t(36,1)=(36,2)=xsbasic_string<char,stlpmtx_std::char_traits<char>,stlpmtx_std::allocator<char> >:",128,0,40,0
	.stabs	"wstring:t(36,3)=(36,4)=xsbasic_string<wchar_t,stlpmtx_std::char_traits<wchar_t>,stlpmtx_std::allocator<wchar_t> >:",128,0,43,0
	.stabn	162,0,0,0
	.stabs	"_String_reserve_t:Tt(3,1)=s1operator=::(3,2)=#(3,1),(3,3)=&(3,1),(3,4)=*(3,1),(3,5)=&(3,6)=k(3,1),(0,6);:_ZN11stlpmtx_std4priv17_String_reserve_taSERKS1_;2A.;__base_ctor::(3,7)=#(3,1),(0,6),(3,4),(3,5),(0,6);:_ZN11stlpmtx_std4priv17_String_reserve_tC2ERKS1_;2A.;__comp_ctor::(3,7):_ZN11stlpmtx_std4priv17_String_reserve_tC1ERKS1_;2A.;__base_ctor::(3,8)=#(3,1),(0,6),(3,4),(0,6);:_ZN11stlpmtx_std4priv17_String_reserve_tC2Ev;2A.;__comp_ctor::(3,8):_ZN11stlpmtx_std4priv17_String_reserve_tC1Ev;2A.;;",128,0,99,0
	.stabs	"_String_base<char,stlpmtx_std::allocator<char> >::_Buffers:Tt(3,9)=u16_M_end_of_storage:(11,93),0,32;_M_static_buf:(3,10)=ar(12,11);0;15;(0,19),0,128;operator=::(3,11)=#(3,9),(3,12)=&(3,9),(3,13)=*(3,9),(3,14)=&(3,15)=k(3,9),(0,6);:_ZN11stlpmtx_std4priv12_String_baseIcNS_9allocatorIcEEE8_BuffersaSERKS5_;2A.;__base_ctor::(3,16)=#(3,9),(0,6),(3,13),(3,14),(0,6);:_ZN11stlpmtx_std4priv12_String_baseIcNS_9allocatorIcEEE8_BuffersC2ERKS5_;2A.;__comp_ctor::(3,16):_ZN11stlpmtx_std4priv12_String_baseIcNS_9allocatorIcEEE8_BuffersC1ERKS5_;2A.;__base_ctor::(3,17)=#(3,9),(0,6),(3,13),(0,6);:_ZN11stlpmtx_std4priv12_String_baseIcNS_9allocatorIcEEE8_BuffersC2Ev;2A.;__comp_ctor::(3,17):_ZN11stlpmtx_std4priv12_String_baseIcNS_9allocatorIcEEE8_BuffersC1Ev;2A.;;",128,0,54,0
	.stabs	"__stlport_class<stlpmtx_std::allocator<char> >:Tt(3,18)=s1operator=::(3,19)=#(3,18),(3,20)=&(3,18),(3,21)=*(3,18),(3,22)=&(3,23)=k(3,18),(0,6);:_ZN11stlpmtx_std15__stlport_classINS_9allocatorIcEEEaSERKS3_;2A.;__base_ctor::(3,24)=#(3,18),(0,6),(3,21),(3,22),(0,6);:_ZN11stlpmtx_std15__stlport_classINS_9allocatorIcEEEC2ERKS3_;2A.;__comp_ctor::(3,24):_ZN11stlpmtx_std15__stlport_classINS_9allocatorIcEEEC1ERKS3_;2A.;__base_ctor::(3,25)=#(3,18),(0,6),(3,21),(0,6);:_ZN11stlpmtx_std15__stlport_classINS_9allocatorIcEEEC2Ev;2A.;__comp_ctor::(3,25):_ZN11stlpmtx_std15__stlport_classINS_9allocatorIcEEEC1Ev;2A.;;",128,0,572,0
	.stabs	"allocator<char>:Tt(3,26)=s1!1,020,(3,18);__base_ctor::(3,27)=#(3,26),(0,6),(3,28)=*(3,26),(0,6);:_ZN11stlpmtx_std9allocatorIcEC2Ev;2A.;__comp_ctor::(3,27):_ZN11stlpmtx_std9allocatorIcEC1Ev;2A.;__base_ctor::(3,29)=#(3,26),(0,6),(3,28),(3,30)=&(3,31)=k(3,26),(0,6);:_ZN11stlpmtx_std9allocatorIcEC2ERKS1_;2A.;__comp_ctor::(3,29):_ZN11stlpmtx_std9allocatorIcEC1ERKS1_;2A.;__base_ctor::(3,32)=#(3,26),(0,6),(3,28),(3,33)=xs__move_source<stlpmtx_std::allocator<char> >:,(0,6);:_ZN11stlpmtx_std9allocatorIcEC2ENS_13__move_sourceIS1_EE;2A.;__comp_ctor::(3,32):_ZN11stlpmtx_std9allocatorIcEC1ENS_13__move_sourceIS1_EE;2A.;__base_dtor::(3,27):_ZN11stlpmtx_std9allocatorIcED2Ev;2A.;__comp_dtor::(3,27):_ZN11stlpmtx_std9allocatorIcED1Ev;2A.;address::(3,34)=#(3,26),(11,93),(3,35)=*(3,31),(3,36)=&(0,19),(0,6);:_ZNK11stlpmtx_std9allocatorIcE7addressERc;2B.(3,37)=#(3,26),(11,88),(3,35),(3,38)=&(11,89),(0,6);:_ZNK11stlpmtx_std9allocatorIcE7addressERKc;2B.;allocate::(3,39)=#(3,26),(11,93),(3,28),(0,16),(23,92),(0,6);:_ZN11stlpmtx_std9allocatorIcE8allocateEmPKv;2A.;deallocate::(3,40)=#(3,26),(0,6),(3,28),(11,93),(0,16),(0,6);:_ZN11stlpmtx_std9allocatorIcE10deallocateEPcm;2A.(3,41)=#(3,26),(0,6),(3,35),(11,93),(0,6);:_ZNK11stlpmtx_std9allocatorIcE10deallocateEPc;2B.;max_size::(3,42)=#(3,26),(7,2),(3,35),(0,6);:_ZNK11stlpmtx_std9allocatorIcE8max_sizeEv;2B.;construct::(3,43)=#(3,26),(0,6),(3,28),(11,93),(3,38),(0,6);:_ZN11stlpmtx_std9allocatorIcE9constructEPcRKc;2A.;destroy::(3,44)=#(3,26),(0,6),(3,28),(11,93),(0,6);:_ZN11stlpmtx_std9allocatorIcE7destroyEPc;2A.;_M_allocate::(3,45)=#(3,26),(11,93),(3,28),(0,16),(3,46)=&(7,2),(0,6);:_ZN11stlpmtx_std9allocatorIcE11_M_allocateEmRm;2A.;operator=::(3,47)=#(3,26),(3,48)=&(3,26),(3,28),(3,30),(0,6);:_ZN11stlpmtx_std9allocatorIcEaSERKS1_;2A.;;",128,0,275,0
	.stabs	"_STLP_alloc_proxy<char*,char,stlpmtx_std::allocator<char> >:Tt(3,49)=s4!1,020,(3,26);_M_data:(11,93),0,32;__base_ctor::(3,50)=#(3,49),(0,6),(3,51)=*(3,49),(3,30),(11,93),(0,6);:_ZN11stlpmtx_std4priv17_STLP_alloc_proxyIPccNS_9allocatorIcEEEC2ERKS4_S2_;2A.;__comp_ctor::(3,50):_ZN11stlpmtx_std4priv17_STLP_alloc_proxyIPccNS_9allocatorIcEEEC1ERKS4_S2_;2A.;__base_ctor::(3,52)=#(3,49),(0,6),(3,51),(3,53)=xs__move_source<stlpmtx_std::priv::_STLP_alloc_proxy<char*, char, stlpmtx_std::allocator<char> > >:,(0,6);:_ZN11stlpmtx_std4priv17_STLP_alloc_proxyIPccNS_9allocatorIcEEEC2ENS_13__move_sourceIS5_EE;2A.;__comp_ctor::(3,52):_ZN11stlpmtx_std4priv17_STLP_alloc_proxyIPccNS_9allocatorIcEEEC1ENS_13__move_sourceIS5_EE;2A.;_M_base::(3,54)=#(3,49),(3,48),(3,51),(0,6);:_ZN11stlpmtx_std4priv17_STLP_alloc_proxyIPccNS_9allocatorIcEEE7_M_baseEv;2A.;_M_swap_alloc::(3,55)=#(3,49),(0,6),(3,51),(3,56)=&(3,49),(23,5),(0,6);:_ZN11stlpmtx_std4priv17_STLP_alloc_proxyIPccNS_9allocatorIcEEE13_M_swap_allocERS5_RKNS_11__true_typeE;0A.(3,57)=#(3,49),(0,6),(3,51),(3,56),(23,13),(0,6);:_ZN11stlpmtx_std4priv17_STLP_alloc_proxyIPccNS_9allocatorIcEEE13_M_swap_allocERS5_RKNS_12__false_typeE;0A.(3,58)=#(3,49),(0,6),(3,51),(3,56),(0,6);:_ZN11stlpmtx_std4priv17_STLP_alloc_proxyIPccNS_9allocatorIcEEE13_M_swap_allocERS5_;2A.;swap::(3,58):_ZN11stlpmtx_std4priv17_STLP_alloc_proxyIPccNS_9allocatorIcEEE4swapERS5_;2A.;allocate::(3,59)=#(3,49),(11,93),(3,51),(0,16),(3,46),(0,6);:_ZN11stlpmtx_std4priv17_STLP_alloc_proxyIPccNS_9allocatorIcEEE8allocateEmRm;2A.(3,60)=#(3,49),(11,93),(3,51),(0,16),(0,6);:_ZN11stlpmtx_std4priv17_STLP_alloc_proxyIPccNS_9allocatorIcEEE8allocateEm;2A.(3,61)=#(3,49),(11,93),(3,51),(0,16),(3,46),(23,5),(0,6);:_ZN11stlpmtx_std4priv17_STLP_alloc_proxyIPccNS_9allocatorIcEEE8allocateEmRmRKNS_11__true_typeE;0A.(3,62)=#(3,49),(11,93),(3,51),(0,16),(3,46),(23,13),(0,6);:_ZN11stlpmtx_std4priv17_STLP_alloc_proxyIPccNS_9allocatorIcEEE8allocateEmRmRKNS_12__false_typeE;0A.;operator=::(3,63)=#(3,49),(3,56),(3,51),(3,64)=&(3,65)=k(3,49),(0,6);:_ZN11stlpmtx_std4priv17_STLP_alloc_proxyIPccNS_9allocatorIcEEEaSERKS5_;2A.;__base_ctor::(3,66)=#(3,49),(0,6),(3,51),(3,64),(0,6);:_ZN11stlpmtx_std4priv17_STLP_alloc_proxyIPccNS_9allocatorIcEEEC2ERKS5_;2A.;__comp_ctor::(3,66):_ZN11stlpmtx_std4priv17_STLP_alloc_proxyIPccNS_9allocatorIcEEEC1ERKS5_;2A.;__base_dtor::(3,67)=#(3,49),(0,6),(3,51),(0,6);:_ZN11stlpmtx_std4priv17_STLP_alloc_proxyIPccNS_9allocatorIcEEED2Ev;2A.;__comp_dtor::(3,67):_ZN11stlpmtx_std4priv17_STLP_alloc_proxyIPccNS_9allocatorIcEEED1Ev;2A.;;",128,0,472,0
	.stabs	"_String_base<char,stlpmtx_std::allocator<char> >:Tt(3,68)=s24_M_buffers:/0(3,9),0,128;_M_finish:/1(11,93),128,32;_M_start_of_storage:/1(3,49),160,32;_M_using_static_buf::(3,69)=#(3,68),(0,4),(3,70)=*(3,71)=k(3,68),(0,6);:_ZNK11stlpmtx_std4priv12_String_baseIcNS_9allocatorIcEEE19_M_using_static_bufEv;1B.;_M_Start::(3,72)=#(3,68),(11,88),(3,70),(0,6);:_ZNK11stlpmtx_std4priv12_String_baseIcNS_9allocatorIcEEE8_M_StartEv;1B.(3,73)=#(3,68),(11,93),(3,74)=*(3,68),(0,6);:_ZN11stlpmtx_std4priv12_String_baseIcNS_9allocatorIcEEE8_M_StartEv;1A.;_M_End::(3,72):_ZNK11stlpmtx_std4priv12_String_baseIcNS_9allocatorIcEEE6_M_EndEv;1B.(3,73):_ZN11stlpmtx_std4priv12_String_baseIcNS_9allocatorIcEEE6_M_EndEv;1A.;_M_capacity::(3,75)=#(3,68),(7,2),(3,70),(0,6);:_ZNK11stlpmtx_std4priv12_String_baseIcNS_9allocatorIcEEE11_M_capacityEv;1B.;_M_rest::(3,75):_ZNK11stlpmtx_std4priv12_String_baseIcNS_9allocatorIcEEE7_M_restEv;1B.;_M_Finish::(3,72):_ZNK11stlpmtx_std4priv12_String_baseIcNS_9allocatorIcEEE9_M_FinishEv;1B.(3,73):_ZN11stlpmtx_std4priv12_String_baseIcNS_9allocatorIcEEE9_M_FinishEv;1A.;_M_allocate_block::(3,76)=#(3,68),(0,6),(3,74),(0,16),(0,6);:_ZN11stlpmtx_std4priv12_String_baseIcNS_9allocatorIcEEE17_M_allocate_blockEm;1A.;_M_deallocate_block::(3,77)=#(3,68),(0,6),(3,74),(0,6);:_ZN11stlpmtx_std4priv12_String_baseIcNS_9allocatorIcEEE19_M_deallocate_blockEv;1A.;max_size::(3,75):_ZNK11stlpmtx_std4priv12_String_baseIcNS_9allocatorIcEEE8max_sizeEv;1B.;__base_ctor::(3,78)=#(3,68),(0,6),(3,74),(3,30),(0,6);:_ZN11stlpmtx_std4priv12_String_baseIcNS_9allocatorIcEEEC2ERKS3_;1A.;__comp_ctor::(3,78):_ZN11stlpmtx_std4priv12_String_baseIcNS_9allocatorIcEEEC1ERKS3_;1A.;__base_ctor::(3,79)=#(3,68),(0,6),(3,74),(3,30),(0,16),(0,6);:_ZN11stlpmtx_std4priv12_String_baseIcNS_9allocatorIcEEEC2ERKS3_m;1A.;__comp_ctor::(3,79):_ZN11stlpmtx_std4priv12_String_baseIcNS_9allocatorIcEEEC1ERKS3_m;1A.;_M_move_src::(3,80)=#(3,68),(0,6),(3,74),(3,81)=&(3,68),(0,6);:_ZN11stlpmtx_std4priv12_String_baseIcNS_9allocatorIcEEE11_M_move_srcERS4_;1A.;__base_ctor::(3,82)=#(3,68),(0,6),(3,74),(3,83)=xs__move_source<stlpmtx_std::priv::_String_base<char, stlpmtx_std::allocator<char> > >:,(0,6);:_ZN11stlpmtx_std4priv12_String_baseIcNS_9allocatorIcEEEC2ENS_13__move_sourceIS4_EE;1A.;__comp_ctor::(3,82):_ZN11stlpmtx_std4priv12_String_baseIcNS_9allocatorIcEEEC1ENS_13__move_sourceIS4_EE;1A.;__base_dtor::(3,77):_ZN11stlpmtx_std4priv12_String_baseIcNS_9allocatorIcEEED2Ev;1A.;__comp_dtor::(3,77):_ZN11stlpmtx_std4priv12_String_baseIcNS_9allocatorIcEEED1Ev;1A.;_M_reset::(3,84)=#(3,68),(0,6),(3,74),(11,93),(11,93),(11,93),(0,6);:_ZN11stlpmtx_std4priv12_String_baseIcNS_9allocatorIcEEE8_M_resetEPcS5_S5_;1A.;_M_swap::(3,80):_ZN11stlpmtx_std4priv12_String_baseIcNS_9allocatorIcEEE7_M_swapERS4_;1A.;_M_throw_length_error::(3,85)=#(3,68),(0,6),(3,70),(0,6);:_ZNK11stlpmtx_std4priv12_String_baseIcNS_9allocatorIcEEE21_M_throw_length_errorEv;1B.;_M_throw_out_of_range::(3,85):_ZNK11stlpmtx_std4priv12_String_baseIcNS_9allocatorIcEEE21_M_throw_out_of_rangeEv;1B.;operator=::(3,86)=#(3,68),(3,81),(3,74),(3,87)=&(3,71),(0,6);:_ZN11stlpmtx_std4priv12_String_baseIcNS_9allocatorIcEEEaSERKS4_;2A.;__base_ctor::(3,88)=#(3,68),(0,6),(3,74),(3,87),(0,6);:_ZN11stlpmtx_std4priv12_String_baseIcNS_9allocatorIcEEEC2ERKS4_;2A.;__comp_ctor::(3,88):_ZN11stlpmtx_std4priv12_String_baseIcNS_9allocatorIcEEEC1ERKS4_;2A.;;",128,0,41,0
	.stabs	"basic_string<char,stlpmtx_std::char_traits<char>,stlpmtx_std::allocator<char> >:Tt(36,2)=s24!1,000,(3,68);npos:/2(3,89)=k(7,2):_ZN11stlpmtx_std12basic_stringIcNS_11char_traitsIcEENS_9allocatorIcEEE4nposE;get_allocator::(3,90)=#(36,2),(3,26),(3,91)=*(3,92)=k(36,2),(0,6);:_ZNK11stlpmtx_std12basic_stringIcNS_11char_traitsIcEENS_9allocatorIcEEE13get_allocatorEv;2B.;__base_ctor::(3,93)=#(36,2),(0,6),(3,94)=*(36,2),(3,30),(0,6);:_ZN11stlpmtx_std12basic_stringIcNS_11char_traitsIcEENS_9allocatorIcEEEC2ERKS4_;2A.;__comp_ctor::(3,93):_ZN11stlpmtx_std12basic_stringIcNS_11char_traitsIcEENS_9allocatorIcEEEC1ERKS4_;2A.;__base_ctor::(3,95)=#(36,2),(0,6),(3,94),(3,1),(0,16),(3,30),(0,6);:_ZN11stlpmtx_std12basic_stringIcNS_11char_traitsIcEENS_9allocatorIcEEEC2ENS_4priv17_String_reserve_tEmRKS4_;2A.;__comp_ctor::(3,95):_ZN11stlpmtx_std12basic_stringIcNS_11char_traitsIcEENS_9allocatorIcEEEC1ENS_4priv17_String_reserve_tEmRKS4_;2A.;__base_ctor::(3,96)=#(36,2),(0,6),(3,94),(3,97)=&(3,92),(0,6);:_ZN11stlpmtx_std12basic_stringIcNS_11char_traitsIcEENS_9allocatorIcEEEC2ERKS5_;2A.;__comp_ctor::(3,96):_ZN11stlpmtx_std12basic_stringIcNS_11char_traitsIcEENS_9allocatorIcEEEC1ERKS5_;2A.;__base_ctor::(3,98)=#(36,2),(0,6),(3,94),(3,97),(0,16),(0,16),(3,30),(0,6);:_ZN11stlpmtx_std12basic_stringIcNS_11char_traitsIcEENS_9allocatorIcEEEC2ERKS5_mmRKS4_;2A.;__comp_ctor::(3,98):_ZN11stlpmtx_std12basic_stringIcNS_11char_traitsIcEENS_9allocatorIcEEEC1ERKS5_mmRKS4_;2A.;__base_ctor::(3,99)=#(36,2),(0,6),(3,94),(11,88),(0,16),(3,30),(0,6);:_ZN11stlpmtx_std12basic_stringIcNS_11char_traitsIcEENS_9allocatorIcEEEC2EPKcmRKS4_;2A.;__comp_ctor::(3,99):_ZN11stlpmtx_std12basic_stringIcNS_11char_traitsIcEENS_9allocatorIcEEEC1EPKcmRKS4_;2A.;__base_ctor::(3,100)=#(36,2),(0,6),(3,94),(11,88),(3,30),(0,6);:_ZN11stlpmtx_std12basic_stringIcNS_11char_traitsIcEENS_9allocatorIcEEEC2EPKcRKS4_;2A.;__comp_ctor::(3,100):_ZN11stlpmtx_std12basic_stringIcNS_11char_traitsIcEENS_9allocatorIcEEEC1EPKcRKS4_;2A.;__base_ctor::(3,101)=#(36,2),(0,6),(3,94),(0,16),(0,19),(3,30),(0,6);:_ZN11stlpmtx_std12basic_stringIcNS_11char_traitsIcEENS_9allocatorIcEEEC2EmcRKS4_;2A.;__comp_ctor::(3,101):_ZN11stlpmtx_std12basic_stringIcNS_11char_traitsIcEENS_9allocatorIcEEEC1EmcRKS4_;2A.;__base_ctor::(3,102)=#(36,2),(0,6),(3,94),(3,103)=xs__move_source<stlpmtx_std::basic_string<char, stlpmtx_std::char_traits<char>, stlpmtx_std::allocator<char> > >:,(0,6);:_ZN11stlpmtx_std12basic_stringIcNS_11char_traitsIcEENS_9allocatorIcEEEC2ENS_13__move_sourceIS5_EE;2A.;__comp_ctor::(3,102):_ZN11stlpmtx_std12basic_stringIcNS_11char_traitsIcEENS_9allocatorIcEEEC1ENS_13__move_sourceIS5_EE;2A.;_M_compute_next_size::(3,104)=#(36,2),(7,2),(3,94),(0,16),(0,6);:_ZN11stlpmtx_std12basic_stringIcNS_11char_traitsIcEENS_9allocatorIcEEE20_M_compute_next_sizeEm;0A.;operator=::(3,105)=#(36,2),(3,106)=&(36,2),(3,94),(3,97),(0,6);:_ZN11stlpmtx_std12basic_stringIcNS_11char_traitsIcEENS_9allocatorIcEEEaSERKS5_;2A.(3,107)=#(36,2),(3,106),(3,94),(11,88),(0,6);:_ZN11stlpmtx_std12basic_stringIcNS_11char_traitsIcEENS_9allocatorIcEEEaSEPKc;2A.(3,108)=#(36,2),(3,106),(3,94),(0,19),(0,6);:_ZN11stlpmtx_std12basic_stringIcNS_11char_traitsIcEENS_9allocatorIcEEEaSEc;2A.;_M_null::(3,109)=f(0,19):_ZN11stlpmtx_std12basic_stringIcNS_11char_traitsIcEENS_9allocatorIcEEE7_M_nullEv;0A?;_M_construct_null::(3,110)=#(36,2),(0,6),(3,91),(11,93),(0,6);:_ZNK11stlpmtx_std12basic_stringIcNS_11char_traitsIcEENS_9allocatorIcEEE17_M_construct_nullEPc;0B.;_M_terminate_string::(3,111)=#(36,2),(0,6),(3,94),(0,6);:_ZN11stlpmtx_std12basic_stringIcNS_11char_traitsIcEENS_9allocatorIcEEE19_M_terminate_stringEv;0A.;_M_inside::(3,112)=#(36,2),(0,4),(3,91),(11,88),(0,6);:_ZNK11stlpmtx_std12basic_stringIcNS_11char_traitsIcEENS_9allocatorIcEEE9_M_insideEPKc;0B.;_M_range_initialize::(3,113)=#(36,2),(0,6),(3,94),(11,88),(11,88),(0,6);:_ZN11stlpmtx_std12basic_stringIcNS_11char_traitsIcEENS_9allocatorIcEEE19_M_range_initializeEPKcS7_;0A.;begin::(3,114)=#(36,2),(11,93),(3,94),(0,6);:_ZN11stlpmtx_std12basic_stringIcNS_11char_traitsIcEENS_9allocatorIcEEE5beginEv;2A.;end::(3,114):_ZN11stlpmtx_std12basic_stringIcNS_11char_traitsIcEENS_9allocatorIcEEE3endEv;2A.;begin::(3,115)=#(36,2),(11,88),(3,91),(0,6);:_ZNK11stlpmtx_std12basic_stringIcNS_11char_traitsIcEENS_9allocatorIcEEE5beginEv;2B.;end::(3,115):_ZNK11stlpmtx_std12basic_stringIcNS_11char_traitsIcEENS_9allocatorIcEEE3endEv;2B.;rbegin::(3,116)=#(36,2),(3,117)=xsreverse_iterator<char*>:,(3,94),(0,6);:_ZN11stlpmtx_std12basic_stringIcNS_11char_traitsIcEENS_9allocatorIcEEE6rbeginEv;2A.;rend::(3,116):_ZN11stlpmtx_std12basic_stringIcNS_11char_traitsIcEENS_9allocatorIcEEE4rendEv;2A.;rbegin::(3,118)=#(36,2),(3,119)=xsreverse_iterator<const char*>:,(3,91),(0,6);:_ZNK11stlpmtx_std12basic_stringIcNS_11char_traitsIcEENS_9allocatorIcEEE6rbeginEv;2B.;rend::(3,118):_ZNK11stlpmtx_std12basic_stringIcNS_11char_traitsIcEENS_9allocatorIcEEE4rendEv;2B.;size::(3,120)=#(36,2),(7,2),(3,91),(0,6);:_ZNK11stlpmtx_std12basic_stringIcNS_11char_traitsIcEENS_9allocatorIcEEE4sizeEv;2B.;length::(3,120):_ZNK11stlpmtx_std12basic_stringIcNS_11char_traitsIcEENS_9allocatorIcEEE6lengthEv;2B.;max_size::(3,120):_ZNK11stlpmtx_std12basic_stringIcNS_11char_traitsIcEENS_9allocatorIcEEE8max_sizeEv;2B.;resize::(3,121)=#(36,2),(0,6),(3,94),(0,16),(0,19),(0,6);:_ZN11stlpmtx_std12basic_stringIcNS_11char_traitsIcEENS_9allocatorIcEEE6resizeEmc;2A.(3,122)=#(36,2),(0,6),(3,94),(0,16),(0,6);:_ZN11stlpmtx_std12basic_stringIcNS_11char_traitsIcEENS_9allocatorIcEEE6resizeEm;2A.;_M_reserve::(3,122):_ZN11stlpmtx_std12basic_stringIcNS_11char_traitsIcEENS_9allocatorIcEEE10_M_reserveEm;0A.;reserve::(3,123)=#(36,2),(0,6),(3,94),(0,16),(0,6);:_ZN11stlpmtx_std12basic_stringIcNS_11char_traitsIcEENS_9allocatorIcEEE7reserveEm;2A.;capacity::(3,120):_ZNK11stlpmtx_std12basic_stringIcNS_11char_traitsIcEENS_9allocatorIcEEE8capacityEv;2B.;clear::(3,111):_ZN11stlpmtx_std12basic_stringIcNS_11char_traitsIcEENS_9allocatorIcEEE5clearEv;2A.;empty::(3,124)=#(36,2),(0,4),(3,91),(0,6);:_ZNK11stlpmtx_std12basic_stringIcNS_11char_traitsIcEENS_9allocatorIcEEE5emptyEv;2B.;operator[]::(3,125)=#(36,2),(3,38),(3,91),(0,16),(0,6);:_ZNK11stlpmtx_std12basic_stringIcNS_11char_traitsIcEENS_9allocatorIcEEEixEm;2B.(3,126)=#(36,2),(3,36),(3,94),(0,16),(0,6);:_ZN11stlpmtx_std12basic_stringIcNS_11char_traitsIcEENS_9allocatorIcEEEixEm;2A.;at::(3,125):_ZNK11stlpmtx_std12basic_stringIcNS_11char_traitsIcEENS_9allocatorIcEEE2atEm;2B.(3,126):_ZN11stlpmtx_std12basic_stringIcNS_11char_traitsIcEENS_9allocatorIcEEE2atEm;2A.;operator+=::(3,105):_ZN11stlpmtx_std12basic_stringIcNS_11char_traitsIcEENS_9allocatorIcEEEpLERKS5_;2A.(3,107):_ZN11stlpmtx_std12basic_stringIcNS_11char_traitsIcEENS_9allocatorIcEEEpLEPKc;2A.(3,108):_ZN11stlpmtx_std12basic_stringIcNS_11char_traitsIcEENS_9allocatorIcEEEpLEc;2A.;_M_append::(3,127)=#(36,2),(3,106),(3,94),(11,88),(11,88),(0,6);:_ZN11stlpmtx_std12basic_stringIcNS_11char_traitsIcEENS_9allocatorIcEEE9_M_appendEPKcS7_;0A.;append::(3,105):_ZN11stlpmtx_std12basic_stringIcNS_11char_traitsIcEENS_9allocatorIcEEE6appendERKS5_;2A.(3,128)=#(36,2),(3,106),(3,94),(3,97),(0,16),(0,16),(0,6);:_ZN11stlpmtx_std12basic_stringIcNS_11char_traitsIcEENS_9allocatorIcEEE6appendERKS5_mm;2A.(3,129)=#(36,2),(3,106),(3,94),(11,88),(0,16),(0,6);:_ZN11stlpmtx_std12basic_stringIcNS_11char_traitsIcEENS_9allocatorIcEEE6appendEPKcm;2A.(3,107):_ZN11stlpmtx_std12basic_stringIcNS_11char_traitsIcEENS_9allocatorIcEEE6appendEPKc;2A.(3,130)=#(36,2),(3,106),(3,94),(0,16),(0,19),(0,6);:_ZN11stlpmtx_std12basic_stringIcNS_11char_traitsIcEENS_9allocatorIcEEE6appendEmc;2A.;push_back::(3,131)=#(36,2),(0,6),(3,94),(0,19),(0,6);:_ZN11stlpmtx_std12basic_stringIcNS_11char_traitsIcEENS_9allocatorIcEEE9push_backEc;2A.;pop_back::(3,111):_ZN11stlpmtx_std12basic_stringIcNS_11char_traitsIcEENS_9allocatorIcEEE8pop_backEv;2A.;assign::(3,105):_ZN11stlpmtx_std12basic_stringIcNS_11char_traitsIcEENS_9allocatorIcEEE6assignERKS5_;2A.(3,128):_ZN11stlpmtx_std12basic_stringIcNS_11char_traitsIcEENS_9allocatorIcEEE6assignERKS5_mm;2A.(3,129):_ZN11stlpmtx_std12basic_stringIcNS_11char_traitsIcEENS_9allocatorIcEEE6assignEPKcm;2A.(3,107):_ZN11stlpmtx_std12basic_stringIcNS_11char_traitsIcEENS_9allocatorIcEEE6assignEPKc;2A.(3,130):_ZN11stlpmtx_std12basic_stringIcNS_11char_traitsIcEENS_9allocatorIcEEE6assignEmc;2A.;_M_assign::(3,127):_ZN11stlpmtx_std12basic_stringIcNS_11char_traitsIcEENS_9allocatorIcEEE9_M_assignEPKcS7_;0A.;insert::(3,132)=#(36,2),(3,106),(3,94),(0,16),(3,97),(0,6);:_ZN11stlpmtx_std12basic_stringIcNS_11char_traitsIcEENS_9allocatorIcEEE6insertEmRKS5_;2A.(3,133)=#(36,2),(3,106),(3,94),(0,16),(3,97),(0,16),(0,16),(0,6);:_ZN11stlpmtx_std12basic_stringIcNS_11char_traitsIcEENS_9allocatorIcEEE6insertEmRKS5_mm;2A.(3,134)=#(36,2),(3,106),(3,94),(0,16),(11,88),(0,16),(0,6);:_ZN11stlpmtx_std12basic_stringIcNS_11char_traitsIcEENS_9allocatorIcEEE6insertEmPKcm;2A.(3,135)=#(36,2),(3,106),(3,94),(0,16),(11,88),(0,6);:_ZN11stlpmtx_std12basic_stringIcNS_11char_traitsIcEENS_9allocatorIcEEE6insertEmPKc;2A.(3,136)=#(36,2),(3,106),(3,94),(0,16),(0,16),(0,19),(0,6);:_ZN11stlpmtx_std12basic_stringIcNS_11char_traitsIcEENS_9allocatorIcEEE6insertEmmc;2A.(3,137)=#(36,2),(11,93),(3,94),(11,93),(0,19),(0,6);:_ZN11stlpmtx_std12basic_stringIcNS_11char_traitsIcEENS_9allocatorIcEEE6insertEPcc;2A.(3,138)=#(36,2),(0,6),(3,94),(11,93),(0,16),(0,19),(0,6);:_ZN11stlpmtx_std12basic_stringIcNS_11char_traitsIcEENS_9allocatorIcEEE6insertEPcmc;2A.;_M_insert::(3,139)=#(36,2),(0,6),(3,94),(11,93),(11,88),(11,88),(0,4),(0,6);:_ZN11stlpmtx_std12basic_stringIcNS_11char_traitsIcEENS_9allocatorIcEEE9_M_insertEPcPKcS8_b;0A.;_M_insert_aux::(3,137):_ZN11stlpmtx_std12basic_stringIcNS_11char_traitsIcEENS_9allocatorIcEEE13_M_insert_auxEPcc;0A.;_M_copy::(3,140)=#(36,2),(0,6),(3,94),(11,88),(11,88),(11,93),(0,6);:_ZN11stlpmtx_std12basic_stringIcNS_11char_traitsIcEENS_9allocatorIcEEE7_M_copyEPKcS7_Pc;0A.;_M_move::(3,140):_ZN11stlpmtx_std12basic_stringIcNS_11char_traitsIcEENS_9allocatorIcEEE7_M_moveEPKcS7_Pc;0A.;_M_copyT::(3,140):_ZN11stlpmtx_std12basic_stringIcNS_11char_traitsIcEENS_9allocatorIcEEE8_M_copyTEPKcS7_Pc;0A.;insert::(3,141)=#(36,2),(0,6),(3,94),(11,93),(11,88),(11,88),(0,6);:_ZN11stlpmtx_std12basic_stringIcNS_11char_traitsIcEENS_9allocatorIcEEE6insertEPcPKcS8_;2A.;erase::(3,142)=#(36,2),(3,106),(3,94),(0,16),(0,16),(0,6);:_ZN11stlpmtx_std12basic_stringIcNS_11char_traitsIcEENS_9allocatorIcEEE5eraseEmm;2A.(3,143)=#(36,2),(11,93),(3,94),(11,93),(0,6);:_ZN11stlpmtx_std12basic_stringIcNS_11char_traitsIcEENS_9allocatorIcEEE5eraseEPc;2A.(3,144)=#(36,2),(11,93),(3,94),(11,93),(11,93),(0,6);:_ZN11stlpmtx_std12basic_stringIcNS_11char_traitsIcEENS_9allocatorIcEEE5eraseEPcS6_;2A.;replace::(3,145)=#(36,2),(3,106),(3,94),(0,16),(0,16),(3,97),(0,6);:_ZN11stlpmtx_std12basic_stringIcNS_11char_traitsIcEENS_9allocatorIcEEE7replaceEmmRKS5_;2A.(3,146)=#(36,2),(3,106),(3,94),(0,16),(0,16),(3,97),(0,16),(0,16),(0,6);:_ZN11stlpmtx_std12basic_stringIcNS_11char_traitsIcEENS_9allocatorIcEEE7replaceEmmRKS5_mm;2A.(3,147)=#(36,2),(3,106),(3,94),(0,16),(0,16),(11,88),(0,16),(0,6);:_ZN11stlpmtx_std12basic_stringIcNS_11char_traitsIcEENS_9allocatorIcEEE7replaceEmmPKcm;2A.(3,148)=#(36,2),(3,106),(3,94),(0,16),(0,16),(11,88),(0,6);:_ZN11stlpmtx_std12basic_stringIcNS_11char_traitsIcEENS_9allocatorIcEEE7replaceEmmPKc;2A.(3,149)=#(36,2),(3,106),(3,94),(0,16),(0,16),(0,16),(0,19),(0,6);:_ZN11stlpmtx_std12basic_stringIcNS_11char_traitsIcEENS_9allocatorIcEEE7replaceEmmmc;2A.(3,150)=#(36,2),(3,106),(3,94),(11,93),(11,93),(3,97),(0,6);:_ZN11stlpmtx_std12basic_stringIcNS_11char_traitsIcEENS_9allocatorIcEEE7replaceEPcS6_RKS5_;2A.(3,151)=#(36,2),(3,106),(3,94),(11,93),(11,93),(11,88),(0,16),(0,6);:_ZN11stlpmtx_std12basic_stringIcNS_11char_traitsIcEENS_9allocatorIcEEE7replaceEPcS6_PKcm;2A.(3,152)=#(36,2),(3,106),(3,94),(11,93),(11,93),(11,88),(0,6);:_ZN11stlpmtx_std12basic_stringIcNS_11char_traitsIcEENS_9allocatorIcEEE7replaceEPcS6_PKc;2A.(3,153)=#(36,2),(3,106),(3,94),(11,93),(11,93),(0,16),(0,19),(0,6);:_ZN11stlpmtx_std12basic_stringIcNS_11char_traitsIcEENS_9allocatorIcEEE7replaceEPcS6_mc;2A.;_M_replace::(3,154)=#(36,2),(3,106),(3,94),(11,93),(11,93),(11,88),(11,88),(0,4),(0,6);:_ZN11stlpmtx_std12basic_stringIcNS_11char_traitsIcEENS_9allocatorIcEEE10_M_replaceEPcS6_PKcS8_b;0A.;replace::(3,155)=#(36,2),(3,106),(3,94),(11,93),(11,93),(11,88),(11,88),(0,6);:_ZN11stlpmtx_std12basic_stringIcNS_11char_traitsIcEENS_9allocatorIcEEE7replaceEPcS6_PKcS8_;2A.;copy::(3,156)=#(36,2),(7,2),(3,91),(11,93),(0,16),(0,16),(0,6);:_ZNK11stlpmtx_std12basic_stringIcNS_11char_traitsIcEENS_9allocatorIcEEE4copyEPcmm;2B.;swap::(3,157)=#(36,2),(0,6),(3,94),(3,106),(0,6);:_ZN11stlpmtx_std12basic_stringIcNS_11char_traitsIcEENS_9allocatorIcEEE4swapERS5_;2A.;c_str::(3,115):_ZNK11stlpmtx_std12basic_stringIcNS_11char_traitsIcEENS_9allocatorIcEEE5c_strEv;2B.;data::(3,115):_ZNK11stlpmtx_std12basic_stringIcNS_11char_traitsIcEENS_9allocatorIcEEE4dataEv;2B.;find::(3,158)=#(36,2),(7,2),(3,91),(3,97),(0,16),(0,6);:_ZNK11stlpmtx_std12basic_stringIcNS_11char_traitsIcEENS_9allocatorIcEEE4findERKS5_m;2B.(3,159)=#(36,2),(7,2),(3,91),(11,88),(0,16),(0,6);:_ZNK11stlpmtx_std12basic_stringIcNS_11char_traitsIcEENS_9allocatorIcEEE4findEPKcm;2B.(3,160)=#(36,2),(7,2),(3,91),(11,88),(0,16),(0,16),(0,6);:_ZNK11stlpmtx_std12basic_stringIcNS_11char_traitsIcEENS_9allocatorIcEEE4findEPKcmm;2B.(3,161)=#(36,2),(7,2),(3,91),(0,19),(0,6);:_ZNK11stlpmtx_std12basic_stringIcNS_11char_traitsIcEENS_9allocatorIcEEE4findEc;2B.(3,162)=#(36,2),(7,2),(3,91),(0,19),(0,16),(0,6);:_ZNK11stlpmtx_std12basic_stringIcNS_11char_traitsIcEENS_9allocatorIcEEE4findEcm;2B.;rfind::(3,163)=#(36,2),(7,2),(3,91),(3,97),(0,16),(0,6);:_ZNK11stlpmtx_std12basic_stringIcNS_11char_traitsIcEENS_9allocatorIcEEE5rfindERKS5_m;2B.(3,164)=#(36,2),(7,2),(3,91),(11,88),(0,16),(0,6);:_ZNK11stlpmtx_std12basic_stringIcNS_11char_traitsIcEENS_9allocatorIcEEE5rfindEPKcm;2B.(3,160):_ZNK11stlpmtx_std12basic_stringIcNS_11char_traitsIcEENS_9allocatorIcEEE5rfindEPKcmm;2B.(3,165)=#(36,2),(7,2),(3,91),(0,19),(0,16),(0,6);:_ZNK11stlpmtx_std12basic_stringIcNS_11char_traitsIcEENS_9allocatorIcEEE5rfindEcm;2B.;find_first_of::(3,158):_ZNK11stlpmtx_std12basic_stringIcNS_11char_traitsIcEENS_9allocatorIcEEE13find_first_ofERKS5_m;2B.(3,159):_ZNK11stlpmtx_std12basic_stringIcNS_11char_traitsIcEENS_9allocatorIcEEE13find_first_ofEPKcm;2B.(3,160):_ZNK11stlpmtx_std12basic_stringIcNS_11char_traitsIcEENS_9allocatorIcEEE13find_first_ofEPKcmm;2B.(3,166)=#(36,2),(7,2),(3,91),(0,19),(0,16),(0,6);:_ZNK11stlpmtx_std12basic_stringIcNS_11char_traitsIcEENS_9allocatorIcEEE13find_first_ofEcm;2B.;find_last_of::(3,163):_ZNK11stlpmtx_std12basic_stringIcNS_11char_traitsIcEENS_9allocatorIcEEE12find_last_ofERKS5_m;2B.(3,164):_ZNK11stlpmtx_std12basic_stringIcNS_11char_traitsIcEENS_9allocatorIcEEE12find_last_ofEPKcm;2B.(3,160):_ZNK11stlpmtx_std12basic_stringIcNS_11char_traitsIcEENS_9allocatorIcEEE12find_last_ofEPKcmm;2B.(3,165):_ZNK11stlpmtx_std12basic_stringIcNS_11char_traitsIcEENS_9allocatorIcEEE12find_last_ofEcm;2B.;find_first_not_of::(3,158):_ZNK11stlpmtx_std12basic_stringIcNS_11char_traitsIcEENS_9allocatorIcEEE17find_first_not_ofERKS5_m;2B.(3,159):_ZNK11stlpmtx_std12basic_stringIcNS_11char_traitsIcEENS_9allocatorIcEEE17find_first_not_ofEPKcm;2B.(3,160):_ZNK11stlpmtx_std12basic_stringIcNS_11char_traitsIcEENS_9allocatorIcEEE17find_first_not_ofEPKcmm;2B.(3,166):_ZNK11stlpmtx_std12basic_stringIcNS_11char_traitsIcEENS_9allocatorIcEEE17find_first_not_ofEcm;2B.;find_last_not_of::(3,163):_ZNK11stlpmtx_std12basic_stringIcNS_11char_traitsIcEENS_9allocatorIcEEE16find_last_not_ofERKS5_m;2B.(3,164):_ZNK11stlpmtx_std12basic_stringIcNS_11char_traitsIcEENS_9allocatorIcEEE16find_last_not_ofEPKcm;2B.(3,160):_ZNK11stlpmtx_std12basic_stringIcNS_11char_traitsIcEENS_9allocatorIcEEE16find_last_not_ofEPKcmm;2B.(3,165):_ZNK11stlpmtx_std12basic_stringIcNS_11char_traitsIcEENS_9allocatorIcEEE16find_last_not_ofEcm;2B.;substr::(3,167)=#(36,2),(36,2),(3,91),(0,16),(0,16),(0,6);:_ZNK11stlpmtx_std12basic_stringIcNS_11char_traitsIcEENS_9allocatorIcEEE6substrEmm;2B.;compare::(3,168)=#(36,2),(0,3),(3,91),(3,97),(0,6);:_ZNK11stlpmtx_std12basic_stringIcNS_11char_traitsIcEENS_9allocatorIcEEE7compareERKS5_;2B.(3,169)=#(36,2),(0,3),(3,91),(0,16),(0,16),(3,97),(0,6);:_ZNK11stlpmtx_std12basic_stringIcNS_11char_traitsIcEENS_9allocatorIcEEE7compareEmmRKS5_;2B.(3,170)=#(36,2),(0,3),(3,91),(0,16),(0,16),(3,97),(0,16),(0,16),(0,6);:_ZNK11stlpmtx_std12basic_stringIcNS_11char_traitsIcEENS_9allocatorIcEEE7compareEmmRKS5_mm;2B.(3,171)=#(36,2),(0,3),(3,91),(11,88),(0,6);:_ZNK11stlpmtx_std12basic_stringIcNS_11char_traitsIcEENS_9allocatorIcEEE7compareEPKc;2B.(3,172)=#(36,2),(0,3),(3,91),(0,16),(0,16),(11,88),(0,6);:_ZNK11stlpmtx_std12basic_stringIcNS_11char_traitsIcEENS_9allocatorIcEEE7compareEmmPKc;2B.(3,173)=#(36,2),(0,3),(3,91),(0,16),(0,16),(11,88),(0,16),(0,6);:_ZNK11stlpmtx_std12basic_stringIcNS_11char_traitsIcEENS_9allocatorIcEEE7compareEmmPKcm;2B.;_M_compare::(3,174)=f(0,3):_ZN11stlpmtx_std12basic_stringIcNS_11char_traitsIcEENS_9allocatorIcEEE10_M_compareEPKcS7_S7_S7_;2A?;__base_dtor::(3,111):_ZN11stlpmtx_std12basic_stringIcNS_11char_traitsIcEENS_9allocatorIcEEED2Ev;2A.;__comp_dtor::(3,111):_ZN11stlpmtx_std12basic_stringIcNS_11char_traitsIcEENS_9allocatorIcEEED1Ev;2A.;;",128,0,32,0
	.stabs	"/Applications/MoSync/include/newlib/stlport/stl/_string.c",130,0,0,0
	.stabs	"/Applications/MoSync/include/newlib/stlport/stl/_function.h",130,0,0,0
	.stabs	"unary_function<long unsigned int,long unsigned int>:Tt(42,1)=s1__base_dtor::(42,2)=#(42,1),(0,6),(42,3)=*(42,1),(0,6);:_ZN11stlpmtx_std14unary_functionImmED2Ev;1A.;__comp_dtor::(42,2):_ZN11stlpmtx_std14unary_functionImmED1Ev;1A.;operator=::(42,4)=#(42,1),(42,5)=&(42,1),(42,3),(42,6)=&(42,7)=k(42,1),(0,6);:_ZN11stlpmtx_std14unary_functionImmEaSERKS1_;2A.;__base_ctor::(42,8)=#(42,1),(0,6),(42,3),(42,6),(0,6);:_ZN11stlpmtx_std14unary_functionImmEC2ERKS1_;2A.;__comp_ctor::(42,8):_ZN11stlpmtx_std14unary_functionImmEC1ERKS1_;2A.;__base_ctor::(42,9)=#(42,1),(0,6),(42,3),(0,6);:_ZN11stlpmtx_std14unary_functionImmEC2Ev;2A.;__comp_ctor::(42,9):_ZN11stlpmtx_std14unary_functionImmEC1Ev;2A.;;",128,0,40,0
	.stabs	"subtractive_rng:Tt(42,10)=s228!1,020,(42,1);_M_table:/0(42,11)=ar(12,11);0;54;(0,16),0,1760;_M_index1:/0(0,16),1760,32;_M_index2:/0(0,16),1792,32;operator()::(42,12)=#(42,10),(0,16),(42,13)=*(42,10),(0,16),(0,6);:_ZN11stlpmtx_std15subtractive_rngclEm;2A.;_M_initialize::(42,14)=#(42,10),(0,6),(42,13),(0,16),(0,6);:_ZN11stlpmtx_std15subtractive_rng13_M_initializeEm;2A.;__base_ctor::(42,15)=#(42,10),(0,6),(42,13),(0,17),(0,6);:_ZN11stlpmtx_std15subtractive_rngC2Ej;2A.;__comp_ctor::(42,15):_ZN11stlpmtx_std15subtractive_rngC1Ej;2A.;__base_ctor::(42,16)=#(42,10),(0,6),(42,13),(0,6);:_ZN11stlpmtx_std15subtractive_rngC2Ev;2A.;__comp_ctor::(42,16):_ZN11stlpmtx_std15subtractive_rngC1Ev;2A.;operator=::(42,17)=#(42,10),(42,18)=&(42,10),(42,13),(42,19)=&(42,20)=k(42,10),(0,6);:_ZN11stlpmtx_std15subtractive_rngaSERKS0_;2A.;__base_ctor::(42,21)=#(42,10),(0,6),(42,13),(42,19),(0,6);:_ZN11stlpmtx_std15subtractive_rngC2ERKS0_;2A.;__comp_ctor::(42,21):_ZN11stlpmtx_std15subtractive_rngC1ERKS0_;2A.;__base_dtor::(42,16):_ZN11stlpmtx_std15subtractive_rngD2Ev;2A.;__comp_dtor::(42,16):_ZN11stlpmtx_std15subtractive_rngD1Ev;2A.;;",128,0,388,0
	.stabn	162,0,0,0
	.stabn	162,0,0,0
	.stabn	162,0,0,0
	.stabs	"/Applications/MoSync/include/newlib/stlport/stl/_string_hash.h",130,0,0,0
	.stabs	"/Applications/MoSync/include/newlib/stlport/stl/_hash_fun.h",130,0,0,0
	.stabs	"hash<char*>:Tt(44,1)=s1operator()::(44,2)=#(44,1),(7,2),(44,3)=*(44,4)=k(44,1),(11,88),(0,6);:_ZNK11stlpmtx_std4hashIPcEclEPKc;2B.;operator=::(44,5)=#(44,1),(44,6)=&(44,1),(44,7)=*(44,1),(44,8)=&(44,4),(0,6);:_ZN11stlpmtx_std4hashIPcEaSERKS2_;2A.;__base_ctor::(44,9)=#(44,1),(0,6),(44,7),(44,8),(0,6);:_ZN11stlpmtx_std4hashIPcEC2ERKS2_;2A.;__comp_ctor::(44,9):_ZN11stlpmtx_std4hashIPcEC1ERKS2_;2A.;__base_ctor::(44,10)=#(44,1),(0,6),(44,7),(0,6);:_ZN11stlpmtx_std4hashIPcEC2Ev;2A.;__comp_ctor::(44,10):_ZN11stlpmtx_std4hashIPcEC1Ev;2A.;;",128,0,56,0
	.stabs	"hash<const char*>:Tt(44,11)=s1operator()::(44,12)=#(44,11),(7,2),(44,13)=*(44,14)=k(44,11),(11,88),(0,6);:_ZNK11stlpmtx_std4hashIPKcEclES2_;2B.;operator=::(44,15)=#(44,11),(44,16)=&(44,11),(44,17)=*(44,11),(44,18)=&(44,14),(0,6);:_ZN11stlpmtx_std4hashIPKcEaSERKS3_;2A.;__base_ctor::(44,19)=#(44,11),(0,6),(44,17),(44,18),(0,6);:_ZN11stlpmtx_std4hashIPKcEC2ERKS3_;2A.;__comp_ctor::(44,19):_ZN11stlpmtx_std4hashIPKcEC1ERKS3_;2A.;__base_ctor::(44,20)=#(44,11),(0,6),(44,17),(0,6);:_ZN11stlpmtx_std4hashIPKcEC2Ev;2A.;__comp_ctor::(44,20):_ZN11stlpmtx_std4hashIPKcEC1Ev;2A.;;",128,0,64,0
	.stabs	"hash<char>:Tt(44,21)=s1operator()::(44,22)=#(44,21),(7,2),(44,23)=*(44,24)=k(44,21),(0,19),(0,6);:_ZNK11stlpmtx_std4hashIcEclEc;2B.;operator=::(44,25)=#(44,21),(44,26)=&(44,21),(44,27)=*(44,21),(44,28)=&(44,24),(0,6);:_ZN11stlpmtx_std4hashIcEaSERKS1_;2A.;__base_ctor::(44,29)=#(44,21),(0,6),(44,27),(44,28),(0,6);:_ZN11stlpmtx_std4hashIcEC2ERKS1_;2A.;__comp_ctor::(44,29):_ZN11stlpmtx_std4hashIcEC1ERKS1_;2A.;__base_ctor::(44,30)=#(44,21),(0,6),(44,27),(0,6);:_ZN11stlpmtx_std4hashIcEC2Ev;2A.;__comp_ctor::(44,30):_ZN11stlpmtx_std4hashIcEC1Ev;2A.;;",128,0,71,0
	.stabs	"hash<unsigned char>:Tt(44,31)=s1operator()::(44,32)=#(44,31),(7,2),(44,33)=*(44,34)=k(44,31),(0,10),(0,6);:_ZNK11stlpmtx_std4hashIhEclEh;2B.;operator=::(44,35)=#(44,31),(44,36)=&(44,31),(44,37)=*(44,31),(44,38)=&(44,34),(0,6);:_ZN11stlpmtx_std4hashIhEaSERKS1_;2A.;__base_ctor::(44,39)=#(44,31),(0,6),(44,37),(44,38),(0,6);:_ZN11stlpmtx_std4hashIhEC2ERKS1_;2A.;__comp_ctor::(44,39):_ZN11stlpmtx_std4hashIhEC1ERKS1_;2A.;__base_ctor::(44,40)=#(44,31),(0,6),(44,37),(0,6);:_ZN11stlpmtx_std4hashIhEC2Ev;2A.;__comp_ctor::(44,40):_ZN11stlpmtx_std4hashIhEC1Ev;2A.;;",128,0,74,0
	.stabs	"hash<signed char>:Tt(44,41)=s1operator()::(44,42)=#(44,41),(7,2),(44,43)=*(44,44)=k(44,41),(0,10),(0,6);:_ZNK11stlpmtx_std4hashIaEclEh;2B.;operator=::(44,45)=#(44,41),(44,46)=&(44,41),(44,47)=*(44,41),(44,48)=&(44,44),(0,6);:_ZN11stlpmtx_std4hashIaEaSERKS1_;2A.;__base_ctor::(44,49)=#(44,41),(0,6),(44,47),(44,48),(0,6);:_ZN11stlpmtx_std4hashIaEC2ERKS1_;2A.;__comp_ctor::(44,49):_ZN11stlpmtx_std4hashIaEC1ERKS1_;2A.;__base_ctor::(44,50)=#(44,41),(0,6),(44,47),(0,6);:_ZN11stlpmtx_std4hashIaEC2Ev;2A.;__comp_ctor::(44,50):_ZN11stlpmtx_std4hashIaEC1Ev;2A.;;",128,0,78,0
	.stabs	"hash<short int>:Tt(44,51)=s1operator()::(44,52)=#(44,51),(7,2),(44,53)=*(44,54)=k(44,51),(0,13),(0,6);:_ZNK11stlpmtx_std4hashIsEclEs;2B.;operator=::(44,55)=#(44,51),(44,56)=&(44,51),(44,57)=*(44,51),(44,58)=&(44,54),(0,6);:_ZN11stlpmtx_std4hashIsEaSERKS1_;2A.;__base_ctor::(44,59)=#(44,51),(0,6),(44,57),(44,58),(0,6);:_ZN11stlpmtx_std4hashIsEC2ERKS1_;2A.;__comp_ctor::(44,59):_ZN11stlpmtx_std4hashIsEC1ERKS1_;2A.;__base_ctor::(44,60)=#(44,51),(0,6),(44,57),(0,6);:_ZN11stlpmtx_std4hashIsEC2Ev;2A.;__comp_ctor::(44,60):_ZN11stlpmtx_std4hashIsEC1Ev;2A.;;",128,0,82,0
	.stabs	"hash<short unsigned int>:Tt(44,61)=s1operator()::(44,62)=#(44,61),(7,2),(44,63)=*(44,64)=k(44,61),(0,12),(0,6);:_ZNK11stlpmtx_std4hashItEclEt;2B.;operator=::(44,65)=#(44,61),(44,66)=&(44,61),(44,67)=*(44,61),(44,68)=&(44,64),(0,6);:_ZN11stlpmtx_std4hashItEaSERKS1_;2A.;__base_ctor::(44,69)=#(44,61),(0,6),(44,67),(44,68),(0,6);:_ZN11stlpmtx_std4hashItEC2ERKS1_;2A.;__comp_ctor::(44,69):_ZN11stlpmtx_std4hashItEC1ERKS1_;2A.;__base_ctor::(44,70)=#(44,61),(0,6),(44,67),(0,6);:_ZN11stlpmtx_std4hashItEC2Ev;2A.;__comp_ctor::(44,70):_ZN11stlpmtx_std4hashItEC1Ev;2A.;;",128,0,85,0
	.stabs	"hash<int>:Tt(44,71)=s1operator()::(44,72)=#(44,71),(7,2),(44,73)=*(44,74)=k(44,71),(0,3),(0,6);:_ZNK11stlpmtx_std4hashIiEclEi;2B.;operator=::(44,75)=#(44,71),(44,76)=&(44,71),(44,77)=*(44,71),(44,78)=&(44,74),(0,6);:_ZN11stlpmtx_std4hashIiEaSERKS1_;2A.;__base_ctor::(44,79)=#(44,71),(0,6),(44,77),(44,78),(0,6);:_ZN11stlpmtx_std4hashIiEC2ERKS1_;2A.;__comp_ctor::(44,79):_ZN11stlpmtx_std4hashIiEC1ERKS1_;2A.;__base_ctor::(44,80)=#(44,71),(0,6),(44,77),(0,6);:_ZN11stlpmtx_std4hashIiEC2Ev;2A.;__comp_ctor::(44,80):_ZN11stlpmtx_std4hashIiEC1Ev;2A.;;",128,0,88,0
	.stabs	"hash<unsigned int>:Tt(44,81)=s1operator()::(44,82)=#(44,81),(7,2),(44,83)=*(44,84)=k(44,81),(0,17),(0,6);:_ZNK11stlpmtx_std4hashIjEclEj;2B.;operator=::(44,85)=#(44,81),(44,86)=&(44,81),(44,87)=*(44,81),(44,88)=&(44,84),(0,6);:_ZN11stlpmtx_std4hashIjEaSERKS1_;2A.;__base_ctor::(44,89)=#(44,81),(0,6),(44,87),(44,88),(0,6);:_ZN11stlpmtx_std4hashIjEC2ERKS1_;2A.;__comp_ctor::(44,89):_ZN11stlpmtx_std4hashIjEC1ERKS1_;2A.;__base_ctor::(44,90)=#(44,81),(0,6),(44,87),(0,6);:_ZN11stlpmtx_std4hashIjEC2Ev;2A.;__comp_ctor::(44,90):_ZN11stlpmtx_std4hashIjEC1Ev;2A.;;",128,0,93,0
	.stabs	"hash<long int>:Tt(44,91)=s1operator()::(44,92)=#(44,91),(7,2),(44,93)=*(44,94)=k(44,91),(0,18),(0,6);:_ZNK11stlpmtx_std4hashIlEclEl;2B.;operator=::(44,95)=#(44,91),(44,96)=&(44,91),(44,97)=*(44,91),(44,98)=&(44,94),(0,6);:_ZN11stlpmtx_std4hashIlEaSERKS1_;2A.;__base_ctor::(44,99)=#(44,91),(0,6),(44,97),(44,98),(0,6);:_ZN11stlpmtx_std4hashIlEC2ERKS1_;2A.;__comp_ctor::(44,99):_ZN11stlpmtx_std4hashIlEC1ERKS1_;2A.;__base_ctor::(44,100)=#(44,91),(0,6),(44,97),(0,6);:_ZN11stlpmtx_std4hashIlEC2Ev;2A.;__comp_ctor::(44,100):_ZN11stlpmtx_std4hashIlEC1Ev;2A.;;",128,0,108,0
	.stabs	"hash<long unsigned int>:Tt(44,101)=s1operator()::(44,102)=#(44,101),(7,2),(44,103)=*(44,104)=k(44,101),(0,16),(0,6);:_ZNK11stlpmtx_std4hashImEclEm;2B.;operator=::(44,105)=#(44,101),(44,106)=&(44,101),(44,107)=*(44,101),(44,108)=&(44,104),(0,6);:_ZN11stlpmtx_std4hashImEaSERKS1_;2A.;__base_ctor::(44,109)=#(44,101),(0,6),(44,107),(44,108),(0,6);:_ZN11stlpmtx_std4hashImEC2ERKS1_;2A.;__comp_ctor::(44,109):_ZN11stlpmtx_std4hashImEC1ERKS1_;2A.;__base_ctor::(44,110)=#(44,101),(0,6),(44,107),(0,6);:_ZN11stlpmtx_std4hashImEC2Ev;2A.;__comp_ctor::(44,110):_ZN11stlpmtx_std4hashImEC1Ev;2A.;;",128,0,111,0
	.stabs	"hash<long long int>:Tt(44,111)=s1operator()::(44,112)=#(44,111),(7,2),(44,113)=*(44,114)=k(44,111),(0,15),(0,6);:_ZNK11stlpmtx_std4hashIxEclEx;2B.;operator=::(44,115)=#(44,111),(44,116)=&(44,111),(44,117)=*(44,111),(44,118)=&(44,114),(0,6);:_ZN11stlpmtx_std4hashIxEaSERKS1_;2A.;__base_ctor::(44,119)=#(44,111),(0,6),(44,117),(44,118),(0,6);:_ZN11stlpmtx_std4hashIxEC2ERKS1_;2A.;__comp_ctor::(44,119):_ZN11stlpmtx_std4hashIxEC1ERKS1_;2A.;__base_ctor::(44,120)=#(44,111),(0,6),(44,117),(0,6);:_ZN11stlpmtx_std4hashIxEC2Ev;2A.;__comp_ctor::(44,120):_ZN11stlpmtx_std4hashIxEC1Ev;2A.;;",128,0,116,0
	.stabs	"hash<long long unsigned int>:Tt(44,121)=s1operator()::(44,122)=#(44,121),(7,2),(44,123)=*(44,124)=k(44,121),(0,14),(0,6);:_ZNK11stlpmtx_std4hashIyEclEy;2B.;operator=::(44,125)=#(44,121),(44,126)=&(44,121),(44,127)=*(44,121),(44,128)=&(44,124),(0,6);:_ZN11stlpmtx_std4hashIyEaSERKS1_;2A.;__base_ctor::(44,129)=#(44,121),(0,6),(44,127),(44,128),(0,6);:_ZN11stlpmtx_std4hashIyEC2ERKS1_;2A.;__comp_ctor::(44,129):_ZN11stlpmtx_std4hashIyEC1ERKS1_;2A.;__base_ctor::(44,130)=#(44,121),(0,6),(44,127),(0,6);:_ZN11stlpmtx_std4hashIyEC2Ev;2A.;__comp_ctor::(44,130):_ZN11stlpmtx_std4hashIyEC1Ev;2A.;;",128,0,119,0
	.stabs	"hash<void*>::__vp:Tt(44,131)=u4s:(7,2),0,32;p:(12,28),0,32;operator=::(44,132)=#(44,131),(44,133)=&(44,131),(44,134)=*(44,131),(44,135)=&(44,136)=k(44,131),(0,6);:_ZN11stlpmtx_std4hashIPvE4__vpaSERKS3_;2A.;__base_ctor::(44,137)=#(44,131),(0,6),(44,134),(44,135),(0,6);:_ZN11stlpmtx_std4hashIPvE4__vpC2ERKS3_;2A.;__comp_ctor::(44,137):_ZN11stlpmtx_std4hashIPvE4__vpC1ERKS3_;2A.;__base_ctor::(44,138)=#(44,131),(0,6),(44,134),(0,6);:_ZN11stlpmtx_std4hashIPvE4__vpC2Ev;2A.;__comp_ctor::(44,138):_ZN11stlpmtx_std4hashIPvE4__vpC1Ev;2A.;;",128,0,127,0
	.stabs	"hash<void*>:Tt(44,139)=s1operator()::(44,140)=#(44,139),(7,2),(44,141)=*(44,142)=k(44,139),(12,28),(0,6);:_ZNK11stlpmtx_std4hashIPvEclES1_;2B.;operator=::(44,143)=#(44,139),(44,144)=&(44,139),(44,145)=*(44,139),(44,146)=&(44,142),(0,6);:_ZN11stlpmtx_std4hashIPvEaSERKS2_;2A.;__base_ctor::(44,147)=#(44,139),(0,6),(44,145),(44,146),(0,6);:_ZN11stlpmtx_std4hashIPvEC2ERKS2_;2A.;__comp_ctor::(44,147):_ZN11stlpmtx_std4hashIPvEC1ERKS2_;2A.;__base_ctor::(44,148)=#(44,139),(0,6),(44,145),(0,6);:_ZN11stlpmtx_std4hashIPvEC2Ev;2A.;__comp_ctor::(44,148):_ZN11stlpmtx_std4hashIPvEC1Ev;2A.;;",128,0,126,0
	.stabn	162,0,0,0
	.stabn	162,0,0,0
	.stabn	162,0,0,0
	.stabs	"/Applications/MoSync/include/maapi.h",130,0,0,0
	.stabs	"/Applications/MoSync/include/maapi_defs.h",130,0,0,0
	.stabs	"MA_DV:Tt(46,1)=u8:(46,2)=s8hi:(0,3),0,32;lo:(0,3),32,32;;,0,64;ll:(0,15),0,64;d:(0,8),0,64;operator=::(46,3)=#(46,1),(46,4)=&(46,1),(46,5)=*(46,1),(46,6)=&(46,7)=k(46,1),(0,6);:_ZN5MA_DVaSERKS_;2A.;__base_ctor::(46,8)=#(46,1),(0,6),(46,5),(46,6),(0,6);:_ZN5MA_DVC2ERKS_;2A.;__comp_ctor::(46,8):_ZN5MA_DVC1ERKS_;2A.;__base_ctor::(46,9)=#(46,1),(0,6),(46,5),(0,6);:_ZN5MA_DVC2Ev;2A.;__comp_ctor::(46,9):_ZN5MA_DVC1Ev;2A.;;",128,0,60,0
	.stabs	"MA_DV:t(46,10)=(46,1)",128,0,75,0
	.stabs	"MA_FV:Tt(46,11)=u4f:(0,9),0,32;i:(0,3),0,32;operator=::(46,12)=#(46,11),(46,13)=&(46,11),(46,14)=*(46,11),(46,15)=&(46,16)=k(46,11),(0,6);:_ZN5MA_FVaSERKS_;2A.;__base_ctor::(46,17)=#(46,11),(0,6),(46,14),(46,15),(0,6);:_ZN5MA_FVC2ERKS_;2A.;__comp_ctor::(46,17):_ZN5MA_FVC1ERKS_;2A.;__base_ctor::(46,18)=#(46,11),(0,6),(46,14),(0,6);:_ZN5MA_FVC2Ev;2A.;__comp_ctor::(46,18):_ZN5MA_FVC1Ev;2A.;;",128,0,78,0
	.stabs	"MA_FV:t(46,19)=(46,11)",128,0,81,0
	.stabn	162,0,0,0
	.stabs	"MAString:t(45,1)=(11,93)",128,0,684,0
	.stabs	"MAWString:t(45,2)=(45,3)=*(7,4)",128,0,685,0
	.stabs	"MAAddress:t(45,4)=(12,28)",128,0,686,0
	.stabs	"MAHandle:t(45,5)=(0,3)",128,0,687,0
	.stabs	"MAExtent:t(45,6)=(0,3)",128,0,688,0
	.stabs	"byte:t(45,7)=(0,10)",128,0,689,0
	.stabs	"ulong:t(45,8)=(0,16)",128,0,690,0
	.stabs	"longlong:t(45,9)=(0,15)",128,0,691,0
	.stabs	"MAExtensionModule:t(45,10)=(0,3)",128,0,692,0
	.stabs	"MAExtensionFunction:t(45,11)=(0,3)",128,0,693,0
	.stabs	"MAAudioData:t(45,12)=(0,3)",128,0,695,0
	.stabs	"MAAudioInstance:t(45,13)=(0,3)",128,0,697,0
	.stabs	"MAPoint2d:Tt(45,14)=s8x:(0,3),0,32;y:(0,3),32,32;operator=::(45,15)=#(45,14),(45,16)=&(45,14),(45,17)=*(45,14),(45,18)=&(45,19)=k(45,14),(0,6);:_ZN9MAPoint2daSERKS_;2A.;__base_ctor::(45,20)=#(45,14),(0,6),(45,17),(45,18),(0,6);:_ZN9MAPoint2dC2ERKS_;2A.;__comp_ctor::(45,20):_ZN9MAPoint2dC1ERKS_;2A.;__base_ctor::(45,21)=#(45,14),(0,6),(45,17),(0,6);:_ZN9MAPoint2dC2Ev;2A.;__comp_ctor::(45,21):_ZN9MAPoint2dC1Ev;2A.;;",128,0,3633,0
	.stabs	"MAPoint2d:t(45,22)=(45,14)",128,0,3636,0
	.stabs	"MARect:Tt(45,23)=s16left:(0,3),0,32;top:(0,3),32,32;width:(0,3),64,32;height:(0,3),96,32;operator=::(45,24)=#(45,23),(45,25)=&(45,23),(45,26)=*(45,23),(45,27)=&(45,28)=k(45,23),(0,6);:_ZN6MARectaSERKS_;2A.;__base_ctor::(45,29)=#(45,23),(0,6),(45,26),(45,27),(0,6);:_ZN6MARectC2ERKS_;2A.;__comp_ctor::(45,29):_ZN6MARectC1ERKS_;2A.;__base_ctor::(45,30)=#(45,23),(0,6),(45,26),(0,6);:_ZN6MARectC2Ev;2A.;__comp_ctor::(45,30):_ZN6MARectC1Ev;2A.;;",128,0,3655,0
	.stabs	"MARect:t(45,31)=(45,23)",128,0,3660,0
	.stabs	"MACopyData:Tt(45,32)=s20dst:(45,5),0,32;dstOffset:(0,3),32,32;src:(45,5),64,32;srcOffset:(0,3),96,32;size:(0,3),128,32;operator=::(45,33)=#(45,32),(45,34)=&(45,32),(45,35)=*(45,32),(45,36)=&(45,37)=k(45,32),(0,6);:_ZN10MACopyDataaSERKS_;2A.;__base_ctor::(45,38)=#(45,32),(0,6),(45,35),(45,36),(0,6);:_ZN10MACopyDataC2ERKS_;2A.;__comp_ctor::(45,38):_ZN10MACopyDataC1ERKS_;2A.;__base_ctor::(45,39)=#(45,32),(0,6),(45,35),(0,6);:_ZN10MACopyDataC2Ev;2A.;__comp_ctor::(45,39):_ZN10MACopyDataC1Ev;2A.;;",128,0,3676,0
	.stabs	"MACopyData:t(45,40)=(45,32)",128,0,3682,0
	.stabs	"MAConnAddrInet4:Tt(45,41)=s8addr:(0,3),0,32;port:(0,3),32,32;operator=::(45,42)=#(45,41),(45,43)=&(45,41),(45,44)=*(45,41),(45,45)=&(45,46)=k(45,41),(0,6);:_ZN15MAConnAddrInet4aSERKS_;2A.;__base_ctor::(45,47)=#(45,41),(0,6),(45,44),(45,45),(0,6);:_ZN15MAConnAddrInet4C2ERKS_;2A.;__comp_ctor::(45,47):_ZN15MAConnAddrInet4C1ERKS_;2A.;__base_ctor::(45,48)=#(45,41),(0,6),(45,44),(0,6);:_ZN15MAConnAddrInet4C2Ev;2A.;__comp_ctor::(45,48):_ZN15MAConnAddrInet4C1Ev;2A.;;",128,0,3698,0
	.stabs	"MAConnAddrInet4:t(45,49)=(45,41)",128,0,3701,0
	.stabs	"MAConnAddrInet6:Tt(45,50)=s20port:(0,3),0,32;addr:(45,51)=ar(12,11);0;15;(45,7),32,128;operator=::(45,52)=#(45,50),(45,53)=&(45,50),(45,54)=*(45,50),(45,55)=&(45,56)=k(45,50),(0,6);:_ZN15MAConnAddrInet6aSERKS_;2A.;__base_ctor::(45,57)=#(45,50),(0,6),(45,54),(45,55),(0,6);:_ZN15MAConnAddrInet6C2ERKS_;2A.;__comp_ctor::(45,57):_ZN15MAConnAddrInet6C1ERKS_;2A.;__base_ctor::(45,58)=#(45,50),(0,6),(45,54),(0,6);:_ZN15MAConnAddrInet6C2Ev;2A.;__comp_ctor::(45,58):_ZN15MAConnAddrInet6C1Ev;2A.;;",128,0,3717,0
	.stabs	"MAConnAddrInet6:t(45,59)=(45,50)",128,0,3720,0
	.stabs	"MABtAddr:Tt(45,60)=s8a:(45,61)=ar(12,11);0;5;(45,7),0,48;operator=::(45,62)=#(45,60),(45,63)=&(45,60),(45,64)=*(45,60),(45,65)=&(45,66)=k(45,60),(0,6);:_ZN8MABtAddraSERKS_;2A.;__base_ctor::(45,67)=#(45,60),(0,6),(45,64),(45,65),(0,6);:_ZN8MABtAddrC2ERKS_;2A.;__comp_ctor::(45,67):_ZN8MABtAddrC1ERKS_;2A.;__base_ctor::(45,68)=#(45,60),(0,6),(45,64),(0,6);:_ZN8MABtAddrC2Ev;2A.;__comp_ctor::(45,68):_ZN8MABtAddrC1Ev;2A.;;",128,0,3736,0
	.stabs	"MABtAddr:t(45,69)=(45,60)",128,0,3738,0
	.stabs	"MAConnAddrBt:Tt(45,70)=s12port:(0,3),0,32;addr:(45,69),32,64;operator=::(45,71)=#(45,70),(45,72)=&(45,70),(45,73)=*(45,70),(45,74)=&(45,75)=k(45,70),(0,6);:_ZN12MAConnAddrBtaSERKS_;2A.;__base_ctor::(45,76)=#(45,70),(0,6),(45,73),(45,74),(0,6);:_ZN12MAConnAddrBtC2ERKS_;2A.;__comp_ctor::(45,76):_ZN12MAConnAddrBtC1ERKS_;2A.;__base_ctor::(45,77)=#(45,70),(0,6),(45,73),(0,6);:_ZN12MAConnAddrBtC2Ev;2A.;__comp_ctor::(45,77):_ZN12MAConnAddrBtC1Ev;2A.;;",128,0,3754,0
	.stabs	"MAConnAddrBt:t(45,78)=(45,70)",128,0,3757,0
	.stabs	"MAConnAddr:Tt(45,79)=s24family:(0,3),0,32;:(45,80)=u20inet4:(45,49),0,64;bt:(45,78),0,96;inet6:(45,59),0,160;;,32,160;operator=::(45,81)=#(45,79),(45,82)=&(45,79),(45,83)=*(45,79),(45,84)=&(45,85)=k(45,79),(0,6);:_ZN10MAConnAddraSERKS_;2A.;__base_ctor::(45,86)=#(45,79),(0,6),(45,83),(45,84),(0,6);:_ZN10MAConnAddrC2ERKS_;2A.;__comp_ctor::(45,86):_ZN10MAConnAddrC1ERKS_;2A.;__base_ctor::(45,87)=#(45,79),(0,6),(45,83),(0,6);:_ZN10MAConnAddrC2Ev;2A.;__comp_ctor::(45,87):_ZN10MAConnAddrC1Ev;2A.;;",128,0,3773,0
	.stabs	"MAConnAddr:t(45,88)=(45,79)",128,0,3784,0
	.stabs	"MAConnEventData:Tt(45,89)=s12handle:(45,5),0,32;opType:(0,3),32,32;result:(0,3),64,32;operator=::(45,90)=#(45,89),(45,91)=&(45,89),(45,92)=*(45,89),(45,93)=&(45,94)=k(45,89),(0,6);:_ZN15MAConnEventDataaSERKS_;2A.;__base_ctor::(45,95)=#(45,89),(0,6),(45,92),(45,93),(0,6);:_ZN15MAConnEventDataC2ERKS_;2A.;__comp_ctor::(45,95):_ZN15MAConnEventDataC1ERKS_;2A.;__base_ctor::(45,96)=#(45,89),(0,6),(45,92),(0,6);:_ZN15MAConnEventDataC2Ev;2A.;__comp_ctor::(45,96):_ZN15MAConnEventDataC1Ev;2A.;;",128,0,3800,0
	.stabs	"MAConnEventData:t(45,97)=(45,89)",128,0,3809,0
	.stabs	"MASensor:Tt(45,98)=s16type:(0,3),0,32;values:(45,99)=ar(12,11);0;2;(0,9),32,96;operator=::(45,100)=#(45,98),(45,101)=&(45,98),(45,102)=*(45,98),(45,103)=&(45,104)=k(45,98),(0,6);:_ZN8MASensoraSERKS_;2A.;__base_ctor::(45,105)=#(45,98),(0,6),(45,102),(45,103),(0,6);:_ZN8MASensorC2ERKS_;2A.;__comp_ctor::(45,105):_ZN8MASensorC1ERKS_;2A.;__base_ctor::(45,106)=#(45,98),(0,6),(45,102),(0,6);:_ZN8MASensorC2Ev;2A.;__comp_ctor::(45,106):_ZN8MASensorC1Ev;2A.;;",128,0,3825,0
	.stabs	"MASensor:t(45,107)=(45,98)",128,0,3828,0
	.stabs	"MANFCEventData:Tt(45,108)=s12handle:(45,5),0,32;result:(0,3),32,32;dstId:(0,3),64,32;operator=::(45,109)=#(45,108),(45,110)=&(45,108),(45,111)=*(45,108),(45,112)=&(45,113)=k(45,108),(0,6);:_ZN14MANFCEventDataaSERKS_;2A.;__base_ctor::(45,114)=#(45,108),(0,6),(45,111),(45,112),(0,6);:_ZN14MANFCEventDataC2ERKS_;2A.;__comp_ctor::(45,114):_ZN14MANFCEventDataC1ERKS_;2A.;__base_ctor::(45,115)=#(45,108),(0,6),(45,111),(0,6);:_ZN14MANFCEventDataC2Ev;2A.;__comp_ctor::(45,115):_ZN14MANFCEventDataC1Ev;2A.;;",128,0,3844,0
	.stabs	"MANFCEventData:t(45,116)=(45,108)",128,0,3855,0
	.stabs	"MAAdsEventData:Tt(45,117)=s12bannerHandle:(45,5),0,32;bannerEventType:(0,3),32,32;bannerErrorCode:(0,3),64,32;operator=::(45,118)=#(45,117),(45,119)=&(45,117),(45,120)=*(45,117),(45,121)=&(45,122)=k(45,117),(0,6);:_ZN14MAAdsEventDataaSERKS_;2A.;__base_ctor::(45,123)=#(45,117),(0,6),(45,120),(45,121),(0,6);:_ZN14MAAdsEventDataC2ERKS_;2A.;__comp_ctor::(45,123):_ZN14MAAdsEventDataC1ERKS_;2A.;__base_ctor::(45,124)=#(45,117),(0,6),(45,120),(0,6);:_ZN14MAAdsEventDataC2Ev;2A.;__comp_ctor::(45,124):_ZN14MAAdsEventDataC1Ev;2A.;;",128,0,3871,0
	.stabs	"MAAdsEventData:t(45,125)=(45,117)",128,0,3882,0
	.stabs	"MACaptureEventData:Tt(45,126)=s8type:(0,3),0,32;handle:(45,5),32,32;operator=::(45,127)=#(45,126),(45,128)=&(45,126),(45,129)=*(45,126),(45,130)=&(45,131)=k(45,126),(0,6);:_ZN18MACaptureEventDataaSERKS_;2A.;__base_ctor::(45,132)=#(45,126),(0,6),(45,129),(45,130),(0,6);:_ZN18MACaptureEventDataC2ERKS_;2A.;__comp_ctor::(45,132):_ZN18MACaptureEventDataC1ERKS_;2A.;__base_ctor::(45,133)=#(45,126),(0,6),(45,129),(0,6);:_ZN18MACaptureEventDataC2Ev;2A.;__comp_ctor::(45,133):_ZN18MACaptureEventDataC1Ev;2A.;;",128,0,3898,0
	.stabs	"MACaptureEventData:t(45,134)=(45,126)",128,0,3905,0
	.stabs	"MAPurchaseEventData:Tt(45,135)=s16type:(0,3),0,32;state:(0,3),32,32;productHandle:(45,5),64,32;errorCode:(0,3),96,32;operator=::(45,136)=#(45,135),(45,137)=&(45,135),(45,138)=*(45,135),(45,139)=&(45,140)=k(45,135),(0,6);:_ZN19MAPurchaseEventDataaSERKS_;2A.;__base_ctor::(45,141)=#(45,135),(0,6),(45,138),(45,139),(0,6);:_ZN19MAPurchaseEventDataC2ERKS_;2A.;__comp_ctor::(45,141):_ZN19MAPurchaseEventDataC1ERKS_;2A.;__base_ctor::(45,142)=#(45,135),(0,6),(45,138),(0,6);:_ZN19MAPurchaseEventDataC2Ev;2A.;__comp_ctor::(45,142):_ZN19MAPurchaseEventDataC1Ev;2A.;;",128,0,3923,0
	.stabs	"MAPurchaseEventData:t(45,143)=(45,135)",128,0,3948,0
	.stabs	"MAEvent:Tt(45,144)=s20type:(0,3),0,32;:(45,145)=u16:(45,146)=s8key:(0,3),0,32;nativeKey:(0,3),32,32;;,0,64;character:(34,14),0,32;:(45,147)=s12point:(45,22),0,64;touchId:(0,3),64,32;;,0,96;state:(0,3),0,32;conn:(45,97),0,96;:(45,148)=s8textboxResult:(0,3),0,32;textboxLength:(0,3),32,32;;,0,64;:(45,149)=s12imagePickerState:(0,3),0,32;imagePickerItem:(45,5),32,32;imagePickerEncodingType:(0,3),64,32;;,0,96;:(45,150)=s16snapshotImageDataHandle:(45,5),0,32;snapshotSize:(0,3),32,32;snapshotImageDataRepresentation:(0,3),64,32;snapshotReturnCode:(0,3),96,32;;,0,128;:(45,151)=s12mediaType:(0,3),0,32;mediaHandle:(45,5),32,32;operationResultCode:(0,3),64,32;;,0,96;optionsBoxButtonIndex:(0,3),0,32;alertButtonIndex:(0,3),0,32;status:(0,3),0,32;sensor:(45,107),0,128;nfc:(45,116),0,96;adsData:(45,125),0,96;localNotificationHandle:(45,5),0,32;pushNotificationHandle:(45,5),0,32;captureData:(45,134),0,64;data:(12,28),0,32;audioInstance:(45,13),0,32;purchaseData:(45,143),0,128;orientation:(0,3),0,32;;,32,128;operator=::(45,152)=#(45,144),(45,153)=&(45,144),(45,154)=*(45,144),(45,155)=&(45,156)=k(45,144),(0,6);:_ZN7MAEventaSERKS_;2A.;__base_ctor::(45,157)=#(45,144),(0,6),(45,154),(45,155),(0,6);:_ZN7MAEventC2ERKS_;2A.;__comp_ctor::(45,157):_ZN7MAEventC1ERKS_;2A.;__base_ctor::(45,158)=#(45,144),(0,6),(45,154),(0,6);:_ZN7MAEventC2Ev;2A.;__comp_ctor::(45,158):_ZN7MAEventC1Ev;2A.;;",128,0,3964,0
	.stabs	"MAEvent:t(45,159)=(45,144)",128,0,4176,0
	.stabs	"MAPanicReport:Tt(45,160)=s24runtimeId:(0,3),0,32;reportType:(0,3),32,32;time:(0,3),64,32;ip:(0,3),96,32;code:(0,3),128,32;string:(45,161)=ar(12,11);0;0;(0,19),160,8;operator=::(45,162)=#(45,160),(45,163)=&(45,160),(45,164)=*(45,160),(45,165)=&(45,166)=k(45,160),(0,6);:_ZN13MAPanicReportaSERKS_;2A.;__base_ctor::(45,167)=#(45,160),(0,6),(45,164),(45,165),(0,6);:_ZN13MAPanicReportC2ERKS_;2A.;__comp_ctor::(45,167):_ZN13MAPanicReportC1ERKS_;2A.;__base_ctor::(45,168)=#(45,160),(0,6),(45,164),(0,6);:_ZN13MAPanicReportC2Ev;2A.;__comp_ctor::(45,168):_ZN13MAPanicReportC1Ev;2A.;;",128,0,4208,0
	.stabs	"MAPanicReport:t(45,169)=(45,160)",128,0,4230,0
	.stabs	"MABtDevice:Tt(45,170)=s20name:(11,93),0,32;nameBufSize:(0,3),32,32;actualNameLength:(0,3),64,32;address:(45,69),96,64;operator=::(45,171)=#(45,170),(45,172)=&(45,170),(45,173)=*(45,170),(45,174)=&(45,175)=k(45,170),(0,6);:_ZN10MABtDeviceaSERKS_;2A.;__base_ctor::(45,176)=#(45,170),(0,6),(45,173),(45,174),(0,6);:_ZN10MABtDeviceC2ERKS_;2A.;__comp_ctor::(45,176):_ZN10MABtDeviceC1ERKS_;2A.;__base_ctor::(45,177)=#(45,170),(0,6),(45,173),(0,6);:_ZN10MABtDeviceC2Ev;2A.;__comp_ctor::(45,177):_ZN10MABtDeviceC1Ev;2A.;;",128,0,4246,0
	.stabs	"MABtDevice:t(45,178)=(45,170)",128,0,4258,0
	.stabs	"MAUUID:Tt(45,179)=s16i:(45,180)=ar(12,11);0;3;(0,3),0,128;operator=::(45,181)=#(45,179),(45,182)=&(45,179),(45,183)=*(45,179),(45,184)=&(45,185)=k(45,179),(0,6);:_ZN6MAUUIDaSERKS_;2A.;__base_ctor::(45,186)=#(45,179),(0,6),(45,183),(45,184),(0,6);:_ZN6MAUUIDC2ERKS_;2A.;__comp_ctor::(45,186):_ZN6MAUUIDC1ERKS_;2A.;__base_ctor::(45,187)=#(45,179),(0,6),(45,183),(0,6);:_ZN6MAUUIDC2Ev;2A.;__comp_ctor::(45,187):_ZN6MAUUIDC1Ev;2A.;;",128,0,4276,0
	.stabs	"MAUUID:t(45,188)=(45,179)",128,0,4278,0
	.stabs	"MABtServiceSize:Tt(45,189)=s8nameBufSize:(0,3),0,32;nUuids:(0,3),32,32;operator=::(45,190)=#(45,189),(45,191)=&(45,189),(45,192)=*(45,189),(45,193)=&(45,194)=k(45,189),(0,6);:_ZN15MABtServiceSizeaSERKS_;2A.;__base_ctor::(45,195)=#(45,189),(0,6),(45,192),(45,193),(0,6);:_ZN15MABtServiceSizeC2ERKS_;2A.;__comp_ctor::(45,195):_ZN15MABtServiceSizeC1ERKS_;2A.;__base_ctor::(45,196)=#(45,189),(0,6),(45,192),(0,6);:_ZN15MABtServiceSizeC2Ev;2A.;__comp_ctor::(45,196):_ZN15MABtServiceSizeC1Ev;2A.;;",128,0,4294,0
	.stabs	"MABtServiceSize:t(45,197)=(45,189)",128,0,4305,0
	.stabs	"MABtService:Tt(45,198)=s16port:(0,3),0,32;name:(11,93),32,32;nameBufSize:(0,3),64,32;uuids:(45,199)=*(45,188),96,32;operator=::(45,200)=#(45,198),(45,201)=&(45,198),(45,202)=*(45,198),(45,203)=&(45,204)=k(45,198),(0,6);:_ZN11MABtServiceaSERKS_;2A.;__base_ctor::(45,205)=#(45,198),(0,6),(45,202),(45,203),(0,6);:_ZN11MABtServiceC2ERKS_;2A.;__comp_ctor::(45,205):_ZN11MABtServiceC1ERKS_;2A.;__base_ctor::(45,206)=#(45,198),(0,6),(45,202),(0,6);:_ZN11MABtServiceC2Ev;2A.;__comp_ctor::(45,206):_ZN11MABtServiceC1Ev;2A.;;",128,0,4321,0
	.stabs	"MABtService:t(45,207)=(45,198)",128,0,4344,0
	.stabs	"MALocation:Tt(45,208)=s40state:(0,3),0,32;lat:(0,8),32,64;lon:(0,8),96,64;horzAcc:(0,8),160,64;vertAcc:(0,8),224,64;alt:(0,9),288,32;operator=::(45,209)=#(45,208),(45,210)=&(45,208),(45,211)=*(45,208),(45,212)=&(45,213)=k(45,208),(0,6);:_ZN10MALocationaSERKS_;2A.;__base_ctor::(45,214)=#(45,208),(0,6),(45,211),(45,212),(0,6);:_ZN10MALocationC2ERKS_;2A.;__comp_ctor::(45,214):_ZN10MALocationC1ERKS_;2A.;__base_ctor::(45,215)=#(45,208),(0,6),(45,211),(0,6);:_ZN10MALocationC2Ev;2A.;__comp_ctor::(45,215):_ZN10MALocationC1Ev;2A.;;",128,0,4375,0
	.stabs	"MALocation:t(45,216)=(45,208)",128,0,4391,0
	.stabs	"MAFrameBufferInfo:Tt(45,217)=s64sizeInBytes:(0,3),0,32;bytesPerPixel:(0,3),32,32;bitsPerPixel:(0,3),64,32;redMask:(0,3),96,32;redShift:(0,3),128,32;redBits:(0,3),160,32;greenMask:(0,3),192,32;greenShift:(0,3),224,32;greenBits:(0,3),256,32;blueMask:(0,3),288,32;blueShift:(0,3),320,32;blueBits:(0,3),352,32;width:(0,3),384,32;height:(0,3),416,32;pitch:(0,3),448,32;supportsGfxSyscalls:(0,3),480,32;operator=::(45,218)=#(45,217),(45,219)=&(45,217),(45,220)=*(45,217),(45,221)=&(45,222)=k(45,217),(0,6);:_ZN17MAFrameBufferInfoaSERKS_;2A.;__base_ctor::(45,223)=#(45,217),(0,6),(45,220),(45,221),(0,6);:_ZN17MAFrameBufferInfoC2ERKS_;2A.;__comp_ctor::(45,223):_ZN17MAFrameBufferInfoC1ERKS_;2A.;__base_ctor::(45,224)=#(45,217),(0,6),(45,220),(0,6);:_ZN17MAFrameBufferInfoC2Ev;2A.;__comp_ctor::(45,224):_ZN17MAFrameBufferInfoC1Ev;2A.;;",128,0,4409,0
	.stabs	"MAFrameBufferInfo:t(45,225)=(45,217)",128,0,4426,0
	.stabs	"MA_CAMERA_FORMAT:Tt(45,226)=s8width:(0,3),0,32;height:(0,3),32,32;operator=::(45,227)=#(45,226),(45,228)=&(45,226),(45,229)=*(45,226),(45,230)=&(45,231)=k(45,226),(0,6);:_ZN16MA_CAMERA_FORMATaSERKS_;2A.;__base_ctor::(45,232)=#(45,226),(0,6),(45,229),(45,230),(0,6);:_ZN16MA_CAMERA_FORMATC2ERKS_;2A.;__comp_ctor::(45,232):_ZN16MA_CAMERA_FORMATC1ERKS_;2A.;__base_ctor::(45,233)=#(45,226),(0,6),(45,229),(0,6);:_ZN16MA_CAMERA_FORMATC2Ev;2A.;__comp_ctor::(45,233):_ZN16MA_CAMERA_FORMATC1Ev;2A.;;",128,0,4443,0
	.stabs	"MA_CAMERA_FORMAT:t(45,234)=(45,226)",128,0,4446,0
	.stabs	"MADBBlob:Tt(45,235)=s8data:(45,4),0,32;size:(0,3),32,32;operator=::(45,236)=#(45,235),(45,237)=&(45,235),(45,238)=*(45,235),(45,239)=&(45,240)=k(45,235),(0,6);:_ZN8MADBBlobaSERKS_;2A.;__base_ctor::(45,241)=#(45,235),(0,6),(45,238),(45,239),(0,6);:_ZN8MADBBlobC2ERKS_;2A.;__comp_ctor::(45,241):_ZN8MADBBlobC1ERKS_;2A.;__base_ctor::(45,242)=#(45,235),(0,6),(45,238),(0,6);:_ZN8MADBBlobC2Ev;2A.;__comp_ctor::(45,242):_ZN8MADBBlobC1Ev;2A.;;",128,0,4460,0
	.stabs	"MADBBlob:t(45,243)=(45,235)",128,0,4463,0
	.stabs	"MADBText:Tt(45,244)=s8addr:(45,1),0,32;length:(0,3),32,32;operator=::(45,245)=#(45,244),(45,246)=&(45,244),(45,247)=*(45,244),(45,248)=&(45,249)=k(45,244),(0,6);:_ZN8MADBTextaSERKS_;2A.;__base_ctor::(45,250)=#(45,244),(0,6),(45,247),(45,248),(0,6);:_ZN8MADBTextC2ERKS_;2A.;__comp_ctor::(45,250):_ZN8MADBTextC1ERKS_;2A.;__base_ctor::(45,251)=#(45,244),(0,6),(45,247),(0,6);:_ZN8MADBTextC2Ev;2A.;__comp_ctor::(45,251):_ZN8MADBTextC1Ev;2A.;;",128,0,4477,0
	.stabs	"MADBText:t(45,252)=(45,244)",128,0,4482,0
	.stabs	"MADBValue:Tt(45,253)=s12:(45,254)=u8i:(0,3),0,32;d:(0,8),0,64;blob:(45,243),0,64;dataHandle:(45,5),0,32;text:(45,252),0,64;i64:(45,9),0,64;;,0,64;type:(0,3),64,32;operator=::(45,255)=#(45,253),(45,256)=&(45,253),(45,257)=*(45,253),(45,258)=&(45,259)=k(45,253),(0,6);:_ZN9MADBValueaSERKS_;2A.;__base_ctor::(45,260)=#(45,253),(0,6),(45,257),(45,258),(0,6);:_ZN9MADBValueC2ERKS_;2A.;__comp_ctor::(45,260):_ZN9MADBValueC1ERKS_;2A.;__base_ctor::(45,261)=#(45,253),(0,6),(45,257),(0,6);:_ZN9MADBValueC2Ev;2A.;__comp_ctor::(45,261):_ZN9MADBValueC1Ev;2A.;;",128,0,4497,0
	.stabs	"MADBValue:t(45,262)=(45,253)",128,0,4508,0
	.stabs	"MAPushNotificationData:Tt(45,263)=s24type:(0,3),0,32;alertMessage:(45,1),32,32;alertMessageSize:(0,3),64,32;soundFileName:(45,1),96,32;soundFileNameSize:(0,3),128,32;badgeIcon:(0,3),160,32;operator=::(45,264)=#(45,263),(45,265)=&(45,263),(45,266)=*(45,263),(45,267)=&(45,268)=k(45,263),(0,6);:_ZN22MAPushNotificationDataaSERKS_;2A.;__base_ctor::(45,269)=#(45,263),(0,6),(45,266),(45,267),(0,6);:_ZN22MAPushNotificationDataC2ERKS_;2A.;__comp_ctor::(45,269):_ZN22MAPushNotificationDataC1ERKS_;2A.;__base_ctor::(45,270)=#(45,263),(0,6),(45,266),(0,6);:_ZN22MAPushNotificationDataC2Ev;2A.;__comp_ctor::(45,270):_ZN22MAPushNotificationDataC1Ev;2A.;;",128,0,4525,0
	.stabs	"MAPushNotificationData:t(45,271)=(45,263)",128,0,4554,0
	.stabn	162,0,0,0
	.stabs	"/Applications/MoSync/include/MAUtil/util.h",130,0,0,0
	.stabs	"/Applications/MoSync/include/MAUtil/String.h",130,0,0,0
	.stabs	"/Applications/MoSync/include/MAUtil/RefCounted.h",130,0,0,0
	.stabn	162,0,0,0
	.stabs	"/Applications/MoSync/include/ma.h",130,0,0,0
	.stabn	162,0,0,0
	.stabs	"String:t(48,1)=(48,2)=xsBasicString<char>:",128,0,279,0
	.stabs	"WString:t(48,3)=(48,4)=xsBasicString<wchar_t>:",128,0,280,0
	.stabn	162,0,0,0
	.stabn	162,0,0,0
	.stabs	"/Applications/MoSync/include/NativeUI/Widgets.h",130,0,0,0
	.stabs	"/Applications/MoSync/include/NativeUI/ActivityIndicator.h",130,0,0,0
	.stabs	"/Applications/MoSync/include/NativeUI/Widget.h",130,0,0,0
	.stabs	"/Applications/MoSync/include/conprint.h",130,0,0,0
	.stabs	"/Applications/MoSync/include/maarg.h",130,0,0,0
	.stabn	162,0,0,0
	.stabn	162,0,0,0
	.stabs	"/Applications/MoSync/include/MAUtil/Map.h",130,0,0,0
	.stabs	"/Applications/MoSync/include/MAUtil/Dictionary.h",130,0,0,0
	.stabs	"/Applications/MoSync/include/kazlib/dict.h",130,0,0,0
	.stabs	"dictcount_t:t(58,1)=(0,16)",128,0,39,0
	.stabs	"dnode_color_t:t(58,2)=ednode_red:0,dnode_black:1,;",128,0,46,0
	.stabs	"dnode_t:Tt(58,3)=s24dict_left:(58,4)=*(58,3),0,32;dict_right:(58,4),32,32;dict_parent:(58,4),64,32;dict_color:(58,2),96,32;dict_key:(23,92),128,32;dict_data:(12,28),160,32;operator=::(58,5)=#(58,3),(58,6)=&(58,3),(58,4),(58,7)=&(58,8)=k(58,3),(0,6);:_ZN7dnode_taSERKS_;2A.;__base_ctor::(58,9)=#(58,3),(0,6),(58,4),(58,7),(0,6);:_ZN7dnode_tC2ERKS_;2A.;__comp_ctor::(58,9):_ZN7dnode_tC1ERKS_;2A.;__base_ctor::(58,10)=#(58,3),(0,6),(58,4),(0,6);:_ZN7dnode_tC2Ev;2A.;__comp_ctor::(58,10):_ZN7dnode_tC1Ev;2A.;;",128,0,48,0
	.stabs	"dnode_t:t(58,11)=(58,3)",128,0,59,0
	.stabs	"dict_comp_t:t(58,12)=(58,13)=*(58,14)=f(0,3)",128,0,61,0
	.stabs	"dnode_alloc_t:t(58,15)=(58,16)=*(58,17)=f(58,18)=*(58,11)",128,0,62,0
	.stabs	"dnode_free_t:t(58,19)=(58,20)=*(58,21)=f(0,6)",128,0,63,0
	.stabs	"dict_t:Tt(58,22)=s52dict_nilnode:(58,11),0,192;dict_nodecount:(58,1),192,32;dict_maxcount:(58,1),224,32;dict_compare:(58,12),256,32;dict_allocnode:(58,15),288,32;dict_freenode:(58,19),320,32;dict_context:(12,28),352,32;dict_dupes:(0,3),384,32;operator=::(58,23)=#(58,22),(58,24)=&(58,22),(58,25)=*(58,22),(58,26)=&(58,27)=k(58,22),(0,6);:_ZN6dict_taSERKS_;2A.;__base_ctor::(58,28)=#(58,22),(0,6),(58,25),(58,26),(0,6);:_ZN6dict_tC2ERKS_;2A.;__comp_ctor::(58,28):_ZN6dict_tC1ERKS_;2A.;__base_ctor::(58,29)=#(58,22),(0,6),(58,25),(0,6);:_ZN6dict_tC2Ev;2A.;__comp_ctor::(58,29):_ZN6dict_tC1Ev;2A.;;",128,0,65,0
	.stabs	"dict_t:t(58,30)=(58,22)",128,0,78,0
	.stabs	"dnode_process_t:t(58,31)=(58,32)=*(58,33)=f(0,6)",128,0,80,0
	.stabs	"dict_load_t:Tt(58,34)=s28dict_dictptr:(58,35)=*(58,30),0,32;dict_nilnode:(58,11),32,192;operator=::(58,36)=#(58,34),(58,37)=&(58,34),(58,38)=*(58,34),(58,39)=&(58,40)=k(58,34),(0,6);:_ZN11dict_load_taSERKS_;2A.;__base_ctor::(58,41)=#(58,34),(0,6),(58,38),(58,39),(0,6);:_ZN11dict_load_tC2ERKS_;2A.;__comp_ctor::(58,41):_ZN11dict_load_tC1ERKS_;2A.;__base_ctor::(58,42)=#(58,34),(0,6),(58,38),(0,6);:_ZN11dict_load_tC2Ev;2A.;__comp_ctor::(58,42):_ZN11dict_load_tC1Ev;2A.;;",128,0,82,0
	.stabs	"dict_load_t:t(58,43)=(58,34)",128,0,89,0
	.stabn	162,0,0,0
	.stabn	162,0,0,0
	.stabn	162,0,0,0
	.stabs	"/Applications/MoSync/include/MAUtil/Environment.h",130,0,0,0
	.stabs	"PLATFORM_TYPE:t(59,1)=eOS_IOS:0,OS_ANDROID:1,OS_WIN:2,OS_UNKNOWN:3,;",128,0,48,0
	.stabs	"Environment::TimerEventInstance:Tt(59,2)=s20e:(59,3)=*(59,4)=xsTimerListener:,0,32;addTime:(0,3),32,32;period:(0,3),64,32;numTimes:(0,3),96,32;nextInvoke:(0,3),128,32;__base_ctor::(59,5)=#(59,2),(0,6),(59,6)=*(59,2),(59,3),(0,3),(0,3),(0,6);:_ZN6MAUtil11Environment18TimerEventInstanceC2EPNS_13TimerListenerEii;2A.;__comp_ctor::(59,5):_ZN6MAUtil11Environment18TimerEventInstanceC1EPNS_13TimerListenerEii;2A.;operator=::(59,7)=#(59,2),(59,8)=&(59,2),(59,6),(59,9)=&(59,10)=k(59,2),(0,6);:_ZN6MAUtil11Environment18TimerEventInstanceaSERKS1_;2A.;__base_ctor::(59,11)=#(59,2),(0,6),(59,6),(59,9),(0,6);:_ZN6MAUtil11Environment18TimerEventInstanceC2ERKS1_;2A.;__comp_ctor::(59,11):_ZN6MAUtil11Environment18TimerEventInstanceC1ERKS1_;2A.;;",128,0,546,0
	.stabs	"Vector<MAUtil::ListenerSet<MAUtil::KeyListener>::Combo>:Tt(59,12)=s12mSize:/1(0,3),0,32;mCapacity:/1(0,3),32,32;mData:/1(59,13)=*(59,14)=xsCombo:,64,32;__base_ctor::(59,15)=#(59,12),(0,6),(59,16)=*(59,12),(0,3),(0,6);:_ZN6MAUtil6VectorINS_11ListenerSetINS_11KeyListenerEE5ComboEEC2Ei;2A.;__comp_ctor::(59,15):_ZN6MAUtil6VectorINS_11ListenerSetINS_11KeyListenerEE5ComboEEC1Ei;2A.;__base_ctor::(59,17)=#(59,12),(0,6),(59,16),(59,18)=*(59,19)=k(59,14),(0,3),(0,6);:_ZN6MAUtil6VectorINS_11ListenerSetINS_11KeyListenerEE5ComboEEC2EPKS4_i;2A.;__comp_ctor::(59,17):_ZN6MAUtil6VectorINS_11ListenerSetINS_11KeyListenerEE5ComboEEC1EPKS4_i;2A.;__base_ctor::(59,20)=#(59,12),(0,6),(59,16),(59,21)=&(59,22)=k(59,12),(0,6);:_ZN6MAUtil6VectorINS_11ListenerSetINS_11KeyListenerEE5ComboEEC2ERKS5_;2A.;__comp_ctor::(59,20):_ZN6MAUtil6VectorINS_11ListenerSetINS_11KeyListenerEE5ComboEEC1ERKS5_;2A.;__base_dtor::(59,23)=#(59,12),(0,6),(59,16),(0,6);:_ZN6MAUtil6VectorINS_11ListenerSetINS_11KeyListenerEE5ComboEED2Ev;2A.;__comp_dtor::(59,23):_ZN6MAUtil6VectorINS_11ListenerSetINS_11KeyListenerEE5ComboEED1Ev;2A.;operator=::(59,24)=#(59,12),(59,25)=&(59,12),(59,16),(59,21),(0,6);:_ZN6MAUtil6VectorINS_11ListenerSetINS_11KeyListenerEE5ComboEEaSERKS5_;2A.;add::(59,26)=#(59,12),(0,6),(59,16),(59,27)=&(59,19),(0,6);:_ZN6MAUtil6VectorINS_11ListenerSetINS_11KeyListenerEE5ComboEE3addERKS4_;2A.(59,17):_ZN6MAUtil6VectorINS_11ListenerSetINS_11KeyListenerEE5ComboEE3addEPKS4_i;2A.;remove::(59,28)=#(59,12),(0,6),(59,16),(59,13),(0,6);:_ZN6MAUtil6VectorINS_11ListenerSetINS_11KeyListenerEE5ComboEE6removeEPS4_;2A.(59,29)=#(59,12),(0,6),(59,16),(0,3),(0,6);:_ZN6MAUtil6VectorINS_11ListenerSetINS_11KeyListenerEE5ComboEE6removeEi;2A.(59,30)=#(59,12),(0,6),(59,16),(0,3),(0,3),(0,6);:_ZN6MAUtil6VectorINS_11ListenerSetINS_11KeyListenerEE5ComboEE6removeEii;2A.;insert::(59,31)=#(59,12),(0,6),(59,16),(0,3),(59,14),(0,6);:_ZN6MAUtil6VectorINS_11ListenerSetINS_11KeyListenerEE5ComboEE6insertEiS4_;2A.;size::(59,32)=#(59,12),(0,3),(59,33)=*(59,22),(0,6);:_ZNK6MAUtil6VectorINS_11ListenerSetINS_11KeyListenerEE5ComboEE4sizeEv;2B.;resize::(59,29):_ZN6MAUtil6VectorINS_11ListenerSetINS_11KeyListenerEE5ComboEE6resizeEi;2A.;reserve::(59,29):_ZN6MAUtil6VectorINS_11ListenerSetINS_11KeyListenerEE5ComboEE7reserveEi;2A.;clear::(59,23):_ZN6MAUtil6VectorINS_11ListenerSetINS_11KeyListenerEE5ComboEE5clearEv;2A.;empty::(59,34)=#(59,12),(0,4),(59,33),(0,6);:_ZNK6MAUtil6VectorINS_11ListenerSetINS_11KeyListenerEE5ComboEE5emptyEv;2B.;capacity::(59,32):_ZNK6MAUtil6VectorINS_11ListenerSetINS_11KeyListenerEE5ComboEE8capacityEv;2B.;begin::(59,35)=#(59,12),(59,13),(59,16),(0,6);:_ZN6MAUtil6VectorINS_11ListenerSetINS_11KeyListenerEE5ComboEE5beginEv;2A.;end::(59,35):_ZN6MAUtil6VectorINS_11ListenerSetINS_11KeyListenerEE5ComboEE3endEv;2A.;begin::(59,36)=#(59,12),(59,18),(59,33),(0,6);:_ZNK6MAUtil6VectorINS_11ListenerSetINS_11KeyListenerEE5ComboEE5beginEv;2B.;end::(59,36):_ZNK6MAUtil6VectorINS_11ListenerSetINS_11KeyListenerEE5ComboEE3endEv;2B.;operator[]::(59,37)=#(59,12),(59,38)=&(59,14),(59,16),(0,3),(0,6);:_ZN6MAUtil6VectorINS_11ListenerSetINS_11KeyListenerEE5ComboEEixEi;2A.(59,39)=#(59,12),(59,27),(59,33),(0,3),(0,6);:_ZNK6MAUtil6VectorINS_11ListenerSetINS_11KeyListenerEE5ComboEEixEi;2B.;pointer::(59,36):_ZNK6MAUtil6VectorINS_11ListenerSetINS_11KeyListenerEE5ComboEE7pointerEv;2B.(59,35):_ZN6MAUtil6VectorINS_11ListenerSetINS_11KeyListenerEE5ComboEE7pointerEv;2A.;;",128,0,95,0
	.stabs	"ListenerSet<MAUtil::KeyListener>:Tt(59,40)=s16mRunning:/0(0,4),0,8;mUpdateRequired:/0(0,4),8,8;mShouldDelete:/0(0,4),16,8;mVec:/0(59,12),32,96;__base_ctor::(59,41)=#(59,40),(0,6),(59,42)=*(59,40),(0,4),(0,6);:_ZN6MAUtil11ListenerSetINS_11KeyListenerEEC2Eb;2A.;__comp_ctor::(59,41):_ZN6MAUtil11ListenerSetINS_11KeyListenerEEC1Eb;2A.;begin::(59,43)=#(59,40),(59,44)=xsiterator:,(59,42),(0,6);:_ZN6MAUtil11ListenerSetINS_11KeyListenerEE5beginEv;2A.;add::(59,45)=#(59,40),(0,6),(59,42),(59,46)=*(59,47)=xsKeyListener:,(0,6);:_ZN6MAUtil11ListenerSetINS_11KeyListenerEE3addEPS1_;2A.;remove::(59,45):_ZN6MAUtil11ListenerSetINS_11KeyListenerEE6removeEPS1_;2A.;contains::(59,48)=#(59,40),(0,4),(59,42),(59,46),(0,6);:_ZN6MAUtil11ListenerSetINS_11KeyListenerEE8containsEPS1_;2A.;setRunning::(59,49)=#(59,40),(0,6),(59,42),(0,4),(0,6);:_ZN6MAUtil11ListenerSetINS_11KeyListenerEE10setRunningEb;2A.;size::(59,50)=#(59,40),(0,3),(59,51)=*(59,52)=k(59,40),(0,6);:_ZNK6MAUtil11ListenerSetINS_11KeyListenerEE4sizeEv;2B.;operator=::(59,53)=#(59,40),(59,54)=&(59,40),(59,42),(59,55)=&(59,52),(0,6);:_ZN6MAUtil11ListenerSetINS_11KeyListenerEEaSERKS2_;2A.;__base_ctor::(59,56)=#(59,40),(0,6),(59,42),(59,55),(0,6);:_ZN6MAUtil11ListenerSetINS_11KeyListenerEEC2ERKS2_;2A.;__comp_ctor::(59,56):_ZN6MAUtil11ListenerSetINS_11KeyListenerEEC1ERKS2_;2A.;__base_dtor::(59,57)=#(59,40),(0,6),(59,42),(0,6);:_ZN6MAUtil11ListenerSetINS_11KeyListenerEED2Ev;2A.;__comp_dtor::(59,57):_ZN6MAUtil11ListenerSetINS_11KeyListenerEED1Ev;2A.;;",128,0,46,0
	.stabs	"Vector<MAUtil::ListenerSet<MAUtil::PointerListener>::Combo>:Tt(59,58)=s12mSize:/1(0,3),0,32;mCapacity:/1(0,3),32,32;mData:/1(59,59)=*(59,60)=xsCombo:,64,32;__base_ctor::(59,61)=#(59,58),(0,6),(59,62)=*(59,58),(0,3),(0,6);:_ZN6MAUtil6VectorINS_11ListenerSetINS_15PointerListenerEE5ComboEEC2Ei;2A.;__comp_ctor::(59,61):_ZN6MAUtil6VectorINS_11ListenerSetINS_15PointerListenerEE5ComboEEC1Ei;2A.;__base_ctor::(59,63)=#(59,58),(0,6),(59,62),(59,64)=*(59,65)=k(59,60),(0,3),(0,6);:_ZN6MAUtil6VectorINS_11ListenerSetINS_15PointerListenerEE5ComboEEC2EPKS4_i;2A.;__comp_ctor::(59,63):_ZN6MAUtil6VectorINS_11ListenerSetINS_15PointerListenerEE5ComboEEC1EPKS4_i;2A.;__base_ctor::(59,66)=#(59,58),(0,6),(59,62),(59,67)=&(59,68)=k(59,58),(0,6);:_ZN6MAUtil6VectorINS_11ListenerSetINS_15PointerListenerEE5ComboEEC2ERKS5_;2A.;__comp_ctor::(59,66):_ZN6MAUtil6VectorINS_11ListenerSetINS_15PointerListenerEE5ComboEEC1ERKS5_;2A.;__base_dtor::(59,69)=#(59,58),(0,6),(59,62),(0,6);:_ZN6MAUtil6VectorINS_11ListenerSetINS_15PointerListenerEE5ComboEED2Ev;2A.;__comp_dtor::(59,69):_ZN6MAUtil6VectorINS_11ListenerSetINS_15PointerListenerEE5ComboEED1Ev;2A.;operator=::(59,70)=#(59,58),(59,71)=&(59,58),(59,62),(59,67),(0,6);:_ZN6MAUtil6VectorINS_11ListenerSetINS_15PointerListenerEE5ComboEEaSERKS5_;2A.;add::(59,72)=#(59,58),(0,6),(59,62),(59,73)=&(59,65),(0,6);:_ZN6MAUtil6VectorINS_11ListenerSetINS_15PointerListenerEE5ComboEE3addERKS4_;2A.(59,63):_ZN6MAUtil6VectorINS_11ListenerSetINS_15PointerListenerEE5ComboEE3addEPKS4_i;2A.;remove::(59,74)=#(59,58),(0,6),(59,62),(59,59),(0,6);:_ZN6MAUtil6VectorINS_11ListenerSetINS_15PointerListenerEE5ComboEE6removeEPS4_;2A.(59,75)=#(59,58),(0,6),(59,62),(0,3),(0,6);:_ZN6MAUtil6VectorINS_11ListenerSetINS_15PointerListenerEE5ComboEE6removeEi;2A.(59,76)=#(59,58),(0,6),(59,62),(0,3),(0,3),(0,6);:_ZN6MAUtil6VectorINS_11ListenerSetINS_15PointerListenerEE5ComboEE6removeEii;2A.;insert::(59,77)=#(59,58),(0,6),(59,62),(0,3),(59,60),(0,6);:_ZN6MAUtil6VectorINS_11ListenerSetINS_15PointerListenerEE5ComboEE6insertEiS4_;2A.;size::(59,78)=#(59,58),(0,3),(59,79)=*(59,68),(0,6);:_ZNK6MAUtil6VectorINS_11ListenerSetINS_15PointerListenerEE5ComboEE4sizeEv;2B.;resize::(59,75):_ZN6MAUtil6VectorINS_11ListenerSetINS_15PointerListenerEE5ComboEE6resizeEi;2A.;reserve::(59,75):_ZN6MAUtil6VectorINS_11ListenerSetINS_15PointerListenerEE5ComboEE7reserveEi;2A.;clear::(59,69):_ZN6MAUtil6VectorINS_11ListenerSetINS_15PointerListenerEE5ComboEE5clearEv;2A.;empty::(59,80)=#(59,58),(0,4),(59,79),(0,6);:_ZNK6MAUtil6VectorINS_11ListenerSetINS_15PointerListenerEE5ComboEE5emptyEv;2B.;capacity::(59,78):_ZNK6MAUtil6VectorINS_11ListenerSetINS_15PointerListenerEE5ComboEE8capacityEv;2B.;begin::(59,81)=#(59,58),(59,59),(59,62),(0,6);:_ZN6MAUtil6VectorINS_11ListenerSetINS_15PointerListenerEE5ComboEE5beginEv;2A.;end::(59,81):_ZN6MAUtil6VectorINS_11ListenerSetINS_15PointerListenerEE5ComboEE3endEv;2A.;begin::(59,82)=#(59,58),(59,64),(59,79),(0,6);:_ZNK6MAUtil6VectorINS_11ListenerSetINS_15PointerListenerEE5ComboEE5beginEv;2B.;end::(59,82):_ZNK6MAUtil6VectorINS_11ListenerSetINS_15PointerListenerEE5ComboEE3endEv;2B.;operator[]::(59,83)=#(59,58),(59,84)=&(59,60),(59,62),(0,3),(0,6);:_ZN6MAUtil6VectorINS_11ListenerSetINS_15PointerListenerEE5ComboEEixEi;2A.(59,85)=#(59,58),(59,73),(59,79),(0,3),(0,6);:_ZNK6MAUtil6VectorINS_11ListenerSetINS_15PointerListenerEE5ComboEEixEi;2B.;pointer::(59,82):_ZNK6MAUtil6VectorINS_11ListenerSetINS_15PointerListenerEE5ComboEE7pointerEv;2B.(59,81):_ZN6MAUtil6VectorINS_11ListenerSetINS_15PointerListenerEE5ComboEE7pointerEv;2A.;;",128,0,95,0
	.stabs	"ListenerSet<MAUtil::PointerListener>:Tt(59,86)=s16mRunning:/0(0,4),0,8;mUpdateRequired:/0(0,4),8,8;mShouldDelete:/0(0,4),16,8;mVec:/0(59,58),32,96;__base_ctor::(59,87)=#(59,86),(0,6),(59,88)=*(59,86),(0,4),(0,6);:_ZN6MAUtil11ListenerSetINS_15PointerListenerEEC2Eb;2A.;__comp_ctor::(59,87):_ZN6MAUtil11ListenerSetINS_15PointerListenerEEC1Eb;2A.;begin::(59,89)=#(59,86),(59,90)=xsiterator:,(59,88),(0,6);:_ZN6MAUtil11ListenerSetINS_15PointerListenerEE5beginEv;2A.;add::(59,91)=#(59,86),(0,6),(59,88),(59,92)=*(59,93)=xsPointerListener:,(0,6);:_ZN6MAUtil11ListenerSetINS_15PointerListenerEE3addEPS1_;2A.;remove::(59,91):_ZN6MAUtil11ListenerSetINS_15PointerListenerEE6removeEPS1_;2A.;contains::(59,94)=#(59,86),(0,4),(59,88),(59,92),(0,6);:_ZN6MAUtil11ListenerSetINS_15PointerListenerEE8containsEPS1_;2A.;setRunning::(59,95)=#(59,86),(0,6),(59,88),(0,4),(0,6);:_ZN6MAUtil11ListenerSetINS_15PointerListenerEE10setRunningEb;2A.;size::(59,96)=#(59,86),(0,3),(59,97)=*(59,98)=k(59,86),(0,6);:_ZNK6MAUtil11ListenerSetINS_15PointerListenerEE4sizeEv;2B.;operator=::(59,99)=#(59,86),(59,100)=&(59,86),(59,88),(59,101)=&(59,98),(0,6);:_ZN6MAUtil11ListenerSetINS_15PointerListenerEEaSERKS2_;2A.;__base_ctor::(59,102)=#(59,86),(0,6),(59,88),(59,101),(0,6);:_ZN6MAUtil11ListenerSetINS_15PointerListenerEEC2ERKS2_;2A.;__comp_ctor::(59,102):_ZN6MAUtil11ListenerSetINS_15PointerListenerEEC1ERKS2_;2A.;__base_dtor::(59,103)=#(59,86),(0,6),(59,88),(0,6);:_ZN6MAUtil11ListenerSetINS_15PointerListenerEED2Ev;2A.;__comp_dtor::(59,103):_ZN6MAUtil11ListenerSetINS_15PointerListenerEED1Ev;2A.;;",128,0,46,0
	.stabs	"Vector<MAUtil::CloseListener*>:Tt(59,104)=s12mSize:/1(0,3),0,32;mCapacity:/1(0,3),32,32;mData:/1(59,105)=*(59,106)=*(59,107)=xsCloseListener:,64,32;__base_ctor::(59,108)=#(59,104),(0,6),(59,109)=*(59,104),(0,3),(0,6);:_ZN6MAUtil6VectorIPNS_13CloseListenerEEC2Ei;2A.;__comp_ctor::(59,108):_ZN6MAUtil6VectorIPNS_13CloseListenerEEC1Ei;2A.;__base_ctor::(59,110)=#(59,104),(0,6),(59,109),(59,111)=*(59,112)=k(59,106),(0,3),(0,6);:_ZN6MAUtil6VectorIPNS_13CloseListenerEEC2EPKS2_i;2A.;__comp_ctor::(59,110):_ZN6MAUtil6VectorIPNS_13CloseListenerEEC1EPKS2_i;2A.;__base_ctor::(59,113)=#(59,104),(0,6),(59,109),(59,114)=&(59,115)=k(59,104),(0,6);:_ZN6MAUtil6VectorIPNS_13CloseListenerEEC2ERKS3_;2A.;__comp_ctor::(59,113):_ZN6MAUtil6VectorIPNS_13CloseListenerEEC1ERKS3_;2A.;__base_dtor::(59,116)=#(59,104),(0,6),(59,109),(0,6);:_ZN6MAUtil6VectorIPNS_13CloseListenerEED2Ev;2A.;__comp_dtor::(59,116):_ZN6MAUtil6VectorIPNS_13CloseListenerEED1Ev;2A.;operator=::(59,117)=#(59,104),(59,118)=&(59,104),(59,109),(59,114),(0,6);:_ZN6MAUtil6VectorIPNS_13CloseListenerEEaSERKS3_;2A.;add::(59,119)=#(59,104),(0,6),(59,109),(59,120)=&(59,112),(0,6);:_ZN6MAUtil6VectorIPNS_13CloseListenerEE3addERKS2_;2A.(59,110):_ZN6MAUtil6VectorIPNS_13CloseListenerEE3addEPKS2_i;2A.;remove::(59,121)=#(59,104),(0,6),(59,109),(59,105),(0,6);:_ZN6MAUtil6VectorIPNS_13CloseListenerEE6removeEPS2_;2A.(59,122)=#(59,104),(0,6),(59,109),(0,3),(0,6);:_ZN6MAUtil6VectorIPNS_13CloseListenerEE6removeEi;2A.(59,123)=#(59,104),(0,6),(59,109),(0,3),(0,3),(0,6);:_ZN6MAUtil6VectorIPNS_13CloseListenerEE6removeEii;2A.;insert::(59,124)=#(59,104),(0,6),(59,109),(0,3),(59,106),(0,6);:_ZN6MAUtil6VectorIPNS_13CloseListenerEE6insertEiS2_;2A.;size::(59,125)=#(59,104),(0,3),(59,126)=*(59,115),(0,6);:_ZNK6MAUtil6VectorIPNS_13CloseListenerEE4sizeEv;2B.;resize::(59,122):_ZN6MAUtil6VectorIPNS_13CloseListenerEE6resizeEi;2A.;reserve::(59,122):_ZN6MAUtil6VectorIPNS_13CloseListenerEE7reserveEi;2A.;clear::(59,116):_ZN6MAUtil6VectorIPNS_13CloseListenerEE5clearEv;2A.;empty::(59,127)=#(59,104),(0,4),(59,126),(0,6);:_ZNK6MAUtil6VectorIPNS_13CloseListenerEE5emptyEv;2B.;capacity::(59,125):_ZNK6MAUtil6VectorIPNS_13CloseListenerEE8capacityEv;2B.;begin::(59,128)=#(59,104),(59,105),(59,109),(0,6);:_ZN6MAUtil6VectorIPNS_13CloseListenerEE5beginEv;2A.;end::(59,128):_ZN6MAUtil6VectorIPNS_13CloseListenerEE3endEv;2A.;begin::(59,129)=#(59,104),(59,111),(59,126),(0,6);:_ZNK6MAUtil6VectorIPNS_13CloseListenerEE5beginEv;2B.;end::(59,129):_ZNK6MAUtil6VectorIPNS_13CloseListenerEE3endEv;2B.;operator[]::(59,130)=#(59,104),(59,131)=&(59,106),(59,109),(0,3),(0,6);:_ZN6MAUtil6VectorIPNS_13CloseListenerEEixEi;2A.(59,132)=#(59,104),(59,120),(59,126),(0,3),(0,6);:_ZNK6MAUtil6VectorIPNS_13CloseListenerEEixEi;2B.;pointer::(59,129):_ZNK6MAUtil6VectorIPNS_13CloseListenerEE7pointerEv;2B.(59,128):_ZN6MAUtil6VectorIPNS_13CloseListenerEE7pointerEv;2A.;;",128,0,95,0
	.stabs	"Vector<MAUtil::ListenerSet<MAUtil::ConnListener>::Combo>:Tt(59,133)=s12mSize:/1(0,3),0,32;mCapacity:/1(0,3),32,32;mData:/1(59,134)=*(59,135)=xsCombo:,64,32;__base_ctor::(59,136)=#(59,133),(0,6),(59,137)=*(59,133),(0,3),(0,6);:_ZN6MAUtil6VectorINS_11ListenerSetINS_12ConnListenerEE5ComboEEC2Ei;2A.;__comp_ctor::(59,136):_ZN6MAUtil6VectorINS_11ListenerSetINS_12ConnListenerEE5ComboEEC1Ei;2A.;__base_ctor::(59,138)=#(59,133),(0,6),(59,137),(59,139)=*(59,140)=k(59,135),(0,3),(0,6);:_ZN6MAUtil6VectorINS_11ListenerSetINS_12ConnListenerEE5ComboEEC2EPKS4_i;2A.;__comp_ctor::(59,138):_ZN6MAUtil6VectorINS_11ListenerSetINS_12ConnListenerEE5ComboEEC1EPKS4_i;2A.;__base_ctor::(59,141)=#(59,133),(0,6),(59,137),(59,142)=&(59,143)=k(59,133),(0,6);:_ZN6MAUtil6VectorINS_11ListenerSetINS_12ConnListenerEE5ComboEEC2ERKS5_;2A.;__comp_ctor::(59,141):_ZN6MAUtil6VectorINS_11ListenerSetINS_12ConnListenerEE5ComboEEC1ERKS5_;2A.;__base_dtor::(59,144)=#(59,133),(0,6),(59,137),(0,6);:_ZN6MAUtil6VectorINS_11ListenerSetINS_12ConnListenerEE5ComboEED2Ev;2A.;__comp_dtor::(59,144):_ZN6MAUtil6VectorINS_11ListenerSetINS_12ConnListenerEE5ComboEED1Ev;2A.;operator=::(59,145)=#(59,133),(59,146)=&(59,133),(59,137),(59,142),(0,6);:_ZN6MAUtil6VectorINS_11ListenerSetINS_12ConnListenerEE5ComboEEaSERKS5_;2A.;add::(59,147)=#(59,133),(0,6),(59,137),(59,148)=&(59,140),(0,6);:_ZN6MAUtil6VectorINS_11ListenerSetINS_12ConnListenerEE5ComboEE3addERKS4_;2A.(59,138):_ZN6MAUtil6VectorINS_11ListenerSetINS_12ConnListenerEE5ComboEE3addEPKS4_i;2A.;remove::(59,149)=#(59,133),(0,6),(59,137),(59,134),(0,6);:_ZN6MAUtil6VectorINS_11ListenerSetINS_12ConnListenerEE5ComboEE6removeEPS4_;2A.(59,150)=#(59,133),(0,6),(59,137),(0,3),(0,6);:_ZN6MAUtil6VectorINS_11ListenerSetINS_12ConnListenerEE5ComboEE6removeEi;2A.(59,151)=#(59,133),(0,6),(59,137),(0,3),(0,3),(0,6);:_ZN6MAUtil6VectorINS_11ListenerSetINS_12ConnListenerEE5ComboEE6removeEii;2A.;insert::(59,152)=#(59,133),(0,6),(59,137),(0,3),(59,135),(0,6);:_ZN6MAUtil6VectorINS_11ListenerSetINS_12ConnListenerEE5ComboEE6insertEiS4_;2A.;size::(59,153)=#(59,133),(0,3),(59,154)=*(59,143),(0,6);:_ZNK6MAUtil6VectorINS_11ListenerSetINS_12ConnListenerEE5ComboEE4sizeEv;2B.;resize::(59,150):_ZN6MAUtil6VectorINS_11ListenerSetINS_12ConnListenerEE5ComboEE6resizeEi;2A.;reserve::(59,150):_ZN6MAUtil6VectorINS_11ListenerSetINS_12ConnListenerEE5ComboEE7reserveEi;2A.;clear::(59,144):_ZN6MAUtil6VectorINS_11ListenerSetINS_12ConnListenerEE5ComboEE5clearEv;2A.;empty::(59,155)=#(59,133),(0,4),(59,154),(0,6);:_ZNK6MAUtil6VectorINS_11ListenerSetINS_12ConnListenerEE5ComboEE5emptyEv;2B.;capacity::(59,153):_ZNK6MAUtil6VectorINS_11ListenerSetINS_12ConnListenerEE5ComboEE8capacityEv;2B.;begin::(59,156)=#(59,133),(59,134),(59,137),(0,6);:_ZN6MAUtil6VectorINS_11ListenerSetINS_12ConnListenerEE5ComboEE5beginEv;2A.;end::(59,156):_ZN6MAUtil6VectorINS_11ListenerSetINS_12ConnListenerEE5ComboEE3endEv;2A.;begin::(59,157)=#(59,133),(59,139),(59,154),(0,6);:_ZNK6MAUtil6VectorINS_11ListenerSetINS_12ConnListenerEE5ComboEE5beginEv;2B.;end::(59,157):_ZNK6MAUtil6VectorINS_11ListenerSetINS_12ConnListenerEE5ComboEE3endEv;2B.;operator[]::(59,158)=#(59,133),(59,159)=&(59,135),(59,137),(0,3),(0,6);:_ZN6MAUtil6VectorINS_11ListenerSetINS_12ConnListenerEE5ComboEEixEi;2A.(59,160)=#(59,133),(59,148),(59,154),(0,3),(0,6);:_ZNK6MAUtil6VectorINS_11ListenerSetINS_12ConnListenerEE5ComboEEixEi;2B.;pointer::(59,157):_ZNK6MAUtil6VectorINS_11ListenerSetINS_12ConnListenerEE5ComboEE7pointerEv;2B.(59,156):_ZN6MAUtil6VectorINS_11ListenerSetINS_12ConnListenerEE5ComboEE7pointerEv;2A.;;",128,0,95,0
	.stabs	"ListenerSet<MAUtil::ConnListener>:Tt(59,161)=s16mRunning:/0(0,4),0,8;mUpdateRequired:/0(0,4),8,8;mShouldDelete:/0(0,4),16,8;mVec:/0(59,133),32,96;__base_ctor::(59,162)=#(59,161),(0,6),(59,163)=*(59,161),(0,4),(0,6);:_ZN6MAUtil11ListenerSetINS_12ConnListenerEEC2Eb;2A.;__comp_ctor::(59,162):_ZN6MAUtil11ListenerSetINS_12ConnListenerEEC1Eb;2A.;begin::(59,164)=#(59,161),(59,165)=xsiterator:,(59,163),(0,6);:_ZN6MAUtil11ListenerSetINS_12ConnListenerEE5beginEv;2A.;add::(59,166)=#(59,161),(0,6),(59,163),(59,167)=*(59,168)=xsConnListener:,(0,6);:_ZN6MAUtil11ListenerSetINS_12ConnListenerEE3addEPS1_;2A.;remove::(59,166):_ZN6MAUtil11ListenerSetINS_12ConnListenerEE6removeEPS1_;2A.;contains::(59,169)=#(59,161),(0,4),(59,163),(59,167),(0,6);:_ZN6MAUtil11ListenerSetINS_12ConnListenerEE8containsEPS1_;2A.;setRunning::(59,170)=#(59,161),(0,6),(59,163),(0,4),(0,6);:_ZN6MAUtil11ListenerSetINS_12ConnListenerEE10setRunningEb;2A.;size::(59,171)=#(59,161),(0,3),(59,172)=*(59,173)=k(59,161),(0,6);:_ZNK6MAUtil11ListenerSetINS_12ConnListenerEE4sizeEv;2B.;operator=::(59,174)=#(59,161),(59,175)=&(59,161),(59,163),(59,176)=&(59,173),(0,6);:_ZN6MAUtil11ListenerSetINS_12ConnListenerEEaSERKS2_;2A.;__base_ctor::(59,177)=#(59,161),(0,6),(59,163),(59,176),(0,6);:_ZN6MAUtil11ListenerSetINS_12ConnListenerEEC2ERKS2_;2A.;__comp_ctor::(59,177):_ZN6MAUtil11ListenerSetINS_12ConnListenerEEC1ERKS2_;2A.;__base_dtor::(59,178)=#(59,161),(0,6),(59,163),(0,6);:_ZN6MAUtil11ListenerSetINS_12ConnListenerEED2Ev;2A.;__comp_dtor::(59,178):_ZN6MAUtil11ListenerSetINS_12ConnListenerEED1Ev;2A.;;",128,0,46,0
	.stabs	"Vector<MAUtil::ListenerSet<MAUtil::IdleListener>::Combo>:Tt(59,179)=s12mSize:/1(0,3),0,32;mCapacity:/1(0,3),32,32;mData:/1(59,180)=*(59,181)=xsCombo:,64,32;__base_ctor::(59,182)=#(59,179),(0,6),(59,183)=*(59,179),(0,3),(0,6);:_ZN6MAUtil6VectorINS_11ListenerSetINS_12IdleListenerEE5ComboEEC2Ei;2A.;__comp_ctor::(59,182):_ZN6MAUtil6VectorINS_11ListenerSetINS_12IdleListenerEE5ComboEEC1Ei;2A.;__base_ctor::(59,184)=#(59,179),(0,6),(59,183),(59,185)=*(59,186)=k(59,181),(0,3),(0,6);:_ZN6MAUtil6VectorINS_11ListenerSetINS_12IdleListenerEE5ComboEEC2EPKS4_i;2A.;__comp_ctor::(59,184):_ZN6MAUtil6VectorINS_11ListenerSetINS_12IdleListenerEE5ComboEEC1EPKS4_i;2A.;__base_ctor::(59,187)=#(59,179),(0,6),(59,183),(59,188)=&(59,189)=k(59,179),(0,6);:_ZN6MAUtil6VectorINS_11ListenerSetINS_12IdleListenerEE5ComboEEC2ERKS5_;2A.;__comp_ctor::(59,187):_ZN6MAUtil6VectorINS_11ListenerSetINS_12IdleListenerEE5ComboEEC1ERKS5_;2A.;__base_dtor::(59,190)=#(59,179),(0,6),(59,183),(0,6);:_ZN6MAUtil6VectorINS_11ListenerSetINS_12IdleListenerEE5ComboEED2Ev;2A.;__comp_dtor::(59,190):_ZN6MAUtil6VectorINS_11ListenerSetINS_12IdleListenerEE5ComboEED1Ev;2A.;operator=::(59,191)=#(59,179),(59,192)=&(59,179),(59,183),(59,188),(0,6);:_ZN6MAUtil6VectorINS_11ListenerSetINS_12IdleListenerEE5ComboEEaSERKS5_;2A.;add::(59,193)=#(59,179),(0,6),(59,183),(59,194)=&(59,186),(0,6);:_ZN6MAUtil6VectorINS_11ListenerSetINS_12IdleListenerEE5ComboEE3addERKS4_;2A.(59,184):_ZN6MAUtil6VectorINS_11ListenerSetINS_12IdleListenerEE5ComboEE3addEPKS4_i;2A.;remove::(59,195)=#(59,179),(0,6),(59,183),(59,180),(0,6);:_ZN6MAUtil6VectorINS_11ListenerSetINS_12IdleListenerEE5ComboEE6removeEPS4_;2A.(59,196)=#(59,179),(0,6),(59,183),(0,3),(0,6);:_ZN6MAUtil6VectorINS_11ListenerSetINS_12IdleListenerEE5ComboEE6removeEi;2A.(59,197)=#(59,179),(0,6),(59,183),(0,3),(0,3),(0,6);:_ZN6MAUtil6VectorINS_11ListenerSetINS_12IdleListenerEE5ComboEE6removeEii;2A.;insert::(59,198)=#(59,179),(0,6),(59,183),(0,3),(59,181),(0,6);:_ZN6MAUtil6VectorINS_11ListenerSetINS_12IdleListenerEE5ComboEE6insertEiS4_;2A.;size::(59,199)=#(59,179),(0,3),(59,200)=*(59,189),(0,6);:_ZNK6MAUtil6VectorINS_11ListenerSetINS_12IdleListenerEE5ComboEE4sizeEv;2B.;resize::(59,196):_ZN6MAUtil6VectorINS_11ListenerSetINS_12IdleListenerEE5ComboEE6resizeEi;2A.;reserve::(59,196):_ZN6MAUtil6VectorINS_11ListenerSetINS_12IdleListenerEE5ComboEE7reserveEi;2A.;clear::(59,190):_ZN6MAUtil6VectorINS_11ListenerSetINS_12IdleListenerEE5ComboEE5clearEv;2A.;empty::(59,201)=#(59,179),(0,4),(59,200),(0,6);:_ZNK6MAUtil6VectorINS_11ListenerSetINS_12IdleListenerEE5ComboEE5emptyEv;2B.;capacity::(59,199):_ZNK6MAUtil6VectorINS_11ListenerSetINS_12IdleListenerEE5ComboEE8capacityEv;2B.;begin::(59,202)=#(59,179),(59,180),(59,183),(0,6);:_ZN6MAUtil6VectorINS_11ListenerSetINS_12IdleListenerEE5ComboEE5beginEv;2A.;end::(59,202):_ZN6MAUtil6VectorINS_11ListenerSetINS_12IdleListenerEE5ComboEE3endEv;2A.;begin::(59,203)=#(59,179),(59,185),(59,200),(0,6);:_ZNK6MAUtil6VectorINS_11ListenerSetINS_12IdleListenerEE5ComboEE5beginEv;2B.;end::(59,203):_ZNK6MAUtil6VectorINS_11ListenerSetINS_12IdleListenerEE5ComboEE3endEv;2B.;operator[]::(59,204)=#(59,179),(59,205)=&(59,181),(59,183),(0,3),(0,6);:_ZN6MAUtil6VectorINS_11ListenerSetINS_12IdleListenerEE5ComboEEixEi;2A.(59,206)=#(59,179),(59,194),(59,200),(0,3),(0,6);:_ZNK6MAUtil6VectorINS_11ListenerSetINS_12IdleListenerEE5ComboEEixEi;2B.;pointer::(59,203):_ZNK6MAUtil6VectorINS_11ListenerSetINS_12IdleListenerEE5ComboEE7pointerEv;2B.(59,202):_ZN6MAUtil6VectorINS_11ListenerSetINS_12IdleListenerEE5ComboEE7pointerEv;2A.;;",128,0,95,0
	.stabs	"ListenerSet<MAUtil::IdleListener>:Tt(59,207)=s16mRunning:/0(0,4),0,8;mUpdateRequired:/0(0,4),8,8;mShouldDelete:/0(0,4),16,8;mVec:/0(59,179),32,96;__base_ctor::(59,208)=#(59,207),(0,6),(59,209)=*(59,207),(0,4),(0,6);:_ZN6MAUtil11ListenerSetINS_12IdleListenerEEC2Eb;2A.;__comp_ctor::(59,208):_ZN6MAUtil11ListenerSetINS_12IdleListenerEEC1Eb;2A.;begin::(59,210)=#(59,207),(59,211)=xsiterator:,(59,209),(0,6);:_ZN6MAUtil11ListenerSetINS_12IdleListenerEE5beginEv;2A.;add::(59,212)=#(59,207),(0,6),(59,209),(59,213)=*(59,214)=xsIdleListener:,(0,6);:_ZN6MAUtil11ListenerSetINS_12IdleListenerEE3addEPS1_;2A.;remove::(59,212):_ZN6MAUtil11ListenerSetINS_12IdleListenerEE6removeEPS1_;2A.;contains::(59,215)=#(59,207),(0,4),(59,209),(59,213),(0,6);:_ZN6MAUtil11ListenerSetINS_12IdleListenerEE8containsEPS1_;2A.;setRunning::(59,216)=#(59,207),(0,6),(59,209),(0,4),(0,6);:_ZN6MAUtil11ListenerSetINS_12IdleListenerEE10setRunningEb;2A.;size::(59,217)=#(59,207),(0,3),(59,218)=*(59,219)=k(59,207),(0,6);:_ZNK6MAUtil11ListenerSetINS_12IdleListenerEE4sizeEv;2B.;operator=::(59,220)=#(59,207),(59,221)=&(59,207),(59,209),(59,222)=&(59,219),(0,6);:_ZN6MAUtil11ListenerSetINS_12IdleListenerEEaSERKS2_;2A.;__base_ctor::(59,223)=#(59,207),(0,6),(59,209),(59,222),(0,6);:_ZN6MAUtil11ListenerSetINS_12IdleListenerEEC2ERKS2_;2A.;__comp_ctor::(59,223):_ZN6MAUtil11ListenerSetINS_12IdleListenerEEC1ERKS2_;2A.;__base_dtor::(59,224)=#(59,207),(0,6),(59,209),(0,6);:_ZN6MAUtil11ListenerSetINS_12IdleListenerEED2Ev;2A.;__comp_dtor::(59,224):_ZN6MAUtil11ListenerSetINS_12IdleListenerEED1Ev;2A.;;",128,0,46,0
	.stabs	"Vector<MAUtil::ListenerSet<MAUtil::Environment::TimerEventInstance>::Combo>:Tt(59,225)=s12mSize:/1(0,3),0,32;mCapacity:/1(0,3),32,32;mData:/1(59,226)=*(59,227)=xsCombo:,64,32;__base_ctor::(59,228)=#(59,225),(0,6),(59,229)=*(59,225),(0,3),(0,6);:_ZN6MAUtil6VectorINS_11ListenerSetINS_11Environment18TimerEventInstanceEE5ComboEEC2Ei;2A.;__comp_ctor::(59,228):_ZN6MAUtil6VectorINS_11ListenerSetINS_11Environment18TimerEventInstanceEE5ComboEEC1Ei;2A.;__base_ctor::(59,230)=#(59,225),(0,6),(59,229),(59,231)=*(59,232)=k(59,227),(0,3),(0,6);:_ZN6MAUtil6VectorINS_11ListenerSetINS_11Environment18TimerEventInstanceEE5ComboEEC2EPKS5_i;2A.;__comp_ctor::(59,230):_ZN6MAUtil6VectorINS_11ListenerSetINS_11Environment18TimerEventInstanceEE5ComboEEC1EPKS5_i;2A.;__base_ctor::(59,233)=#(59,225),(0,6),(59,229),(59,234)=&(59,235)=k(59,225),(0,6);:_ZN6MAUtil6VectorINS_11ListenerSetINS_11Environment18TimerEventInstanceEE5ComboEEC2ERKS6_;2A.;__comp_ctor::(59,233):_ZN6MAUtil6VectorINS_11ListenerSetINS_11Environment18TimerEventInstanceEE5ComboEEC1ERKS6_;2A.;__base_dtor::(59,236)=#(59,225),(0,6),(59,229),(0,6);:_ZN6MAUtil6VectorINS_11ListenerSetINS_11Environment18TimerEventInstanceEE5ComboEED2Ev;2A.;__comp_dtor::(59,236):_ZN6MAUtil6VectorINS_11ListenerSetINS_11Environment18TimerEventInstanceEE5ComboEED1Ev;2A.;operator=::(59,237)=#(59,225),(59,238)=&(59,225),(59,229),(59,234),(0,6);:_ZN6MAUtil6VectorINS_11ListenerSetINS_11Environment18TimerEventInstanceEE5ComboEEaSERKS6_;2A.;add::(59,239)=#(59,225),(0,6),(59,229),(59,240)=&(59,232),(0,6);:_ZN6MAUtil6VectorINS_11ListenerSetINS_11Environment18TimerEventInstanceEE5ComboEE3addERKS5_;2A.(59,230):_ZN6MAUtil6VectorINS_11ListenerSetINS_11Environment18TimerEventInstanceEE5ComboEE3addEPKS5_i;2A.;remove::(59,241)=#(59,225),(0,6),(59,229),(59,226),(0,6);:_ZN6MAUtil6VectorINS_11ListenerSetINS_11Environment18TimerEventInstanceEE5ComboEE6removeEPS5_;2A.(59,242)=#(59,225),(0,6),(59,229),(0,3),(0,6);:_ZN6MAUtil6VectorINS_11ListenerSetINS_11Environment18TimerEventInstanceEE5ComboEE6removeEi;2A.(59,243)=#(59,225),(0,6),(59,229),(0,3),(0,3),(0,6);:_ZN6MAUtil6VectorINS_11ListenerSetINS_11Environment18TimerEventInstanceEE5ComboEE6removeEii;2A.;insert::(59,244)=#(59,225),(0,6),(59,229),(0,3),(59,227),(0,6);:_ZN6MAUtil6VectorINS_11ListenerSetINS_11Environment18TimerEventInstanceEE5ComboEE6insertEiS5_;2A.;size::(59,245)=#(59,225),(0,3),(59,246)=*(59,235),(0,6);:_ZNK6MAUtil6VectorINS_11ListenerSetINS_11Environment18TimerEventInstanceEE5ComboEE4sizeEv;2B.;resize::(59,242):_ZN6MAUtil6VectorINS_11ListenerSetINS_11Environment18TimerEventInstanceEE5ComboEE6resizeEi;2A.;reserve::(59,242):_ZN6MAUtil6VectorINS_11ListenerSetINS_11Environment18TimerEventInstanceEE5ComboEE7reserveEi;2A.;clear::(59,236):_ZN6MAUtil6VectorINS_11ListenerSetINS_11Environment18TimerEventInstanceEE5ComboEE5clearEv;2A.;empty::(59,247)=#(59,225),(0,4),(59,246),(0,6);:_ZNK6MAUtil6VectorINS_11ListenerSetINS_11Environment18TimerEventInstanceEE5ComboEE5emptyEv;2B.;capacity::(59,245):_ZNK6MAUtil6VectorINS_11ListenerSetINS_11Environment18TimerEventInstanceEE5ComboEE8capacityEv;2B.;begin::(59,248)=#(59,225),(59,226),(59,229),(0,6);:_ZN6MAUtil6VectorINS_11ListenerSetINS_11Environment18TimerEventInstanceEE5ComboEE5beginEv;2A.;end::(59,248):_ZN6MAUtil6VectorINS_11ListenerSetINS_11Environment18TimerEventInstanceEE5ComboEE3endEv;2A.;begin::(59,249)=#(59,225),(59,231),(59,246),(0,6);:_ZNK6MAUtil6VectorINS_11ListenerSetINS_11Environment18TimerEventInstanceEE5ComboEE5beginEv;2B.;end::(59,249):_ZNK6MAUtil6VectorINS_11ListenerSetINS_11Environment18TimerEventInstanceEE5ComboEE3endEv;2B.;operator[]::(59,250)=#(59,225),(59,251)=&(59,227),(59,229),(0,3),(0,6);:_ZN6MAUtil6VectorINS_11ListenerSetINS_11Environment18TimerEventInstanceEE5ComboEEixEi;2A.(59,252)=#(59,225),(59,240),(59,246),(0,3),(0,6);:_ZNK6MAUtil6VectorINS_11ListenerSetINS_11Environment18TimerEventInstanceEE5ComboEEixEi;2B.;pointer::(59,249):_ZNK6MAUtil6VectorINS_11ListenerSetINS_11Environment18TimerEventInstanceEE5ComboEE7pointerEv;2B.(59,248):_ZN6MAUtil6VectorINS_11ListenerSetINS_11Environment18TimerEventInstanceEE5ComboEE7pointerEv;2A.;;",128,0,95,0
	.stabs	"ListenerSet<MAUtil::Environment::TimerEventInstance>:Tt(59,253)=s16mRunning:/0(0,4),0,8;mUpdateRequired:/0(0,4),8,8;mShouldDelete:/0(0,4),16,8;mVec:/0(59,225),32,96;__base_ctor::(59,254)=#(59,253),(0,6),(59,255)=*(59,253),(0,4),(0,6);:_ZN6MAUtil11ListenerSetINS_11Environment18TimerEventInstanceEEC2Eb;2A.;__comp_ctor::(59,254):_ZN6MAUtil11ListenerSetINS_11Environment18TimerEventInstanceEEC1Eb;2A.;begin::(59,256)=#(59,253),(59,257)=xsiterator:,(59,255),(0,6);:_ZN6MAUtil11ListenerSetINS_11Environment18TimerEventInstanceEE5beginEv;2A.;add::(59,258)=#(59,253),(0,6),(59,255),(59,6),(0,6);:_ZN6MAUtil11ListenerSetINS_11Environment18TimerEventInstanceEE3addEPS2_;2A.;remove::(59,258):_ZN6MAUtil11ListenerSetINS_11Environment18TimerEventInstanceEE6removeEPS2_;2A.;contains::(59,259)=#(59,253),(0,4),(59,255),(59,6),(0,6);:_ZN6MAUtil11ListenerSetINS_11Environment18TimerEventInstanceEE8containsEPS2_;2A.;setRunning::(59,260)=#(59,253),(0,6),(59,255),(0,4),(0,6);:_ZN6MAUtil11ListenerSetINS_11Environment18TimerEventInstanceEE10setRunningEb;2A.;size::(59,261)=#(59,253),(0,3),(59,262)=*(59,263)=k(59,253),(0,6);:_ZNK6MAUtil11ListenerSetINS_11Environment18TimerEventInstanceEE4sizeEv;2B.;operator=::(59,264)=#(59,253),(59,265)=&(59,253),(59,255),(59,266)=&(59,263),(0,6);:_ZN6MAUtil11ListenerSetINS_11Environment18TimerEventInstanceEEaSERKS3_;2A.;__base_ctor::(59,267)=#(59,253),(0,6),(59,255),(59,266),(0,6);:_ZN6MAUtil11ListenerSetINS_11Environment18TimerEventInstanceEEC2ERKS3_;2A.;__comp_ctor::(59,267):_ZN6MAUtil11ListenerSetINS_11Environment18TimerEventInstanceEEC1ERKS3_;2A.;__base_dtor::(59,268)=#(59,253),(0,6),(59,255),(0,6);:_ZN6MAUtil11ListenerSetINS_11Environment18TimerEventInstanceEED2Ev;2A.;__comp_dtor::(59,268):_ZN6MAUtil11ListenerSetINS_11Environment18TimerEventInstanceEED1Ev;2A.;;",128,0,46,0
	.stabs	"Vector<MAUtil::ListenerSet<MAUtil::FocusListener>::Combo>:Tt(59,269)=s12mSize:/1(0,3),0,32;mCapacity:/1(0,3),32,32;mData:/1(59,270)=*(59,271)=xsCombo:,64,32;__base_ctor::(59,272)=#(59,269),(0,6),(59,273)=*(59,269),(0,3),(0,6);:_ZN6MAUtil6VectorINS_11ListenerSetINS_13FocusListenerEE5ComboEEC2Ei;2A.;__comp_ctor::(59,272):_ZN6MAUtil6VectorINS_11ListenerSetINS_13FocusListenerEE5ComboEEC1Ei;2A.;__base_ctor::(59,274)=#(59,269),(0,6),(59,273),(59,275)=*(59,276)=k(59,271),(0,3),(0,6);:_ZN6MAUtil6VectorINS_11ListenerSetINS_13FocusListenerEE5ComboEEC2EPKS4_i;2A.;__comp_ctor::(59,274):_ZN6MAUtil6VectorINS_11ListenerSetINS_13FocusListenerEE5ComboEEC1EPKS4_i;2A.;__base_ctor::(59,277)=#(59,269),(0,6),(59,273),(59,278)=&(59,279)=k(59,269),(0,6);:_ZN6MAUtil6VectorINS_11ListenerSetINS_13FocusListenerEE5ComboEEC2ERKS5_;2A.;__comp_ctor::(59,277):_ZN6MAUtil6VectorINS_11ListenerSetINS_13FocusListenerEE5ComboEEC1ERKS5_;2A.;__base_dtor::(59,280)=#(59,269),(0,6),(59,273),(0,6);:_ZN6MAUtil6VectorINS_11ListenerSetINS_13FocusListenerEE5ComboEED2Ev;2A.;__comp_dtor::(59,280):_ZN6MAUtil6VectorINS_11ListenerSetINS_13FocusListenerEE5ComboEED1Ev;2A.;operator=::(59,281)=#(59,269),(59,282)=&(59,269),(59,273),(59,278),(0,6);:_ZN6MAUtil6VectorINS_11ListenerSetINS_13FocusListenerEE5ComboEEaSERKS5_;2A.;add::(59,283)=#(59,269),(0,6),(59,273),(59,284)=&(59,276),(0,6);:_ZN6MAUtil6VectorINS_11ListenerSetINS_13FocusListenerEE5ComboEE3addERKS4_;2A.(59,274):_ZN6MAUtil6VectorINS_11ListenerSetINS_13FocusListenerEE5ComboEE3addEPKS4_i;2A.;remove::(59,285)=#(59,269),(0,6),(59,273),(59,270),(0,6);:_ZN6MAUtil6VectorINS_11ListenerSetINS_13FocusListenerEE5ComboEE6removeEPS4_;2A.(59,286)=#(59,269),(0,6),(59,273),(0,3),(0,6);:_ZN6MAUtil6VectorINS_11ListenerSetINS_13FocusListenerEE5ComboEE6removeEi;2A.(59,287)=#(59,269),(0,6),(59,273),(0,3),(0,3),(0,6);:_ZN6MAUtil6VectorINS_11ListenerSetINS_13FocusListenerEE5ComboEE6removeEii;2A.;insert::(59,288)=#(59,269),(0,6),(59,273),(0,3),(59,271),(0,6);:_ZN6MAUtil6VectorINS_11ListenerSetINS_13FocusListenerEE5ComboEE6insertEiS4_;2A.;size::(59,289)=#(59,269),(0,3),(59,290)=*(59,279),(0,6);:_ZNK6MAUtil6VectorINS_11ListenerSetINS_13FocusListenerEE5ComboEE4sizeEv;2B.;resize::(59,286):_ZN6MAUtil6VectorINS_11ListenerSetINS_13FocusListenerEE5ComboEE6resizeEi;2A.;reserve::(59,286):_ZN6MAUtil6VectorINS_11ListenerSetINS_13FocusListenerEE5ComboEE7reserveEi;2A.;clear::(59,280):_ZN6MAUtil6VectorINS_11ListenerSetINS_13FocusListenerEE5ComboEE5clearEv;2A.;empty::(59,291)=#(59,269),(0,4),(59,290),(0,6);:_ZNK6MAUtil6VectorINS_11ListenerSetINS_13FocusListenerEE5ComboEE5emptyEv;2B.;capacity::(59,289):_ZNK6MAUtil6VectorINS_11ListenerSetINS_13FocusListenerEE5ComboEE8capacityEv;2B.;begin::(59,292)=#(59,269),(59,270),(59,273),(0,6);:_ZN6MAUtil6VectorINS_11ListenerSetINS_13FocusListenerEE5ComboEE5beginEv;2A.;end::(59,292):_ZN6MAUtil6VectorINS_11ListenerSetINS_13FocusListenerEE5ComboEE3endEv;2A.;begin::(59,293)=#(59,269),(59,275),(59,290),(0,6);:_ZNK6MAUtil6VectorINS_11ListenerSetINS_13FocusListenerEE5ComboEE5beginEv;2B.;end::(59,293):_ZNK6MAUtil6VectorINS_11ListenerSetINS_13FocusListenerEE5ComboEE3endEv;2B.;operator[]::(59,294)=#(59,269),(59,295)=&(59,271),(59,273),(0,3),(0,6);:_ZN6MAUtil6VectorINS_11ListenerSetINS_13FocusListenerEE5ComboEEixEi;2A.(59,296)=#(59,269),(59,284),(59,290),(0,3),(0,6);:_ZNK6MAUtil6VectorINS_11ListenerSetINS_13FocusListenerEE5ComboEEixEi;2B.;pointer::(59,293):_ZNK6MAUtil6VectorINS_11ListenerSetINS_13FocusListenerEE5ComboEE7pointerEv;2B.(59,292):_ZN6MAUtil6VectorINS_11ListenerSetINS_13FocusListenerEE5ComboEE7pointerEv;2A.;;",128,0,95,0
	.stabs	"ListenerSet<MAUtil::FocusListener>:Tt(59,297)=s16mRunning:/0(0,4),0,8;mUpdateRequired:/0(0,4),8,8;mShouldDelete:/0(0,4),16,8;mVec:/0(59,269),32,96;__base_ctor::(59,298)=#(59,297),(0,6),(59,299)=*(59,297),(0,4),(0,6);:_ZN6MAUtil11ListenerSetINS_13FocusListenerEEC2Eb;2A.;__comp_ctor::(59,298):_ZN6MAUtil11ListenerSetINS_13FocusListenerEEC1Eb;2A.;begin::(59,300)=#(59,297),(59,301)=xsiterator:,(59,299),(0,6);:_ZN6MAUtil11ListenerSetINS_13FocusListenerEE5beginEv;2A.;add::(59,302)=#(59,297),(0,6),(59,299),(59,303)=*(59,304)=xsFocusListener:,(0,6);:_ZN6MAUtil11ListenerSetINS_13FocusListenerEE3addEPS1_;2A.;remove::(59,302):_ZN6MAUtil11ListenerSetINS_13FocusListenerEE6removeEPS1_;2A.;contains::(59,305)=#(59,297),(0,4),(59,299),(59,303),(0,6);:_ZN6MAUtil11ListenerSetINS_13FocusListenerEE8containsEPS1_;2A.;setRunning::(59,306)=#(59,297),(0,6),(59,299),(0,4),(0,6);:_ZN6MAUtil11ListenerSetINS_13FocusListenerEE10setRunningEb;2A.;size::(59,307)=#(59,297),(0,3),(59,308)=*(59,309)=k(59,297),(0,6);:_ZNK6MAUtil11ListenerSetINS_13FocusListenerEE4sizeEv;2B.;operator=::(59,310)=#(59,297),(59,311)=&(59,297),(59,299),(59,312)=&(59,309),(0,6);:_ZN6MAUtil11ListenerSetINS_13FocusListenerEEaSERKS2_;2A.;__base_ctor::(59,313)=#(59,297),(0,6),(59,299),(59,312),(0,6);:_ZN6MAUtil11ListenerSetINS_13FocusListenerEEC2ERKS2_;2A.;__comp_ctor::(59,313):_ZN6MAUtil11ListenerSetINS_13FocusListenerEEC1ERKS2_;2A.;__base_dtor::(59,314)=#(59,297),(0,6),(59,299),(0,6);:_ZN6MAUtil11ListenerSetINS_13FocusListenerEED2Ev;2A.;__comp_dtor::(59,314):_ZN6MAUtil11ListenerSetINS_13FocusListenerEED1Ev;2A.;;",128,0,46,0
	.stabs	"Vector<MAUtil::ListenerSet<MAUtil::CustomEventListener>::Combo>:Tt(59,315)=s12mSize:/1(0,3),0,32;mCapacity:/1(0,3),32,32;mData:/1(59,316)=*(59,317)=xsCombo:,64,32;__base_ctor::(59,318)=#(59,315),(0,6),(59,319)=*(59,315),(0,3),(0,6);:_ZN6MAUtil6VectorINS_11ListenerSetINS_19CustomEventListenerEE5ComboEEC2Ei;2A.;__comp_ctor::(59,318):_ZN6MAUtil6VectorINS_11ListenerSetINS_19CustomEventListenerEE5ComboEEC1Ei;2A.;__base_ctor::(59,320)=#(59,315),(0,6),(59,319),(59,321)=*(59,322)=k(59,317),(0,3),(0,6);:_ZN6MAUtil6VectorINS_11ListenerSetINS_19CustomEventListenerEE5ComboEEC2EPKS4_i;2A.;__comp_ctor::(59,320):_ZN6MAUtil6VectorINS_11ListenerSetINS_19CustomEventListenerEE5ComboEEC1EPKS4_i;2A.;__base_ctor::(59,323)=#(59,315),(0,6),(59,319),(59,324)=&(59,325)=k(59,315),(0,6);:_ZN6MAUtil6VectorINS_11ListenerSetINS_19CustomEventListenerEE5ComboEEC2ERKS5_;2A.;__comp_ctor::(59,323):_ZN6MAUtil6VectorINS_11ListenerSetINS_19CustomEventListenerEE5ComboEEC1ERKS5_;2A.;__base_dtor::(59,326)=#(59,315),(0,6),(59,319),(0,6);:_ZN6MAUtil6VectorINS_11ListenerSetINS_19CustomEventListenerEE5ComboEED2Ev;2A.;__comp_dtor::(59,326):_ZN6MAUtil6VectorINS_11ListenerSetINS_19CustomEventListenerEE5ComboEED1Ev;2A.;operator=::(59,327)=#(59,315),(59,328)=&(59,315),(59,319),(59,324),(0,6);:_ZN6MAUtil6VectorINS_11ListenerSetINS_19CustomEventListenerEE5ComboEEaSERKS5_;2A.;add::(59,329)=#(59,315),(0,6),(59,319),(59,330)=&(59,322),(0,6);:_ZN6MAUtil6VectorINS_11ListenerSetINS_19CustomEventListenerEE5ComboEE3addERKS4_;2A.(59,320):_ZN6MAUtil6VectorINS_11ListenerSetINS_19CustomEventListenerEE5ComboEE3addEPKS4_i;2A.;remove::(59,331)=#(59,315),(0,6),(59,319),(59,316),(0,6);:_ZN6MAUtil6VectorINS_11ListenerSetINS_19CustomEventListenerEE5ComboEE6removeEPS4_;2A.(59,332)=#(59,315),(0,6),(59,319),(0,3),(0,6);:_ZN6MAUtil6VectorINS_11ListenerSetINS_19CustomEventListenerEE5ComboEE6removeEi;2A.(59,333)=#(59,315),(0,6),(59,319),(0,3),(0,3),(0,6);:_ZN6MAUtil6VectorINS_11ListenerSetINS_19CustomEventListenerEE5ComboEE6removeEii;2A.;insert::(59,334)=#(59,315),(0,6),(59,319),(0,3),(59,317),(0,6);:_ZN6MAUtil6VectorINS_11ListenerSetINS_19CustomEventListenerEE5ComboEE6insertEiS4_;2A.;size::(59,335)=#(59,315),(0,3),(59,336)=*(59,325),(0,6);:_ZNK6MAUtil6VectorINS_11ListenerSetINS_19CustomEventListenerEE5ComboEE4sizeEv;2B.;resize::(59,332):_ZN6MAUtil6VectorINS_11ListenerSetINS_19CustomEventListenerEE5ComboEE6resizeEi;2A.;reserve::(59,332):_ZN6MAUtil6VectorINS_11ListenerSetINS_19CustomEventListenerEE5ComboEE7reserveEi;2A.;clear::(59,326):_ZN6MAUtil6VectorINS_11ListenerSetINS_19CustomEventListenerEE5ComboEE5clearEv;2A.;empty::(59,337)=#(59,315),(0,4),(59,336),(0,6);:_ZNK6MAUtil6VectorINS_11ListenerSetINS_19CustomEventListenerEE5ComboEE5emptyEv;2B.;capacity::(59,335):_ZNK6MAUtil6VectorINS_11ListenerSetINS_19CustomEventListenerEE5ComboEE8capacityEv;2B.;begin::(59,338)=#(59,315),(59,316),(59,319),(0,6);:_ZN6MAUtil6VectorINS_11ListenerSetINS_19CustomEventListenerEE5ComboEE5beginEv;2A.;end::(59,338):_ZN6MAUtil6VectorINS_11ListenerSetINS_19CustomEventListenerEE5ComboEE3endEv;2A.;begin::(59,339)=#(59,315),(59,321),(59,336),(0,6);:_ZNK6MAUtil6VectorINS_11ListenerSetINS_19CustomEventListenerEE5ComboEE5beginEv;2B.;end::(59,339):_ZNK6MAUtil6VectorINS_11ListenerSetINS_19CustomEventListenerEE5ComboEE3endEv;2B.;operator[]::(59,340)=#(59,315),(59,341)=&(59,317),(59,319),(0,3),(0,6);:_ZN6MAUtil6VectorINS_11ListenerSetINS_19CustomEventListenerEE5ComboEEixEi;2A.(59,342)=#(59,315),(59,330),(59,336),(0,3),(0,6);:_ZNK6MAUtil6VectorINS_11ListenerSetINS_19CustomEventListenerEE5ComboEEixEi;2B.;pointer::(59,339):_ZNK6MAUtil6VectorINS_11ListenerSetINS_19CustomEventListenerEE5ComboEE7pointerEv;2B.(59,338):_ZN6MAUtil6VectorINS_11ListenerSetINS_19CustomEventListenerEE5ComboEE7pointerEv;2A.;;",128,0,95,0
	.stabs	"ListenerSet<MAUtil::CustomEventListener>:Tt(59,343)=s16mRunning:/0(0,4),0,8;mUpdateRequired:/0(0,4),8,8;mShouldDelete:/0(0,4),16,8;mVec:/0(59,315),32,96;__base_ctor::(59,344)=#(59,343),(0,6),(59,345)=*(59,343),(0,4),(0,6);:_ZN6MAUtil11ListenerSetINS_19CustomEventListenerEEC2Eb;2A.;__comp_ctor::(59,344):_ZN6MAUtil11ListenerSetINS_19CustomEventListenerEEC1Eb;2A.;begin::(59,346)=#(59,343),(59,347)=xsiterator:,(59,345),(0,6);:_ZN6MAUtil11ListenerSetINS_19CustomEventListenerEE5beginEv;2A.;add::(59,348)=#(59,343),(0,6),(59,345),(59,349)=*(59,350)=xsCustomEventListener:,(0,6);:_ZN6MAUtil11ListenerSetINS_19CustomEventListenerEE3addEPS1_;2A.;remove::(59,348):_ZN6MAUtil11ListenerSetINS_19CustomEventListenerEE6removeEPS1_;2A.;contains::(59,351)=#(59,343),(0,4),(59,345),(59,349),(0,6);:_ZN6MAUtil11ListenerSetINS_19CustomEventListenerEE8containsEPS1_;2A.;setRunning::(59,352)=#(59,343),(0,6),(59,345),(0,4),(0,6);:_ZN6MAUtil11ListenerSetINS_19CustomEventListenerEE10setRunningEb;2A.;size::(59,353)=#(59,343),(0,3),(59,354)=*(59,355)=k(59,343),(0,6);:_ZNK6MAUtil11ListenerSetINS_19CustomEventListenerEE4sizeEv;2B.;operator=::(59,356)=#(59,343),(59,357)=&(59,343),(59,345),(59,358)=&(59,355),(0,6);:_ZN6MAUtil11ListenerSetINS_19CustomEventListenerEEaSERKS2_;2A.;__base_ctor::(59,359)=#(59,343),(0,6),(59,345),(59,358),(0,6);:_ZN6MAUtil11ListenerSetINS_19CustomEventListenerEEC2ERKS2_;2A.;__comp_ctor::(59,359):_ZN6MAUtil11ListenerSetINS_19CustomEventListenerEEC1ERKS2_;2A.;__base_dtor::(59,360)=#(59,343),(0,6),(59,345),(0,6);:_ZN6MAUtil11ListenerSetINS_19CustomEventListenerEED2Ev;2A.;__comp_dtor::(59,360):_ZN6MAUtil11ListenerSetINS_19CustomEventListenerEED1Ev;2A.;;",128,0,46,0
	.stabs	"Vector<MAUtil::ListenerSet<MAUtil::TextBoxListener>::Combo>:Tt(59,361)=s12mSize:/1(0,3),0,32;mCapacity:/1(0,3),32,32;mData:/1(59,362)=*(59,363)=xsCombo:,64,32;__base_ctor::(59,364)=#(59,361),(0,6),(59,365)=*(59,361),(0,3),(0,6);:_ZN6MAUtil6VectorINS_11ListenerSetINS_15TextBoxListenerEE5ComboEEC2Ei;2A.;__comp_ctor::(59,364):_ZN6MAUtil6VectorINS_11ListenerSetINS_15TextBoxListenerEE5ComboEEC1Ei;2A.;__base_ctor::(59,366)=#(59,361),(0,6),(59,365),(59,367)=*(59,368)=k(59,363),(0,3),(0,6);:_ZN6MAUtil6VectorINS_11ListenerSetINS_15TextBoxListenerEE5ComboEEC2EPKS4_i;2A.;__comp_ctor::(59,366):_ZN6MAUtil6VectorINS_11ListenerSetINS_15TextBoxListenerEE5ComboEEC1EPKS4_i;2A.;__base_ctor::(59,369)=#(59,361),(0,6),(59,365),(59,370)=&(59,371)=k(59,361),(0,6);:_ZN6MAUtil6VectorINS_11ListenerSetINS_15TextBoxListenerEE5ComboEEC2ERKS5_;2A.;__comp_ctor::(59,369):_ZN6MAUtil6VectorINS_11ListenerSetINS_15TextBoxListenerEE5ComboEEC1ERKS5_;2A.;__base_dtor::(59,372)=#(59,361),(0,6),(59,365),(0,6);:_ZN6MAUtil6VectorINS_11ListenerSetINS_15TextBoxListenerEE5ComboEED2Ev;2A.;__comp_dtor::(59,372):_ZN6MAUtil6VectorINS_11ListenerSetINS_15TextBoxListenerEE5ComboEED1Ev;2A.;operator=::(59,373)=#(59,361),(59,374)=&(59,361),(59,365),(59,370),(0,6);:_ZN6MAUtil6VectorINS_11ListenerSetINS_15TextBoxListenerEE5ComboEEaSERKS5_;2A.;add::(59,375)=#(59,361),(0,6),(59,365),(59,376)=&(59,368),(0,6);:_ZN6MAUtil6VectorINS_11ListenerSetINS_15TextBoxListenerEE5ComboEE3addERKS4_;2A.(59,366):_ZN6MAUtil6VectorINS_11ListenerSetINS_15TextBoxListenerEE5ComboEE3addEPKS4_i;2A.;remove::(59,377)=#(59,361),(0,6),(59,365),(59,362),(0,6);:_ZN6MAUtil6VectorINS_11ListenerSetINS_15TextBoxListenerEE5ComboEE6removeEPS4_;2A.(59,378)=#(59,361),(0,6),(59,365),(0,3),(0,6);:_ZN6MAUtil6VectorINS_11ListenerSetINS_15TextBoxListenerEE5ComboEE6removeEi;2A.(59,379)=#(59,361),(0,6),(59,365),(0,3),(0,3),(0,6);:_ZN6MAUtil6VectorINS_11ListenerSetINS_15TextBoxListenerEE5ComboEE6removeEii;2A.;insert::(59,380)=#(59,361),(0,6),(59,365),(0,3),(59,363),(0,6);:_ZN6MAUtil6VectorINS_11ListenerSetINS_15TextBoxListenerEE5ComboEE6insertEiS4_;2A.;size::(59,381)=#(59,361),(0,3),(59,382)=*(59,371),(0,6);:_ZNK6MAUtil6VectorINS_11ListenerSetINS_15TextBoxListenerEE5ComboEE4sizeEv;2B.;resize::(59,378):_ZN6MAUtil6VectorINS_11ListenerSetINS_15TextBoxListenerEE5ComboEE6resizeEi;2A.;reserve::(59,378):_ZN6MAUtil6VectorINS_11ListenerSetINS_15TextBoxListenerEE5ComboEE7reserveEi;2A.;clear::(59,372):_ZN6MAUtil6VectorINS_11ListenerSetINS_15TextBoxListenerEE5ComboEE5clearEv;2A.;empty::(59,383)=#(59,361),(0,4),(59,382),(0,6);:_ZNK6MAUtil6VectorINS_11ListenerSetINS_15TextBoxListenerEE5ComboEE5emptyEv;2B.;capacity::(59,381):_ZNK6MAUtil6VectorINS_11ListenerSetINS_15TextBoxListenerEE5ComboEE8capacityEv;2B.;begin::(59,384)=#(59,361),(59,362),(59,365),(0,6);:_ZN6MAUtil6VectorINS_11ListenerSetINS_15TextBoxListenerEE5ComboEE5beginEv;2A.;end::(59,384):_ZN6MAUtil6VectorINS_11ListenerSetINS_15TextBoxListenerEE5ComboEE3endEv;2A.;begin::(59,385)=#(59,361),(59,367),(59,382),(0,6);:_ZNK6MAUtil6VectorINS_11ListenerSetINS_15TextBoxListenerEE5ComboEE5beginEv;2B.;end::(59,385):_ZNK6MAUtil6VectorINS_11ListenerSetINS_15TextBoxListenerEE5ComboEE3endEv;2B.;operator[]::(59,386)=#(59,361),(59,387)=&(59,363),(59,365),(0,3),(0,6);:_ZN6MAUtil6VectorINS_11ListenerSetINS_15TextBoxListenerEE5ComboEEixEi;2A.(59,388)=#(59,361),(59,376),(59,382),(0,3),(0,6);:_ZNK6MAUtil6VectorINS_11ListenerSetINS_15TextBoxListenerEE5ComboEEixEi;2B.;pointer::(59,385):_ZNK6MAUtil6VectorINS_11ListenerSetINS_15TextBoxListenerEE5ComboEE7pointerEv;2B.(59,384):_ZN6MAUtil6VectorINS_11ListenerSetINS_15TextBoxListenerEE5ComboEE7pointerEv;2A.;;",128,0,95,0
	.stabs	"ListenerSet<MAUtil::TextBoxListener>:Tt(59,389)=s16mRunning:/0(0,4),0,8;mUpdateRequired:/0(0,4),8,8;mShouldDelete:/0(0,4),16,8;mVec:/0(59,361),32,96;__base_ctor::(59,390)=#(59,389),(0,6),(59,391)=*(59,389),(0,4),(0,6);:_ZN6MAUtil11ListenerSetINS_15TextBoxListenerEEC2Eb;2A.;__comp_ctor::(59,390):_ZN6MAUtil11ListenerSetINS_15TextBoxListenerEEC1Eb;2A.;begin::(59,392)=#(59,389),(59,393)=xsiterator:,(59,391),(0,6);:_ZN6MAUtil11ListenerSetINS_15TextBoxListenerEE5beginEv;2A.;add::(59,394)=#(59,389),(0,6),(59,391),(59,395)=*(59,396)=xsTextBoxListener:,(0,6);:_ZN6MAUtil11ListenerSetINS_15TextBoxListenerEE3addEPS1_;2A.;remove::(59,394):_ZN6MAUtil11ListenerSetINS_15TextBoxListenerEE6removeEPS1_;2A.;contains::(59,397)=#(59,389),(0,4),(59,391),(59,395),(0,6);:_ZN6MAUtil11ListenerSetINS_15TextBoxListenerEE8containsEPS1_;2A.;setRunning::(59,398)=#(59,389),(0,6),(59,391),(0,4),(0,6);:_ZN6MAUtil11ListenerSetINS_15TextBoxListenerEE10setRunningEb;2A.;size::(59,399)=#(59,389),(0,3),(59,400)=*(59,401)=k(59,389),(0,6);:_ZNK6MAUtil11ListenerSetINS_15TextBoxListenerEE4sizeEv;2B.;operator=::(59,402)=#(59,389),(59,403)=&(59,389),(59,391),(59,404)=&(59,401),(0,6);:_ZN6MAUtil11ListenerSetINS_15TextBoxListenerEEaSERKS2_;2A.;__base_ctor::(59,405)=#(59,389),(0,6),(59,391),(59,404),(0,6);:_ZN6MAUtil11ListenerSetINS_15TextBoxListenerEEC2ERKS2_;2A.;__comp_ctor::(59,405):_ZN6MAUtil11ListenerSetINS_15TextBoxListenerEEC1ERKS2_;2A.;__base_dtor::(59,406)=#(59,389),(0,6),(59,391),(0,6);:_ZN6MAUtil11ListenerSetINS_15TextBoxListenerEED2Ev;2A.;__comp_dtor::(59,406):_ZN6MAUtil11ListenerSetINS_15TextBoxListenerEED1Ev;2A.;;",128,0,46,0
	.stabs	"Vector<MAUtil::ListenerSet<MAUtil::SensorListener>::Combo>:Tt(59,407)=s12mSize:/1(0,3),0,32;mCapacity:/1(0,3),32,32;mData:/1(59,408)=*(59,409)=xsCombo:,64,32;__base_ctor::(59,410)=#(59,407),(0,6),(59,411)=*(59,407),(0,3),(0,6);:_ZN6MAUtil6VectorINS_11ListenerSetINS_14SensorListenerEE5ComboEEC2Ei;2A.;__comp_ctor::(59,410):_ZN6MAUtil6VectorINS_11ListenerSetINS_14SensorListenerEE5ComboEEC1Ei;2A.;__base_ctor::(59,412)=#(59,407),(0,6),(59,411),(59,413)=*(59,414)=k(59,409),(0,3),(0,6);:_ZN6MAUtil6VectorINS_11ListenerSetINS_14SensorListenerEE5ComboEEC2EPKS4_i;2A.;__comp_ctor::(59,412):_ZN6MAUtil6VectorINS_11ListenerSetINS_14SensorListenerEE5ComboEEC1EPKS4_i;2A.;__base_ctor::(59,415)=#(59,407),(0,6),(59,411),(59,416)=&(59,417)=k(59,407),(0,6);:_ZN6MAUtil6VectorINS_11ListenerSetINS_14SensorListenerEE5ComboEEC2ERKS5_;2A.;__comp_ctor::(59,415):_ZN6MAUtil6VectorINS_11ListenerSetINS_14SensorListenerEE5ComboEEC1ERKS5_;2A.;__base_dtor::(59,418)=#(59,407),(0,6),(59,411),(0,6);:_ZN6MAUtil6VectorINS_11ListenerSetINS_14SensorListenerEE5ComboEED2Ev;2A.;__comp_dtor::(59,418):_ZN6MAUtil6VectorINS_11ListenerSetINS_14SensorListenerEE5ComboEED1Ev;2A.;operator=::(59,419)=#(59,407),(59,420)=&(59,407),(59,411),(59,416),(0,6);:_ZN6MAUtil6VectorINS_11ListenerSetINS_14SensorListenerEE5ComboEEaSERKS5_;2A.;add::(59,421)=#(59,407),(0,6),(59,411),(59,422)=&(59,414),(0,6);:_ZN6MAUtil6VectorINS_11ListenerSetINS_14SensorListenerEE5ComboEE3addERKS4_;2A.(59,412):_ZN6MAUtil6VectorINS_11ListenerSetINS_14SensorListenerEE5ComboEE3addEPKS4_i;2A.;remove::(59,423)=#(59,407),(0,6),(59,411),(59,408),(0,6);:_ZN6MAUtil6VectorINS_11ListenerSetINS_14SensorListenerEE5ComboEE6removeEPS4_;2A.(59,424)=#(59,407),(0,6),(59,411),(0,3),(0,6);:_ZN6MAUtil6VectorINS_11ListenerSetINS_14SensorListenerEE5ComboEE6removeEi;2A.(59,425)=#(59,407),(0,6),(59,411),(0,3),(0,3),(0,6);:_ZN6MAUtil6VectorINS_11ListenerSetINS_14SensorListenerEE5ComboEE6removeEii;2A.;insert::(59,426)=#(59,407),(0,6),(59,411),(0,3),(59,409),(0,6);:_ZN6MAUtil6VectorINS_11ListenerSetINS_14SensorListenerEE5ComboEE6insertEiS4_;2A.;size::(59,427)=#(59,407),(0,3),(59,428)=*(59,417),(0,6);:_ZNK6MAUtil6VectorINS_11ListenerSetINS_14SensorListenerEE5ComboEE4sizeEv;2B.;resize::(59,424):_ZN6MAUtil6VectorINS_11ListenerSetINS_14SensorListenerEE5ComboEE6resizeEi;2A.;reserve::(59,424):_ZN6MAUtil6VectorINS_11ListenerSetINS_14SensorListenerEE5ComboEE7reserveEi;2A.;clear::(59,418):_ZN6MAUtil6VectorINS_11ListenerSetINS_14SensorListenerEE5ComboEE5clearEv;2A.;empty::(59,429)=#(59,407),(0,4),(59,428),(0,6);:_ZNK6MAUtil6VectorINS_11ListenerSetINS_14SensorListenerEE5ComboEE5emptyEv;2B.;capacity::(59,427):_ZNK6MAUtil6VectorINS_11ListenerSetINS_14SensorListenerEE5ComboEE8capacityEv;2B.;begin::(59,430)=#(59,407),(59,408),(59,411),(0,6);:_ZN6MAUtil6VectorINS_11ListenerSetINS_14SensorListenerEE5ComboEE5beginEv;2A.;end::(59,430):_ZN6MAUtil6VectorINS_11ListenerSetINS_14SensorListenerEE5ComboEE3endEv;2A.;begin::(59,431)=#(59,407),(59,413),(59,428),(0,6);:_ZNK6MAUtil6VectorINS_11ListenerSetINS_14SensorListenerEE5ComboEE5beginEv;2B.;end::(59,431):_ZNK6MAUtil6VectorINS_11ListenerSetINS_14SensorListenerEE5ComboEE3endEv;2B.;operator[]::(59,432)=#(59,407),(59,433)=&(59,409),(59,411),(0,3),(0,6);:_ZN6MAUtil6VectorINS_11ListenerSetINS_14SensorListenerEE5ComboEEixEi;2A.(59,434)=#(59,407),(59,422),(59,428),(0,3),(0,6);:_ZNK6MAUtil6VectorINS_11ListenerSetINS_14SensorListenerEE5ComboEEixEi;2B.;pointer::(59,431):_ZNK6MAUtil6VectorINS_11ListenerSetINS_14SensorListenerEE5ComboEE7pointerEv;2B.(59,430):_ZN6MAUtil6VectorINS_11ListenerSetINS_14SensorListenerEE5ComboEE7pointerEv;2A.;;",128,0,95,0
	.stabs	"ListenerSet<MAUtil::SensorListener>:Tt(59,435)=s16mRunning:/0(0,4),0,8;mUpdateRequired:/0(0,4),8,8;mShouldDelete:/0(0,4),16,8;mVec:/0(59,407),32,96;__base_ctor::(59,436)=#(59,435),(0,6),(59,437)=*(59,435),(0,4),(0,6);:_ZN6MAUtil11ListenerSetINS_14SensorListenerEEC2Eb;2A.;__comp_ctor::(59,436):_ZN6MAUtil11ListenerSetINS_14SensorListenerEEC1Eb;2A.;begin::(59,438)=#(59,435),(59,439)=xsiterator:,(59,437),(0,6);:_ZN6MAUtil11ListenerSetINS_14SensorListenerEE5beginEv;2A.;add::(59,440)=#(59,435),(0,6),(59,437),(59,441)=*(59,442)=xsSensorListener:,(0,6);:_ZN6MAUtil11ListenerSetINS_14SensorListenerEE3addEPS1_;2A.;remove::(59,440):_ZN6MAUtil11ListenerSetINS_14SensorListenerEE6removeEPS1_;2A.;contains::(59,443)=#(59,435),(0,4),(59,437),(59,441),(0,6);:_ZN6MAUtil11ListenerSetINS_14SensorListenerEE8containsEPS1_;2A.;setRunning::(59,444)=#(59,435),(0,6),(59,437),(0,4),(0,6);:_ZN6MAUtil11ListenerSetINS_14SensorListenerEE10setRunningEb;2A.;size::(59,445)=#(59,435),(0,3),(59,446)=*(59,447)=k(59,435),(0,6);:_ZNK6MAUtil11ListenerSetINS_14SensorListenerEE4sizeEv;2B.;operator=::(59,448)=#(59,435),(59,449)=&(59,435),(59,437),(59,450)=&(59,447),(0,6);:_ZN6MAUtil11ListenerSetINS_14SensorListenerEEaSERKS2_;2A.;__base_ctor::(59,451)=#(59,435),(0,6),(59,437),(59,450),(0,6);:_ZN6MAUtil11ListenerSetINS_14SensorListenerEEC2ERKS2_;2A.;__comp_ctor::(59,451):_ZN6MAUtil11ListenerSetINS_14SensorListenerEEC1ERKS2_;2A.;__base_dtor::(59,452)=#(59,435),(0,6),(59,437),(0,6);:_ZN6MAUtil11ListenerSetINS_14SensorListenerEED2Ev;2A.;__comp_dtor::(59,452):_ZN6MAUtil11ListenerSetINS_14SensorListenerEED1Ev;2A.;;",128,0,46,0
	.stabs	"Vector<MAUtil::ListenerSet<MAUtil::OrientationListener>::Combo>:Tt(59,453)=s12mSize:/1(0,3),0,32;mCapacity:/1(0,3),32,32;mData:/1(59,454)=*(59,455)=xsCombo:,64,32;__base_ctor::(59,456)=#(59,453),(0,6),(59,457)=*(59,453),(0,3),(0,6);:_ZN6MAUtil6VectorINS_11ListenerSetINS_19OrientationListenerEE5ComboEEC2Ei;2A.;__comp_ctor::(59,456):_ZN6MAUtil6VectorINS_11ListenerSetINS_19OrientationListenerEE5ComboEEC1Ei;2A.;__base_ctor::(59,458)=#(59,453),(0,6),(59,457),(59,459)=*(59,460)=k(59,455),(0,3),(0,6);:_ZN6MAUtil6VectorINS_11ListenerSetINS_19OrientationListenerEE5ComboEEC2EPKS4_i;2A.;__comp_ctor::(59,458):_ZN6MAUtil6VectorINS_11ListenerSetINS_19OrientationListenerEE5ComboEEC1EPKS4_i;2A.;__base_ctor::(59,461)=#(59,453),(0,6),(59,457),(59,462)=&(59,463)=k(59,453),(0,6);:_ZN6MAUtil6VectorINS_11ListenerSetINS_19OrientationListenerEE5ComboEEC2ERKS5_;2A.;__comp_ctor::(59,461):_ZN6MAUtil6VectorINS_11ListenerSetINS_19OrientationListenerEE5ComboEEC1ERKS5_;2A.;__base_dtor::(59,464)=#(59,453),(0,6),(59,457),(0,6);:_ZN6MAUtil6VectorINS_11ListenerSetINS_19OrientationListenerEE5ComboEED2Ev;2A.;__comp_dtor::(59,464):_ZN6MAUtil6VectorINS_11ListenerSetINS_19OrientationListenerEE5ComboEED1Ev;2A.;operator=::(59,465)=#(59,453),(59,466)=&(59,453),(59,457),(59,462),(0,6);:_ZN6MAUtil6VectorINS_11ListenerSetINS_19OrientationListenerEE5ComboEEaSERKS5_;2A.;add::(59,467)=#(59,453),(0,6),(59,457),(59,468)=&(59,460),(0,6);:_ZN6MAUtil6VectorINS_11ListenerSetINS_19OrientationListenerEE5ComboEE3addERKS4_;2A.(59,458):_ZN6MAUtil6VectorINS_11ListenerSetINS_19OrientationListenerEE5ComboEE3addEPKS4_i;2A.;remove::(59,469)=#(59,453),(0,6),(59,457),(59,454),(0,6);:_ZN6MAUtil6VectorINS_11ListenerSetINS_19OrientationListenerEE5ComboEE6removeEPS4_;2A.(59,470)=#(59,453),(0,6),(59,457),(0,3),(0,6);:_ZN6MAUtil6VectorINS_11ListenerSetINS_19OrientationListenerEE5ComboEE6removeEi;2A.(59,471)=#(59,453),(0,6),(59,457),(0,3),(0,3),(0,6);:_ZN6MAUtil6VectorINS_11ListenerSetINS_19OrientationListenerEE5ComboEE6removeEii;2A.;insert::(59,472)=#(59,453),(0,6),(59,457),(0,3),(59,455),(0,6);:_ZN6MAUtil6VectorINS_11ListenerSetINS_19OrientationListenerEE5ComboEE6insertEiS4_;2A.;size::(59,473)=#(59,453),(0,3),(59,474)=*(59,463),(0,6);:_ZNK6MAUtil6VectorINS_11ListenerSetINS_19OrientationListenerEE5ComboEE4sizeEv;2B.;resize::(59,470):_ZN6MAUtil6VectorINS_11ListenerSetINS_19OrientationListenerEE5ComboEE6resizeEi;2A.;reserve::(59,470):_ZN6MAUtil6VectorINS_11ListenerSetINS_19OrientationListenerEE5ComboEE7reserveEi;2A.;clear::(59,464):_ZN6MAUtil6VectorINS_11ListenerSetINS_19OrientationListenerEE5ComboEE5clearEv;2A.;empty::(59,475)=#(59,453),(0,4),(59,474),(0,6);:_ZNK6MAUtil6VectorINS_11ListenerSetINS_19OrientationListenerEE5ComboEE5emptyEv;2B.;capacity::(59,473):_ZNK6MAUtil6VectorINS_11ListenerSetINS_19OrientationListenerEE5ComboEE8capacityEv;2B.;begin::(59,476)=#(59,453),(59,454),(59,457),(0,6);:_ZN6MAUtil6VectorINS_11ListenerSetINS_19OrientationListenerEE5ComboEE5beginEv;2A.;end::(59,476):_ZN6MAUtil6VectorINS_11ListenerSetINS_19OrientationListenerEE5ComboEE3endEv;2A.;begin::(59,477)=#(59,453),(59,459),(59,474),(0,6);:_ZNK6MAUtil6VectorINS_11ListenerSetINS_19OrientationListenerEE5ComboEE5beginEv;2B.;end::(59,477):_ZNK6MAUtil6VectorINS_11ListenerSetINS_19OrientationListenerEE5ComboEE3endEv;2B.;operator[]::(59,478)=#(59,453),(59,479)=&(59,455),(59,457),(0,3),(0,6);:_ZN6MAUtil6VectorINS_11ListenerSetINS_19OrientationListenerEE5ComboEEixEi;2A.(59,480)=#(59,453),(59,468),(59,474),(0,3),(0,6);:_ZNK6MAUtil6VectorINS_11ListenerSetINS_19OrientationListenerEE5ComboEEixEi;2B.;pointer::(59,477):_ZNK6MAUtil6VectorINS_11ListenerSetINS_19OrientationListenerEE5ComboEE7pointerEv;2B.(59,476):_ZN6MAUtil6VectorINS_11ListenerSetINS_19OrientationListenerEE5ComboEE7pointerEv;2A.;;",128,0,95,0
	.stabs	"ListenerSet<MAUtil::OrientationListener>:Tt(59,481)=s16mRunning:/0(0,4),0,8;mUpdateRequired:/0(0,4),8,8;mShouldDelete:/0(0,4),16,8;mVec:/0(59,453),32,96;__base_ctor::(59,482)=#(59,481),(0,6),(59,483)=*(59,481),(0,4),(0,6);:_ZN6MAUtil11ListenerSetINS_19OrientationListenerEEC2Eb;2A.;__comp_ctor::(59,482):_ZN6MAUtil11ListenerSetINS_19OrientationListenerEEC1Eb;2A.;begin::(59,484)=#(59,481),(59,485)=xsiterator:,(59,483),(0,6);:_ZN6MAUtil11ListenerSetINS_19OrientationListenerEE5beginEv;2A.;add::(59,486)=#(59,481),(0,6),(59,483),(59,487)=*(59,488)=xsOrientationListener:,(0,6);:_ZN6MAUtil11ListenerSetINS_19OrientationListenerEE3addEPS1_;2A.;remove::(59,486):_ZN6MAUtil11ListenerSetINS_19OrientationListenerEE6removeEPS1_;2A.;contains::(59,489)=#(59,481),(0,4),(59,483),(59,487),(0,6);:_ZN6MAUtil11ListenerSetINS_19OrientationListenerEE8containsEPS1_;2A.;setRunning::(59,490)=#(59,481),(0,6),(59,483),(0,4),(0,6);:_ZN6MAUtil11ListenerSetINS_19OrientationListenerEE10setRunningEb;2A.;size::(59,491)=#(59,481),(0,3),(59,492)=*(59,493)=k(59,481),(0,6);:_ZNK6MAUtil11ListenerSetINS_19OrientationListenerEE4sizeEv;2B.;operator=::(59,494)=#(59,481),(59,495)=&(59,481),(59,483),(59,496)=&(59,493),(0,6);:_ZN6MAUtil11ListenerSetINS_19OrientationListenerEEaSERKS2_;2A.;__base_ctor::(59,497)=#(59,481),(0,6),(59,483),(59,496),(0,6);:_ZN6MAUtil11ListenerSetINS_19OrientationListenerEEC2ERKS2_;2A.;__comp_ctor::(59,497):_ZN6MAUtil11ListenerSetINS_19OrientationListenerEEC1ERKS2_;2A.;__base_dtor::(59,498)=#(59,481),(0,6),(59,483),(0,6);:_ZN6MAUtil11ListenerSetINS_19OrientationListenerEED2Ev;2A.;__comp_dtor::(59,498):_ZN6MAUtil11ListenerSetINS_19OrientationListenerEED1Ev;2A.;;",128,0,46,0
	.stabs	"Vector<MAUtil::ListenerSet<MAUtil::CameraListener>::Combo>:Tt(59,499)=s12mSize:/1(0,3),0,32;mCapacity:/1(0,3),32,32;mData:/1(59,500)=*(59,501)=xsCombo:,64,32;__base_ctor::(59,502)=#(59,499),(0,6),(59,503)=*(59,499),(0,3),(0,6);:_ZN6MAUtil6VectorINS_11ListenerSetINS_14CameraListenerEE5ComboEEC2Ei;2A.;__comp_ctor::(59,502):_ZN6MAUtil6VectorINS_11ListenerSetINS_14CameraListenerEE5ComboEEC1Ei;2A.;__base_ctor::(59,504)=#(59,499),(0,6),(59,503),(59,505)=*(59,506)=k(59,501),(0,3),(0,6);:_ZN6MAUtil6VectorINS_11ListenerSetINS_14CameraListenerEE5ComboEEC2EPKS4_i;2A.;__comp_ctor::(59,504):_ZN6MAUtil6VectorINS_11ListenerSetINS_14CameraListenerEE5ComboEEC1EPKS4_i;2A.;__base_ctor::(59,507)=#(59,499),(0,6),(59,503),(59,508)=&(59,509)=k(59,499),(0,6);:_ZN6MAUtil6VectorINS_11ListenerSetINS_14CameraListenerEE5ComboEEC2ERKS5_;2A.;__comp_ctor::(59,507):_ZN6MAUtil6VectorINS_11ListenerSetINS_14CameraListenerEE5ComboEEC1ERKS5_;2A.;__base_dtor::(59,510)=#(59,499),(0,6),(59,503),(0,6);:_ZN6MAUtil6VectorINS_11ListenerSetINS_14CameraListenerEE5ComboEED2Ev;2A.;__comp_dtor::(59,510):_ZN6MAUtil6VectorINS_11ListenerSetINS_14CameraListenerEE5ComboEED1Ev;2A.;operator=::(59,511)=#(59,499),(59,512)=&(59,499),(59,503),(59,508),(0,6);:_ZN6MAUtil6VectorINS_11ListenerSetINS_14CameraListenerEE5ComboEEaSERKS5_;2A.;add::(59,513)=#(59,499),(0,6),(59,503),(59,514)=&(59,506),(0,6);:_ZN6MAUtil6VectorINS_11ListenerSetINS_14CameraListenerEE5ComboEE3addERKS4_;2A.(59,504):_ZN6MAUtil6VectorINS_11ListenerSetINS_14CameraListenerEE5ComboEE3addEPKS4_i;2A.;remove::(59,515)=#(59,499),(0,6),(59,503),(59,500),(0,6);:_ZN6MAUtil6VectorINS_11ListenerSetINS_14CameraListenerEE5ComboEE6removeEPS4_;2A.(59,516)=#(59,499),(0,6),(59,503),(0,3),(0,6);:_ZN6MAUtil6VectorINS_11ListenerSetINS_14CameraListenerEE5ComboEE6removeEi;2A.(59,517)=#(59,499),(0,6),(59,503),(0,3),(0,3),(0,6);:_ZN6MAUtil6VectorINS_11ListenerSetINS_14CameraListenerEE5ComboEE6removeEii;2A.;insert::(59,518)=#(59,499),(0,6),(59,503),(0,3),(59,501),(0,6);:_ZN6MAUtil6VectorINS_11ListenerSetINS_14CameraListenerEE5ComboEE6insertEiS4_;2A.;size::(59,519)=#(59,499),(0,3),(59,520)=*(59,509),(0,6);:_ZNK6MAUtil6VectorINS_11ListenerSetINS_14CameraListenerEE5ComboEE4sizeEv;2B.;resize::(59,516):_ZN6MAUtil6VectorINS_11ListenerSetINS_14CameraListenerEE5ComboEE6resizeEi;2A.;reserve::(59,516):_ZN6MAUtil6VectorINS_11ListenerSetINS_14CameraListenerEE5ComboEE7reserveEi;2A.;clear::(59,510):_ZN6MAUtil6VectorINS_11ListenerSetINS_14CameraListenerEE5ComboEE5clearEv;2A.;empty::(59,521)=#(59,499),(0,4),(59,520),(0,6);:_ZNK6MAUtil6VectorINS_11ListenerSetINS_14CameraListenerEE5ComboEE5emptyEv;2B.;capacity::(59,519):_ZNK6MAUtil6VectorINS_11ListenerSetINS_14CameraListenerEE5ComboEE8capacityEv;2B.;begin::(59,522)=#(59,499),(59,500),(59,503),(0,6);:_ZN6MAUtil6VectorINS_11ListenerSetINS_14CameraListenerEE5ComboEE5beginEv;2A.;end::(59,522):_ZN6MAUtil6VectorINS_11ListenerSetINS_14CameraListenerEE5ComboEE3endEv;2A.;begin::(59,523)=#(59,499),(59,505),(59,520),(0,6);:_ZNK6MAUtil6VectorINS_11ListenerSetINS_14CameraListenerEE5ComboEE5beginEv;2B.;end::(59,523):_ZNK6MAUtil6VectorINS_11ListenerSetINS_14CameraListenerEE5ComboEE3endEv;2B.;operator[]::(59,524)=#(59,499),(59,525)=&(59,501),(59,503),(0,3),(0,6);:_ZN6MAUtil6VectorINS_11ListenerSetINS_14CameraListenerEE5ComboEEixEi;2A.(59,526)=#(59,499),(59,514),(59,520),(0,3),(0,6);:_ZNK6MAUtil6VectorINS_11ListenerSetINS_14CameraListenerEE5ComboEEixEi;2B.;pointer::(59,523):_ZNK6MAUtil6VectorINS_11ListenerSetINS_14CameraListenerEE5ComboEE7pointerEv;2B.(59,522):_ZN6MAUtil6VectorINS_11ListenerSetINS_14CameraListenerEE5ComboEE7pointerEv;2A.;;",128,0,95,0
	.stabs	"ListenerSet<MAUtil::CameraListener>:Tt(59,527)=s16mRunning:/0(0,4),0,8;mUpdateRequired:/0(0,4),8,8;mShouldDelete:/0(0,4),16,8;mVec:/0(59,499),32,96;__base_ctor::(59,528)=#(59,527),(0,6),(59,529)=*(59,527),(0,4),(0,6);:_ZN6MAUtil11ListenerSetINS_14CameraListenerEEC2Eb;2A.;__comp_ctor::(59,528):_ZN6MAUtil11ListenerSetINS_14CameraListenerEEC1Eb;2A.;begin::(59,530)=#(59,527),(59,531)=xsiterator:,(59,529),(0,6);:_ZN6MAUtil11ListenerSetINS_14CameraListenerEE5beginEv;2A.;add::(59,532)=#(59,527),(0,6),(59,529),(59,533)=*(59,534)=xsCameraListener:,(0,6);:_ZN6MAUtil11ListenerSetINS_14CameraListenerEE3addEPS1_;2A.;remove::(59,532):_ZN6MAUtil11ListenerSetINS_14CameraListenerEE6removeEPS1_;2A.;contains::(59,535)=#(59,527),(0,4),(59,529),(59,533),(0,6);:_ZN6MAUtil11ListenerSetINS_14CameraListenerEE8containsEPS1_;2A.;setRunning::(59,536)=#(59,527),(0,6),(59,529),(0,4),(0,6);:_ZN6MAUtil11ListenerSetINS_14CameraListenerEE10setRunningEb;2A.;size::(59,537)=#(59,527),(0,3),(59,538)=*(59,539)=k(59,527),(0,6);:_ZNK6MAUtil11ListenerSetINS_14CameraListenerEE4sizeEv;2B.;operator=::(59,540)=#(59,527),(59,541)=&(59,527),(59,529),(59,542)=&(59,539),(0,6);:_ZN6MAUtil11ListenerSetINS_14CameraListenerEEaSERKS2_;2A.;__base_ctor::(59,543)=#(59,527),(0,6),(59,529),(59,542),(0,6);:_ZN6MAUtil11ListenerSetINS_14CameraListenerEEC2ERKS2_;2A.;__comp_ctor::(59,543):_ZN6MAUtil11ListenerSetINS_14CameraListenerEEC1ERKS2_;2A.;__base_dtor::(59,544)=#(59,527),(0,6),(59,529),(0,6);:_ZN6MAUtil11ListenerSetINS_14CameraListenerEED2Ev;2A.;__comp_dtor::(59,544):_ZN6MAUtil11ListenerSetINS_14CameraListenerEED1Ev;2A.;;",128,0,46,0
	.stabs	"Vector<MAUtil::ListenerSet<MAUtil::MediaExportListener>::Combo>:Tt(59,545)=s12mSize:/1(0,3),0,32;mCapacity:/1(0,3),32,32;mData:/1(59,546)=*(59,547)=xsCombo:,64,32;__base_ctor::(59,548)=#(59,545),(0,6),(59,549)=*(59,545),(0,3),(0,6);:_ZN6MAUtil6VectorINS_11ListenerSetINS_19MediaExportListenerEE5ComboEEC2Ei;2A.;__comp_ctor::(59,548):_ZN6MAUtil6VectorINS_11ListenerSetINS_19MediaExportListenerEE5ComboEEC1Ei;2A.;__base_ctor::(59,550)=#(59,545),(0,6),(59,549),(59,551)=*(59,552)=k(59,547),(0,3),(0,6);:_ZN6MAUtil6VectorINS_11ListenerSetINS_19MediaExportListenerEE5ComboEEC2EPKS4_i;2A.;__comp_ctor::(59,550):_ZN6MAUtil6VectorINS_11ListenerSetINS_19MediaExportListenerEE5ComboEEC1EPKS4_i;2A.;__base_ctor::(59,553)=#(59,545),(0,6),(59,549),(59,554)=&(59,555)=k(59,545),(0,6);:_ZN6MAUtil6VectorINS_11ListenerSetINS_19MediaExportListenerEE5ComboEEC2ERKS5_;2A.;__comp_ctor::(59,553):_ZN6MAUtil6VectorINS_11ListenerSetINS_19MediaExportListenerEE5ComboEEC1ERKS5_;2A.;__base_dtor::(59,556)=#(59,545),(0,6),(59,549),(0,6);:_ZN6MAUtil6VectorINS_11ListenerSetINS_19MediaExportListenerEE5ComboEED2Ev;2A.;__comp_dtor::(59,556):_ZN6MAUtil6VectorINS_11ListenerSetINS_19MediaExportListenerEE5ComboEED1Ev;2A.;operator=::(59,557)=#(59,545),(59,558)=&(59,545),(59,549),(59,554),(0,6);:_ZN6MAUtil6VectorINS_11ListenerSetINS_19MediaExportListenerEE5ComboEEaSERKS5_;2A.;add::(59,559)=#(59,545),(0,6),(59,549),(59,560)=&(59,552),(0,6);:_ZN6MAUtil6VectorINS_11ListenerSetINS_19MediaExportListenerEE5ComboEE3addERKS4_;2A.(59,550):_ZN6MAUtil6VectorINS_11ListenerSetINS_19MediaExportListenerEE5ComboEE3addEPKS4_i;2A.;remove::(59,561)=#(59,545),(0,6),(59,549),(59,546),(0,6);:_ZN6MAUtil6VectorINS_11ListenerSetINS_19MediaExportListenerEE5ComboEE6removeEPS4_;2A.(59,562)=#(59,545),(0,6),(59,549),(0,3),(0,6);:_ZN6MAUtil6VectorINS_11ListenerSetINS_19MediaExportListenerEE5ComboEE6removeEi;2A.(59,563)=#(59,545),(0,6),(59,549),(0,3),(0,3),(0,6);:_ZN6MAUtil6VectorINS_11ListenerSetINS_19MediaExportListenerEE5ComboEE6removeEii;2A.;insert::(59,564)=#(59,545),(0,6),(59,549),(0,3),(59,547),(0,6);:_ZN6MAUtil6VectorINS_11ListenerSetINS_19MediaExportListenerEE5ComboEE6insertEiS4_;2A.;size::(59,565)=#(59,545),(0,3),(59,566)=*(59,555),(0,6);:_ZNK6MAUtil6VectorINS_11ListenerSetINS_19MediaExportListenerEE5ComboEE4sizeEv;2B.;resize::(59,562):_ZN6MAUtil6VectorINS_11ListenerSetINS_19MediaExportListenerEE5ComboEE6resizeEi;2A.;reserve::(59,562):_ZN6MAUtil6VectorINS_11ListenerSetINS_19MediaExportListenerEE5ComboEE7reserveEi;2A.;clear::(59,556):_ZN6MAUtil6VectorINS_11ListenerSetINS_19MediaExportListenerEE5ComboEE5clearEv;2A.;empty::(59,567)=#(59,545),(0,4),(59,566),(0,6);:_ZNK6MAUtil6VectorINS_11ListenerSetINS_19MediaExportListenerEE5ComboEE5emptyEv;2B.;capacity::(59,565):_ZNK6MAUtil6VectorINS_11ListenerSetINS_19MediaExportListenerEE5ComboEE8capacityEv;2B.;begin::(59,568)=#(59,545),(59,546),(59,549),(0,6);:_ZN6MAUtil6VectorINS_11ListenerSetINS_19MediaExportListenerEE5ComboEE5beginEv;2A.;end::(59,568):_ZN6MAUtil6VectorINS_11ListenerSetINS_19MediaExportListenerEE5ComboEE3endEv;2A.;begin::(59,569)=#(59,545),(59,551),(59,566),(0,6);:_ZNK6MAUtil6VectorINS_11ListenerSetINS_19MediaExportListenerEE5ComboEE5beginEv;2B.;end::(59,569):_ZNK6MAUtil6VectorINS_11ListenerSetINS_19MediaExportListenerEE5ComboEE3endEv;2B.;operator[]::(59,570)=#(59,545),(59,571)=&(59,547),(59,549),(0,3),(0,6);:_ZN6MAUtil6VectorINS_11ListenerSetINS_19MediaExportListenerEE5ComboEEixEi;2A.(59,572)=#(59,545),(59,560),(59,566),(0,3),(0,6);:_ZNK6MAUtil6VectorINS_11ListenerSetINS_19MediaExportListenerEE5ComboEEixEi;2B.;pointer::(59,569):_ZNK6MAUtil6VectorINS_11ListenerSetINS_19MediaExportListenerEE5ComboEE7pointerEv;2B.(59,568):_ZN6MAUtil6VectorINS_11ListenerSetINS_19MediaExportListenerEE5ComboEE7pointerEv;2A.;;",128,0,95,0
	.stabs	"ListenerSet<MAUtil::MediaExportListener>:Tt(59,573)=s16mRunning:/0(0,4),0,8;mUpdateRequired:/0(0,4),8,8;mShouldDelete:/0(0,4),16,8;mVec:/0(59,545),32,96;__base_ctor::(59,574)=#(59,573),(0,6),(59,575)=*(59,573),(0,4),(0,6);:_ZN6MAUtil11ListenerSetINS_19MediaExportListenerEEC2Eb;2A.;__comp_ctor::(59,574):_ZN6MAUtil11ListenerSetINS_19MediaExportListenerEEC1Eb;2A.;begin::(59,576)=#(59,573),(59,577)=xsiterator:,(59,575),(0,6);:_ZN6MAUtil11ListenerSetINS_19MediaExportListenerEE5beginEv;2A.;add::(59,578)=#(59,573),(0,6),(59,575),(59,579)=*(59,580)=xsMediaExportListener:,(0,6);:_ZN6MAUtil11ListenerSetINS_19MediaExportListenerEE3addEPS1_;2A.;remove::(59,578):_ZN6MAUtil11ListenerSetINS_19MediaExportListenerEE6removeEPS1_;2A.;contains::(59,581)=#(59,573),(0,4),(59,575),(59,579),(0,6);:_ZN6MAUtil11ListenerSetINS_19MediaExportListenerEE8containsEPS1_;2A.;setRunning::(59,582)=#(59,573),(0,6),(59,575),(0,4),(0,6);:_ZN6MAUtil11ListenerSetINS_19MediaExportListenerEE10setRunningEb;2A.;size::(59,583)=#(59,573),(0,3),(59,584)=*(59,585)=k(59,573),(0,6);:_ZNK6MAUtil11ListenerSetINS_19MediaExportListenerEE4sizeEv;2B.;operator=::(59,586)=#(59,573),(59,587)=&(59,573),(59,575),(59,588)=&(59,585),(0,6);:_ZN6MAUtil11ListenerSetINS_19MediaExportListenerEEaSERKS2_;2A.;__base_ctor::(59,589)=#(59,573),(0,6),(59,575),(59,588),(0,6);:_ZN6MAUtil11ListenerSetINS_19MediaExportListenerEEC2ERKS2_;2A.;__comp_ctor::(59,589):_ZN6MAUtil11ListenerSetINS_19MediaExportListenerEEC1ERKS2_;2A.;__base_dtor::(59,590)=#(59,573),(0,6),(59,575),(0,6);:_ZN6MAUtil11ListenerSetINS_19MediaExportListenerEED2Ev;2A.;__comp_dtor::(59,590):_ZN6MAUtil11ListenerSetINS_19MediaExportListenerEED1Ev;2A.;;",128,0,46,0
	.stabn	162,0,0,0
	.stabs	"/Applications/MoSync/include/IX_WIDGET.h",130,0,0,0
	.stabs	"MAWidgetHandle:t(60,1)=(0,3)",128,0,9,0
	.stabs	"MAWScreenTransitionType:t(60,2)=(0,3)",128,0,11,0
	.stabs	"MAWidgetEventData:Tt(60,3)=s20eventType:(0,3),0,32;widgetHandle:(60,1),32,32;:(60,4)=u12listItemIndex:(0,3),0,32;:(60,5)=s8sectionIndex:(0,3),0,32;sectionItemIndex:(0,3),32,32;;,0,64;searchBarButton:(0,3),0,32;checked:(0,3),0,32;tabIndex:(0,3),0,32;status:(0,3),0,32;:(60,6)=s8hookType:(0,3),0,32;urlData:(45,5),32,32;;,0,64;:(60,7)=s8fromScreen:(60,1),0,32;toScreen:(60,1),32,32;;,0,64;sliderValue:(0,3),0,32;:(60,8)=s12dayOfMonth:(0,3),0,32;month:(0,3),32,32;year:(0,3),64,32;;,0,96;:(60,9)=s8hour:(0,3),0,32;minute:(0,3),32,32;;,0,64;numberPickerValue:(0,3),0,32;videoViewState:(0,3),0,32;optionDialogButtonIndex:(0,3),0,32;:(60,10)=s8value:(0,9),0,32;fromUser:(0,3),32,32;;,0,64;radioGroupItemHandle:(0,3),0,32;radioButtonState:(0,3),0,32;optionsMenuItem:(0,3),0,32;actionBarMenuItem:(0,3),0,32;mapPinIndex:(0,3),0,32;screenOrientation:(0,3),0,32;customPickerItemIndex:(0,3),0,32;;,64,96;operator=::(60,11)=#(60,3),(60,12)=&(60,3),(60,13)=*(60,3),(60,14)=&(60,15)=k(60,3),(0,6);:_ZN17MAWidgetEventDataaSERKS_;2A.;__base_ctor::(60,16)=#(60,3),(0,6),(60,13),(60,14),(0,6);:_ZN17MAWidgetEventDataC2ERKS_;2A.;__comp_ctor::(60,16):_ZN17MAWidgetEventDataC1ERKS_;2A.;__base_ctor::(60,17)=#(60,3),(0,6),(60,13),(0,6);:_ZN17MAWidgetEventDataC2Ev;2A.;__comp_ctor::(60,17):_ZN17MAWidgetEventDataC1Ev;2A.;;",128,0,5161,0
	.stabs	"MAWidgetEventData:t(60,18)=(60,3)",128,0,5357,0
	.stabn	162,0,0,0
	.stabs	"BasicString<char>:Tt(48,2)=s4sd:/1(53,1)=*(53,2)=xsStringData<char>:,0,32;__base_ctor::(53,3)=#(48,2),(0,6),(53,4)=*(48,2),(0,6);:_ZN6MAUtil11BasicStringIcEC2Ev;2A.;__comp_ctor::(53,3):_ZN6MAUtil11BasicStringIcEC1Ev;2A.;__base_ctor::(53,5)=#(48,2),(0,6),(53,4),(0,3),(0,6);:_ZN6MAUtil11BasicStringIcEC2Ei;2A.;__comp_ctor::(53,5):_ZN6MAUtil11BasicStringIcEC1Ei;2A.;__base_ctor::(53,6)=#(48,2),(0,6),(53,4),(11,88),(0,6);:_ZN6MAUtil11BasicStringIcEC2EPKc;2A.;__comp_ctor::(53,6):_ZN6MAUtil11BasicStringIcEC1EPKc;2A.;__base_ctor::(53,7)=#(48,2),(0,6),(53,4),(11,88),(0,3),(0,6);:_ZN6MAUtil11BasicStringIcEC2EPKci;2A.;__comp_ctor::(53,7):_ZN6MAUtil11BasicStringIcEC1EPKci;2A.;__base_ctor::(53,8)=#(48,2),(0,6),(53,4),(53,9)=&(53,10)=k(48,2),(0,6);:_ZN6MAUtil11BasicStringIcEC2ERKS1_;2A.;__comp_ctor::(53,8):_ZN6MAUtil11BasicStringIcEC1ERKS1_;2A.;c_str::(53,11)=#(48,2),(11,88),(53,12)=*(53,10),(0,6);:_ZNK6MAUtil11BasicStringIcE5c_strEv;2B.;operator=::(53,13)=#(48,2),(53,14)=&(48,2),(53,4),(53,9),(0,6);:_ZN6MAUtil11BasicStringIcEaSERKS1_;2A.;operator[]::(53,15)=#(48,2),(3,36),(53,4),(0,3),(0,6);:_ZN6MAUtil11BasicStringIcEixEi;2A.(53,16)=#(48,2),(3,38),(53,12),(0,3),(0,6);:_ZNK6MAUtil11BasicStringIcEixEi;2B.;operator==::(53,17)=#(48,2),(0,4),(53,12),(53,9),(0,6);:_ZNK6MAUtil11BasicStringIcEeqERKS1_;2B.;operator!=::(53,17):_ZNK6MAUtil11BasicStringIcEneERKS1_;2B.;operator<::(53,17):_ZNK6MAUtil11BasicStringIcEltERKS1_;2B.;operator>::(53,17):_ZNK6MAUtil11BasicStringIcEgtERKS1_;2B.;operator<=::(53,17):_ZNK6MAUtil11BasicStringIcEleERKS1_;2B.;operator>=::(53,17):_ZNK6MAUtil11BasicStringIcEgeERKS1_;2B.;operator+::(53,18)=#(48,2),(48,2),(53,12),(53,9),(0,6);:_ZNK6MAUtil11BasicStringIcEplERKS1_;2B.;operator+=::(53,13):_ZN6MAUtil11BasicStringIcEpLERKS1_;2A.;operator+::(53,19)=#(48,2),(48,2),(53,12),(0,19),(0,6);:_ZNK6MAUtil11BasicStringIcEplEc;2B.;operator+=::(53,20)=#(48,2),(53,14),(53,4),(0,19),(0,6);:_ZN6MAUtil11BasicStringIcEpLEc;2A.;find::(53,21)=#(48,2),(0,3),(53,12),(53,9),(0,17),(0,6);:_ZNK6MAUtil11BasicStringIcE4findERKS1_j;2B.;findLastOf::(53,22)=#(48,2),(0,3),(53,12),(0,19),(0,6);:_ZNK6MAUtil11BasicStringIcE10findLastOfEc;2B.;findFirstOf::(53,23)=#(48,2),(0,3),(53,12),(0,19),(0,3),(0,6);:_ZNK6MAUtil11BasicStringIcE11findFirstOfEci;2B.;findFirstNotOf::(53,23):_ZNK6MAUtil11BasicStringIcE14findFirstNotOfEci;2B.;insert::(53,24)=#(48,2),(0,6),(53,4),(0,3),(53,9),(0,6);:_ZN6MAUtil11BasicStringIcE6insertEiRKS1_;2A.(53,25)=#(48,2),(0,6),(53,4),(0,3),(0,19),(0,6);:_ZN6MAUtil11BasicStringIcE6insertEic;2A.;remove::(53,26)=#(48,2),(0,6),(53,4),(0,3),(0,3),(0,6);:_ZN6MAUtil11BasicStringIcE6removeEii;2A.;substr::(53,27)=#(48,2),(48,2),(53,12),(0,3),(0,3),(0,6);:_ZNK6MAUtil11BasicStringIcE6substrEii;2B.;capacity::(53,28)=#(48,2),(0,3),(53,12),(0,6);:_ZNK6MAUtil11BasicStringIcE8capacityEv;2B.;size::(53,28):_ZNK6MAUtil11BasicStringIcE4sizeEv;2B.;length::(53,28):_ZNK6MAUtil11BasicStringIcE6lengthEv;2B.;resize::(53,5):_ZN6MAUtil11BasicStringIcE6resizeEi;2A.;reserve::(53,5):_ZN6MAUtil11BasicStringIcE7reserveEi;2A.;clear::(53,3):_ZN6MAUtil11BasicStringIcE5clearEv;2A.;append::(53,7):_ZN6MAUtil11BasicStringIcE6appendEPKci;2A.;setData::(53,29)=#(48,2),(0,6),(53,4),(53,1),(0,6);:_ZN6MAUtil11BasicStringIcE7setDataEPNS_10StringDataIcEE;2A.;pointer::(53,30)=#(48,2),(11,93),(53,4),(0,6);:_ZN6MAUtil11BasicStringIcE7pointerEv;2A.(53,11):_ZNK6MAUtil11BasicStringIcE7pointerEv;2B.;__base_dtor::(53,3):_ZN6MAUtil11BasicStringIcED2Ev;2A.;__comp_dtor::(53,3):_ZN6MAUtil11BasicStringIcED1Ev;2A.;allocStringData::(53,7):_ZN6MAUtil11BasicStringIcE15allocStringDataEPKci;1A.;;",128,0,104,0
	.stabs	"LastError:Tt(53,31)=s8errorCause:(48,1),0,32;errorCode:(0,3),32,32;__base_ctor::(53,32)=#(53,31),(0,6),(53,33)=*(53,31),(53,34)=&(53,35)=k(48,1),(0,3),(0,6);:_ZN8NativeUI9LastErrorC2ERKN6MAUtil11BasicStringIcEEi;2A.;__comp_ctor::(53,32):_ZN8NativeUI9LastErrorC1ERKN6MAUtil11BasicStringIcEEi;2A.;__base_ctor::(53,36)=#(53,31),(0,6),(53,33),(0,6);:_ZN8NativeUI9LastErrorC2Ev;2A.;__comp_ctor::(53,36):_ZN8NativeUI9LastErrorC1Ev;2A.;operator=::(53,37)=#(53,31),(53,38)=&(53,31),(53,33),(53,39)=&(53,40)=k(53,31),(0,6);:_ZN8NativeUI9LastErroraSERKS0_;2A.;__base_ctor::(53,41)=#(53,31),(0,6),(53,33),(53,39),(0,6);:_ZN8NativeUI9LastErrorC2ERKS0_;2A.;__comp_ctor::(53,41):_ZN8NativeUI9LastErrorC1ERKS0_;2A.;__base_dtor::(53,36):_ZN8NativeUI9LastErrorD2Ev;2A.;__comp_dtor::(53,36):_ZN8NativeUI9LastErrorD1Ev;2A.;;",128,0,78,0
	.stabs	"Vector<NativeUI::WidgetEventListener*>:Tt(53,42)=s12mSize:/1(0,3),0,32;mCapacity:/1(0,3),32,32;mData:/1(53,43)=*(53,44)=*(53,45)=xsWidgetEventListener:,64,32;__base_ctor::(53,46)=#(53,42),(0,6),(53,47)=*(53,42),(0,3),(0,6);:_ZN6MAUtil6VectorIPN8NativeUI19WidgetEventListenerEEC2Ei;2A.;__comp_ctor::(53,46):_ZN6MAUtil6VectorIPN8NativeUI19WidgetEventListenerEEC1Ei;2A.;__base_ctor::(53,48)=#(53,42),(0,6),(53,47),(53,49)=*(53,50)=k(53,44),(0,3),(0,6);:_ZN6MAUtil6VectorIPN8NativeUI19WidgetEventListenerEEC2EPKS3_i;2A.;__comp_ctor::(53,48):_ZN6MAUtil6VectorIPN8NativeUI19WidgetEventListenerEEC1EPKS3_i;2A.;__base_ctor::(53,51)=#(53,42),(0,6),(53,47),(53,52)=&(53,53)=k(53,42),(0,6);:_ZN6MAUtil6VectorIPN8NativeUI19WidgetEventListenerEEC2ERKS4_;2A.;__comp_ctor::(53,51):_ZN6MAUtil6VectorIPN8NativeUI19WidgetEventListenerEEC1ERKS4_;2A.;__base_dtor::(53,54)=#(53,42),(0,6),(53,47),(0,6);:_ZN6MAUtil6VectorIPN8NativeUI19WidgetEventListenerEED2Ev;2A.;__comp_dtor::(53,54):_ZN6MAUtil6VectorIPN8NativeUI19WidgetEventListenerEED1Ev;2A.;operator=::(53,55)=#(53,42),(53,56)=&(53,42),(53,47),(53,52),(0,6);:_ZN6MAUtil6VectorIPN8NativeUI19WidgetEventListenerEEaSERKS4_;2A.;add::(53,57)=#(53,42),(0,6),(53,47),(53,58)=&(53,50),(0,6);:_ZN6MAUtil6VectorIPN8NativeUI19WidgetEventListenerEE3addERKS3_;2A.(53,48):_ZN6MAUtil6VectorIPN8NativeUI19WidgetEventListenerEE3addEPKS3_i;2A.;remove::(53,59)=#(53,42),(0,6),(53,47),(53,43),(0,6);:_ZN6MAUtil6VectorIPN8NativeUI19WidgetEventListenerEE6removeEPS3_;2A.(53,60)=#(53,42),(0,6),(53,47),(0,3),(0,6);:_ZN6MAUtil6VectorIPN8NativeUI19WidgetEventListenerEE6removeEi;2A.(53,61)=#(53,42),(0,6),(53,47),(0,3),(0,3),(0,6);:_ZN6MAUtil6VectorIPN8NativeUI19WidgetEventListenerEE6removeEii;2A.;insert::(53,62)=#(53,42),(0,6),(53,47),(0,3),(53,44),(0,6);:_ZN6MAUtil6VectorIPN8NativeUI19WidgetEventListenerEE6insertEiS3_;2A.;size::(53,63)=#(53,42),(0,3),(53,64)=*(53,53),(0,6);:_ZNK6MAUtil6VectorIPN8NativeUI19WidgetEventListenerEE4sizeEv;2B.;resize::(53,60):_ZN6MAUtil6VectorIPN8NativeUI19WidgetEventListenerEE6resizeEi;2A.;reserve::(53,60):_ZN6MAUtil6VectorIPN8NativeUI19WidgetEventListenerEE7reserveEi;2A.;clear::(53,54):_ZN6MAUtil6VectorIPN8NativeUI19WidgetEventListenerEE5clearEv;2A.;empty::(53,65)=#(53,42),(0,4),(53,64),(0,6);:_ZNK6MAUtil6VectorIPN8NativeUI19WidgetEventListenerEE5emptyEv;2B.;capacity::(53,63):_ZNK6MAUtil6VectorIPN8NativeUI19WidgetEventListenerEE8capacityEv;2B.;begin::(53,66)=#(53,42),(53,43),(53,47),(0,6);:_ZN6MAUtil6VectorIPN8NativeUI19WidgetEventListenerEE5beginEv;2A.;end::(53,66):_ZN6MAUtil6VectorIPN8NativeUI19WidgetEventListenerEE3endEv;2A.;begin::(53,67)=#(53,42),(53,49),(53,64),(0,6);:_ZNK6MAUtil6VectorIPN8NativeUI19WidgetEventListenerEE5beginEv;2B.;end::(53,67):_ZNK6MAUtil6VectorIPN8NativeUI19WidgetEventListenerEE3endEv;2B.;operator[]::(53,68)=#(53,42),(53,69)=&(53,44),(53,47),(0,3),(0,6);:_ZN6MAUtil6VectorIPN8NativeUI19WidgetEventListenerEEixEi;2A.(53,70)=#(53,42),(53,58),(53,64),(0,3),(0,6);:_ZNK6MAUtil6VectorIPN8NativeUI19WidgetEventListenerEEixEi;2B.;pointer::(53,67):_ZNK6MAUtil6VectorIPN8NativeUI19WidgetEventListenerEE7pointerEv;2B.(53,66):_ZN6MAUtil6VectorIPN8NativeUI19WidgetEventListenerEE7pointerEv;2A.;;",128,0,95,0
	.stabs	"Vector<NativeUI::Widget*>:Tt(53,71)=s12mSize:/1(0,3),0,32;mCapacity:/1(0,3),32,32;mData:/1(53,72)=*(53,73)=*(53,74)=xsWidget:,64,32;__base_ctor::(53,75)=#(53,71),(0,6),(53,76)=*(53,71),(0,3),(0,6);:_ZN6MAUtil6VectorIPN8NativeUI6WidgetEEC2Ei;2A.;__comp_ctor::(53,75):_ZN6MAUtil6VectorIPN8NativeUI6WidgetEEC1Ei;2A.;__base_ctor::(53,77)=#(53,71),(0,6),(53,76),(53,78)=*(53,79)=k(53,73),(0,3),(0,6);:_ZN6MAUtil6VectorIPN8NativeUI6WidgetEEC2EPKS3_i;2A.;__comp_ctor::(53,77):_ZN6MAUtil6VectorIPN8NativeUI6WidgetEEC1EPKS3_i;2A.;__base_ctor::(53,80)=#(53,71),(0,6),(53,76),(53,81)=&(53,82)=k(53,71),(0,6);:_ZN6MAUtil6VectorIPN8NativeUI6WidgetEEC2ERKS4_;2A.;__comp_ctor::(53,80):_ZN6MAUtil6VectorIPN8NativeUI6WidgetEEC1ERKS4_;2A.;__base_dtor::(53,83)=#(53,71),(0,6),(53,76),(0,6);:_ZN6MAUtil6VectorIPN8NativeUI6WidgetEED2Ev;2A.;__comp_dtor::(53,83):_ZN6MAUtil6VectorIPN8NativeUI6WidgetEED1Ev;2A.;operator=::(53,84)=#(53,71),(53,85)=&(53,71),(53,76),(53,81),(0,6);:_ZN6MAUtil6VectorIPN8NativeUI6WidgetEEaSERKS4_;2A.;add::(53,86)=#(53,71),(0,6),(53,76),(53,87)=&(53,79),(0,6);:_ZN6MAUtil6VectorIPN8NativeUI6WidgetEE3addERKS3_;2A.(53,77):_ZN6MAUtil6VectorIPN8NativeUI6WidgetEE3addEPKS3_i;2A.;remove::(53,88)=#(53,71),(0,6),(53,76),(53,72),(0,6);:_ZN6MAUtil6VectorIPN8NativeUI6WidgetEE6removeEPS3_;2A.(53,89)=#(53,71),(0,6),(53,76),(0,3),(0,6);:_ZN6MAUtil6VectorIPN8NativeUI6WidgetEE6removeEi;2A.(53,90)=#(53,71),(0,6),(53,76),(0,3),(0,3),(0,6);:_ZN6MAUtil6VectorIPN8NativeUI6WidgetEE6removeEii;2A.;insert::(53,91)=#(53,71),(0,6),(53,76),(0,3),(53,73),(0,6);:_ZN6MAUtil6VectorIPN8NativeUI6WidgetEE6insertEiS3_;2A.;size::(53,92)=#(53,71),(0,3),(53,93)=*(53,82),(0,6);:_ZNK6MAUtil6VectorIPN8NativeUI6WidgetEE4sizeEv;2B.;resize::(53,89):_ZN6MAUtil6VectorIPN8NativeUI6WidgetEE6resizeEi;2A.;reserve::(53,89):_ZN6MAUtil6VectorIPN8NativeUI6WidgetEE7reserveEi;2A.;clear::(53,83):_ZN6MAUtil6VectorIPN8NativeUI6WidgetEE5clearEv;2A.;empty::(53,94)=#(53,71),(0,4),(53,93),(0,6);:_ZNK6MAUtil6VectorIPN8NativeUI6WidgetEE5emptyEv;2B.;capacity::(53,92):_ZNK6MAUtil6VectorIPN8NativeUI6WidgetEE8capacityEv;2B.;begin::(53,95)=#(53,71),(53,72),(53,76),(0,6);:_ZN6MAUtil6VectorIPN8NativeUI6WidgetEE5beginEv;2A.;end::(53,95):_ZN6MAUtil6VectorIPN8NativeUI6WidgetEE3endEv;2A.;begin::(53,96)=#(53,71),(53,78),(53,93),(0,6);:_ZNK6MAUtil6VectorIPN8NativeUI6WidgetEE5beginEv;2B.;end::(53,96):_ZNK6MAUtil6VectorIPN8NativeUI6WidgetEE3endEv;2B.;operator[]::(53,97)=#(53,71),(53,98)=&(53,73),(53,76),(0,3),(0,6);:_ZN6MAUtil6VectorIPN8NativeUI6WidgetEEixEi;2A.(53,99)=#(53,71),(53,87),(53,93),(0,3),(0,6);:_ZNK6MAUtil6VectorIPN8NativeUI6WidgetEEixEi;2B.;pointer::(53,96):_ZNK6MAUtil6VectorIPN8NativeUI6WidgetEE7pointerEv;2B.(53,95):_ZN6MAUtil6VectorIPN8NativeUI6WidgetEE7pointerEv;2A.;;",128,0,95,0
	.stabn	162,0,0,0
	.stabn	162,0,0,0
	.stabs	"/Applications/MoSync/include/NativeUI/Button.h",130,0,0,0
	.stabs	"/Applications/MoSync/include/NativeUI/TextWidget.h",130,0,0,0
	.stabn	162,0,0,0
	.stabs	"Vector<NativeUI::ButtonListener*>:Tt(61,1)=s12mSize:/1(0,3),0,32;mCapacity:/1(0,3),32,32;mData:/1(61,2)=*(61,3)=*(61,4)=xsButtonListener:,64,32;__base_ctor::(61,5)=#(61,1),(0,6),(61,6)=*(61,1),(0,3),(0,6);:_ZN6MAUtil6VectorIPN8NativeUI14ButtonListenerEEC2Ei;2A.;__comp_ctor::(61,5):_ZN6MAUtil6VectorIPN8NativeUI14ButtonListenerEEC1Ei;2A.;__base_ctor::(61,7)=#(61,1),(0,6),(61,6),(61,8)=*(61,9)=k(61,3),(0,3),(0,6);:_ZN6MAUtil6VectorIPN8NativeUI14ButtonListenerEEC2EPKS3_i;2A.;__comp_ctor::(61,7):_ZN6MAUtil6VectorIPN8NativeUI14ButtonListenerEEC1EPKS3_i;2A.;__base_ctor::(61,10)=#(61,1),(0,6),(61,6),(61,11)=&(61,12)=k(61,1),(0,6);:_ZN6MAUtil6VectorIPN8NativeUI14ButtonListenerEEC2ERKS4_;2A.;__comp_ctor::(61,10):_ZN6MAUtil6VectorIPN8NativeUI14ButtonListenerEEC1ERKS4_;2A.;__base_dtor::(61,13)=#(61,1),(0,6),(61,6),(0,6);:_ZN6MAUtil6VectorIPN8NativeUI14ButtonListenerEED2Ev;2A.;__comp_dtor::(61,13):_ZN6MAUtil6VectorIPN8NativeUI14ButtonListenerEED1Ev;2A.;operator=::(61,14)=#(61,1),(61,15)=&(61,1),(61,6),(61,11),(0,6);:_ZN6MAUtil6VectorIPN8NativeUI14ButtonListenerEEaSERKS4_;2A.;add::(61,16)=#(61,1),(0,6),(61,6),(61,17)=&(61,9),(0,6);:_ZN6MAUtil6VectorIPN8NativeUI14ButtonListenerEE3addERKS3_;2A.(61,7):_ZN6MAUtil6VectorIPN8NativeUI14ButtonListenerEE3addEPKS3_i;2A.;remove::(61,18)=#(61,1),(0,6),(61,6),(61,2),(0,6);:_ZN6MAUtil6VectorIPN8NativeUI14ButtonListenerEE6removeEPS3_;2A.(61,19)=#(61,1),(0,6),(61,6),(0,3),(0,6);:_ZN6MAUtil6VectorIPN8NativeUI14ButtonListenerEE6removeEi;2A.(61,20)=#(61,1),(0,6),(61,6),(0,3),(0,3),(0,6);:_ZN6MAUtil6VectorIPN8NativeUI14ButtonListenerEE6removeEii;2A.;insert::(61,21)=#(61,1),(0,6),(61,6),(0,3),(61,3),(0,6);:_ZN6MAUtil6VectorIPN8NativeUI14ButtonListenerEE6insertEiS3_;2A.;size::(61,22)=#(61,1),(0,3),(61,23)=*(61,12),(0,6);:_ZNK6MAUtil6VectorIPN8NativeUI14ButtonListenerEE4sizeEv;2B.;resize::(61,19):_ZN6MAUtil6VectorIPN8NativeUI14ButtonListenerEE6resizeEi;2A.;reserve::(61,19):_ZN6MAUtil6VectorIPN8NativeUI14ButtonListenerEE7reserveEi;2A.;clear::(61,13):_ZN6MAUtil6VectorIPN8NativeUI14ButtonListenerEE5clearEv;2A.;empty::(61,24)=#(61,1),(0,4),(61,23),(0,6);:_ZNK6MAUtil6VectorIPN8NativeUI14ButtonListenerEE5emptyEv;2B.;capacity::(61,22):_ZNK6MAUtil6VectorIPN8NativeUI14ButtonListenerEE8capacityEv;2B.;begin::(61,25)=#(61,1),(61,2),(61,6),(0,6);:_ZN6MAUtil6VectorIPN8NativeUI14ButtonListenerEE5beginEv;2A.;end::(61,25):_ZN6MAUtil6VectorIPN8NativeUI14ButtonListenerEE3endEv;2A.;begin::(61,26)=#(61,1),(61,8),(61,23),(0,6);:_ZNK6MAUtil6VectorIPN8NativeUI14ButtonListenerEE5beginEv;2B.;end::(61,26):_ZNK6MAUtil6VectorIPN8NativeUI14ButtonListenerEE3endEv;2B.;operator[]::(61,27)=#(61,1),(61,28)=&(61,3),(61,6),(0,3),(0,6);:_ZN6MAUtil6VectorIPN8NativeUI14ButtonListenerEEixEi;2A.(61,29)=#(61,1),(61,17),(61,23),(0,3),(0,6);:_ZNK6MAUtil6VectorIPN8NativeUI14ButtonListenerEEixEi;2B.;pointer::(61,26):_ZNK6MAUtil6VectorIPN8NativeUI14ButtonListenerEE7pointerEv;2B.(61,25):_ZN6MAUtil6VectorIPN8NativeUI14ButtonListenerEE7pointerEv;2A.;;",128,0,95,0
	.stabn	162,0,0,0
	.stabs	"/Applications/MoSync/include/NativeUI/ButtonListener.h",130,0,0,0
	.stabn	162,0,0,0
	.stabs	"/Applications/MoSync/include/NativeUI/CameraPreview.h",130,0,0,0
	.stabn	162,0,0,0
	.stabs	"/Applications/MoSync/include/NativeUI/Camera.h",130,0,0,0
	.stabs	"CAMERA_FLASH_MODE:t(65,1)=eFLASH_AUTO:0,FLASH_ON:1,FLASH_OFF:2,FLASH_TORCH:3,FLASH_UNDEFINED:4,;",128,0,53,0
	.stabs	"CAMERA_FOCUS_MODE:t(65,2)=eFOCUS_AUTO:10,FOCUS_INFINITY:11,FOCUS_MACRO:12,FOCUS_FIXED:13,FOCUS_UNDEFINED:14,;",128,0,64,0
	.stabs	"CAMERA_SNAPSHOT_FORMAT:t(65,3)=eSNAPSHOT_RAW:100,SNAPSHOT_JPEG:101,SNAPSHOT_UNKNOWN:102,;",128,0,73,0
	.stabs	"CameraSnapshotData:Tt(65,4)=s16dataHandle:(45,5),0,32;format:(65,3),32,32;imageSize:(0,17),64,32;resultCode:(0,3),96,32;makeFromEvent::(65,5)=f(65,6)=*(65,4):_ZN8NativeUI18CameraSnapshotData13makeFromEventERK7MAEvent;2A?;operator=::(65,7)=#(65,4),(65,8)=&(65,4),(65,6),(65,9)=&(65,10)=k(65,4),(0,6);:_ZN8NativeUI18CameraSnapshotDataaSERKS0_;2A.;__base_ctor::(65,11)=#(65,4),(0,6),(65,6),(65,9),(0,6);:_ZN8NativeUI18CameraSnapshotDataC2ERKS0_;2A.;__comp_ctor::(65,11):_ZN8NativeUI18CameraSnapshotDataC1ERKS0_;2A.;__base_ctor::(65,12)=#(65,4),(0,6),(65,6),(0,6);:_ZN8NativeUI18CameraSnapshotDataC2Ev;2A.;__comp_ctor::(65,12):_ZN8NativeUI18CameraSnapshotDataC1Ev;2A.;;",128,0,78,0
	.stabs	"CameraSnapshotData:t(65,13)=(65,4)",128,0,107,0
	.stabs	"CameraPreviewData:Tt(65,14)=s28frameBuffer:(65,15)=*(0,3),0,32;type:(0,3),32,32;rect:(45,31),64,128;resultCode:(0,3),192,32;operator=::(65,16)=#(65,14),(65,17)=&(65,14),(65,18)=*(65,14),(65,19)=&(65,20)=k(65,14),(0,6);:_ZN8NativeUI17CameraPreviewDataaSERKS0_;2A.;__base_ctor::(65,21)=#(65,14),(0,6),(65,18),(65,19),(0,6);:_ZN8NativeUI17CameraPreviewDataC2ERKS0_;2A.;__comp_ctor::(65,21):_ZN8NativeUI17CameraPreviewDataC1ERKS0_;2A.;__base_ctor::(65,22)=#(65,14),(0,6),(65,18),(0,6);:_ZN8NativeUI17CameraPreviewDataC2Ev;2A.;__comp_ctor::(65,22):_ZN8NativeUI17CameraPreviewDataC1Ev;2A.;;",128,0,112,0
	.stabs	"CameraPreviewData:t(65,23)=(65,14)",128,0,140,0
	.stabs	"Vector<NativeUI::CameraSnapshotListener*>:Tt(65,24)=s12mSize:/1(0,3),0,32;mCapacity:/1(0,3),32,32;mData:/1(65,25)=*(65,26)=*(65,27)=xsCameraSnapshotListener:,64,32;__base_ctor::(65,28)=#(65,24),(0,6),(65,29)=*(65,24),(0,3),(0,6);:_ZN6MAUtil6VectorIPN8NativeUI22CameraSnapshotListenerEEC2Ei;2A.;__comp_ctor::(65,28):_ZN6MAUtil6VectorIPN8NativeUI22CameraSnapshotListenerEEC1Ei;2A.;__base_ctor::(65,30)=#(65,24),(0,6),(65,29),(65,31)=*(65,32)=k(65,26),(0,3),(0,6);:_ZN6MAUtil6VectorIPN8NativeUI22CameraSnapshotListenerEEC2EPKS3_i;2A.;__comp_ctor::(65,30):_ZN6MAUtil6VectorIPN8NativeUI22CameraSnapshotListenerEEC1EPKS3_i;2A.;__base_ctor::(65,33)=#(65,24),(0,6),(65,29),(65,34)=&(65,35)=k(65,24),(0,6);:_ZN6MAUtil6VectorIPN8NativeUI22CameraSnapshotListenerEEC2ERKS4_;2A.;__comp_ctor::(65,33):_ZN6MAUtil6VectorIPN8NativeUI22CameraSnapshotListenerEEC1ERKS4_;2A.;__base_dtor::(65,36)=#(65,24),(0,6),(65,29),(0,6);:_ZN6MAUtil6VectorIPN8NativeUI22CameraSnapshotListenerEED2Ev;2A.;__comp_dtor::(65,36):_ZN6MAUtil6VectorIPN8NativeUI22CameraSnapshotListenerEED1Ev;2A.;operator=::(65,37)=#(65,24),(65,38)=&(65,24),(65,29),(65,34),(0,6);:_ZN6MAUtil6VectorIPN8NativeUI22CameraSnapshotListenerEEaSERKS4_;2A.;add::(65,39)=#(65,24),(0,6),(65,29),(65,40)=&(65,32),(0,6);:_ZN6MAUtil6VectorIPN8NativeUI22CameraSnapshotListenerEE3addERKS3_;2A.(65,30):_ZN6MAUtil6VectorIPN8NativeUI22CameraSnapshotListenerEE3addEPKS3_i;2A.;remove::(65,41)=#(65,24),(0,6),(65,29),(65,25),(0,6);:_ZN6MAUtil6VectorIPN8NativeUI22CameraSnapshotListenerEE6removeEPS3_;2A.(65,42)=#(65,24),(0,6),(65,29),(0,3),(0,6);:_ZN6MAUtil6VectorIPN8NativeUI22CameraSnapshotListenerEE6removeEi;2A.(65,43)=#(65,24),(0,6),(65,29),(0,3),(0,3),(0,6);:_ZN6MAUtil6VectorIPN8NativeUI22CameraSnapshotListenerEE6removeEii;2A.;insert::(65,44)=#(65,24),(0,6),(65,29),(0,3),(65,26),(0,6);:_ZN6MAUtil6VectorIPN8NativeUI22CameraSnapshotListenerEE6insertEiS3_;2A.;size::(65,45)=#(65,24),(0,3),(65,46)=*(65,35),(0,6);:_ZNK6MAUtil6VectorIPN8NativeUI22CameraSnapshotListenerEE4sizeEv;2B.;resize::(65,42):_ZN6MAUtil6VectorIPN8NativeUI22CameraSnapshotListenerEE6resizeEi;2A.;reserve::(65,42):_ZN6MAUtil6VectorIPN8NativeUI22CameraSnapshotListenerEE7reserveEi;2A.;clear::(65,36):_ZN6MAUtil6VectorIPN8NativeUI22CameraSnapshotListenerEE5clearEv;2A.;empty::(65,47)=#(65,24),(0,4),(65,46),(0,6);:_ZNK6MAUtil6VectorIPN8NativeUI22CameraSnapshotListenerEE5emptyEv;2B.;capacity::(65,45):_ZNK6MAUtil6VectorIPN8NativeUI22CameraSnapshotListenerEE8capacityEv;2B.;begin::(65,48)=#(65,24),(65,25),(65,29),(0,6);:_ZN6MAUtil6VectorIPN8NativeUI22CameraSnapshotListenerEE5beginEv;2A.;end::(65,48):_ZN6MAUtil6VectorIPN8NativeUI22CameraSnapshotListenerEE3endEv;2A.;begin::(65,49)=#(65,24),(65,31),(65,46),(0,6);:_ZNK6MAUtil6VectorIPN8NativeUI22CameraSnapshotListenerEE5beginEv;2B.;end::(65,49):_ZNK6MAUtil6VectorIPN8NativeUI22CameraSnapshotListenerEE3endEv;2B.;operator[]::(65,50)=#(65,24),(65,51)=&(65,26),(65,29),(0,3),(0,6);:_ZN6MAUtil6VectorIPN8NativeUI22CameraSnapshotListenerEEixEi;2A.(65,52)=#(65,24),(65,40),(65,46),(0,3),(0,6);:_ZNK6MAUtil6VectorIPN8NativeUI22CameraSnapshotListenerEEixEi;2B.;pointer::(65,49):_ZNK6MAUtil6VectorIPN8NativeUI22CameraSnapshotListenerEE7pointerEv;2B.(65,48):_ZN6MAUtil6VectorIPN8NativeUI22CameraSnapshotListenerEE7pointerEv;2A.;;",128,0,95,0
	.stabs	"Vector<MAExtent>:Tt(65,53)=s12mSize:/1(0,3),0,32;mCapacity:/1(0,3),32,32;mData:/1(65,54)=*(45,6),64,32;__base_ctor::(65,55)=#(65,53),(0,6),(65,56)=*(65,53),(0,3),(0,6);:_ZN6MAUtil6VectorIiEC2Ei;2A.;__comp_ctor::(65,55):_ZN6MAUtil6VectorIiEC1Ei;2A.;__base_ctor::(65,57)=#(65,53),(0,6),(65,56),(65,58)=*(65,59)=k(45,6),(0,3),(0,6);:_ZN6MAUtil6VectorIiEC2EPKii;2A.;__comp_ctor::(65,57):_ZN6MAUtil6VectorIiEC1EPKii;2A.;__base_ctor::(65,60)=#(65,53),(0,6),(65,56),(65,61)=&(65,62)=k(65,53),(0,6);:_ZN6MAUtil6VectorIiEC2ERKS1_;2A.;__comp_ctor::(65,60):_ZN6MAUtil6VectorIiEC1ERKS1_;2A.;__base_dtor::(65,63)=#(65,53),(0,6),(65,56),(0,6);:_ZN6MAUtil6VectorIiED2Ev;2A.;__comp_dtor::(65,63):_ZN6MAUtil6VectorIiED1Ev;2A.;operator=::(65,64)=#(65,53),(65,65)=&(65,53),(65,56),(65,61),(0,6);:_ZN6MAUtil6VectorIiEaSERKS1_;2A.;add::(65,66)=#(65,53),(0,6),(65,56),(65,67)=&(65,59),(0,6);:_ZN6MAUtil6VectorIiE3addERKi;2A.(65,57):_ZN6MAUtil6VectorIiE3addEPKii;2A.;remove::(65,68)=#(65,53),(0,6),(65,56),(65,54),(0,6);:_ZN6MAUtil6VectorIiE6removeEPi;2A.(65,69)=#(65,53),(0,6),(65,56),(0,3),(0,6);:_ZN6MAUtil6VectorIiE6removeEi;2A.(65,70)=#(65,53),(0,6),(65,56),(0,3),(0,3),(0,6);:_ZN6MAUtil6VectorIiE6removeEii;2A.;insert::(65,70):_ZN6MAUtil6VectorIiE6insertEii;2A.;size::(65,71)=#(65,53),(0,3),(65,72)=*(65,62),(0,6);:_ZNK6MAUtil6VectorIiE4sizeEv;2B.;resize::(65,69):_ZN6MAUtil6VectorIiE6resizeEi;2A.;reserve::(65,69):_ZN6MAUtil6VectorIiE7reserveEi;2A.;clear::(65,63):_ZN6MAUtil6VectorIiE5clearEv;2A.;empty::(65,73)=#(65,53),(0,4),(65,72),(0,6);:_ZNK6MAUtil6VectorIiE5emptyEv;2B.;capacity::(65,71):_ZNK6MAUtil6VectorIiE8capacityEv;2B.;begin::(65,74)=#(65,53),(65,54),(65,56),(0,6);:_ZN6MAUtil6VectorIiE5beginEv;2A.;end::(65,74):_ZN6MAUtil6VectorIiE3endEv;2A.;begin::(65,75)=#(65,53),(65,58),(65,72),(0,6);:_ZNK6MAUtil6VectorIiE5beginEv;2B.;end::(65,75):_ZNK6MAUtil6VectorIiE3endEv;2B.;operator[]::(65,76)=#(65,53),(65,77)=&(45,6),(65,56),(0,3),(0,6);:_ZN6MAUtil6VectorIiEixEi;2A.(65,78)=#(65,53),(65,67),(65,72),(0,3),(0,6);:_ZNK6MAUtil6VectorIiEixEi;2B.;pointer::(65,75):_ZNK6MAUtil6VectorIiE7pointerEv;2B.(65,74):_ZN6MAUtil6VectorIiE7pointerEv;2A.;;",128,0,95,0
	.stabn	162,0,0,0
	.stabs	"/Applications/MoSync/include/NativeUI/CheckBox.h",130,0,0,0
	.stabs	"Vector<NativeUI::CheckBoxListener*>:Tt(66,1)=s12mSize:/1(0,3),0,32;mCapacity:/1(0,3),32,32;mData:/1(66,2)=*(66,3)=*(66,4)=xsCheckBoxListener:,64,32;__base_ctor::(66,5)=#(66,1),(0,6),(66,6)=*(66,1),(0,3),(0,6);:_ZN6MAUtil6VectorIPN8NativeUI16CheckBoxListenerEEC2Ei;2A.;__comp_ctor::(66,5):_ZN6MAUtil6VectorIPN8NativeUI16CheckBoxListenerEEC1Ei;2A.;__base_ctor::(66,7)=#(66,1),(0,6),(66,6),(66,8)=*(66,9)=k(66,3),(0,3),(0,6);:_ZN6MAUtil6VectorIPN8NativeUI16CheckBoxListenerEEC2EPKS3_i;2A.;__comp_ctor::(66,7):_ZN6MAUtil6VectorIPN8NativeUI16CheckBoxListenerEEC1EPKS3_i;2A.;__base_ctor::(66,10)=#(66,1),(0,6),(66,6),(66,11)=&(66,12)=k(66,1),(0,6);:_ZN6MAUtil6VectorIPN8NativeUI16CheckBoxListenerEEC2ERKS4_;2A.;__comp_ctor::(66,10):_ZN6MAUtil6VectorIPN8NativeUI16CheckBoxListenerEEC1ERKS4_;2A.;__base_dtor::(66,13)=#(66,1),(0,6),(66,6),(0,6);:_ZN6MAUtil6VectorIPN8NativeUI16CheckBoxListenerEED2Ev;2A.;__comp_dtor::(66,13):_ZN6MAUtil6VectorIPN8NativeUI16CheckBoxListenerEED1Ev;2A.;operator=::(66,14)=#(66,1),(66,15)=&(66,1),(66,6),(66,11),(0,6);:_ZN6MAUtil6VectorIPN8NativeUI16CheckBoxListenerEEaSERKS4_;2A.;add::(66,16)=#(66,1),(0,6),(66,6),(66,17)=&(66,9),(0,6);:_ZN6MAUtil6VectorIPN8NativeUI16CheckBoxListenerEE3addERKS3_;2A.(66,7):_ZN6MAUtil6VectorIPN8NativeUI16CheckBoxListenerEE3addEPKS3_i;2A.;remove::(66,18)=#(66,1),(0,6),(66,6),(66,2),(0,6);:_ZN6MAUtil6VectorIPN8NativeUI16CheckBoxListenerEE6removeEPS3_;2A.(66,19)=#(66,1),(0,6),(66,6),(0,3),(0,6);:_ZN6MAUtil6VectorIPN8NativeUI16CheckBoxListenerEE6removeEi;2A.(66,20)=#(66,1),(0,6),(66,6),(0,3),(0,3),(0,6);:_ZN6MAUtil6VectorIPN8NativeUI16CheckBoxListenerEE6removeEii;2A.;insert::(66,21)=#(66,1),(0,6),(66,6),(0,3),(66,3),(0,6);:_ZN6MAUtil6VectorIPN8NativeUI16CheckBoxListenerEE6insertEiS3_;2A.;size::(66,22)=#(66,1),(0,3),(66,23)=*(66,12),(0,6);:_ZNK6MAUtil6VectorIPN8NativeUI16CheckBoxListenerEE4sizeEv;2B.;resize::(66,19):_ZN6MAUtil6VectorIPN8NativeUI16CheckBoxListenerEE6resizeEi;2A.;reserve::(66,19):_ZN6MAUtil6VectorIPN8NativeUI16CheckBoxListenerEE7reserveEi;2A.;clear::(66,13):_ZN6MAUtil6VectorIPN8NativeUI16CheckBoxListenerEE5clearEv;2A.;empty::(66,24)=#(66,1),(0,4),(66,23),(0,6);:_ZNK6MAUtil6VectorIPN8NativeUI16CheckBoxListenerEE5emptyEv;2B.;capacity::(66,22):_ZNK6MAUtil6VectorIPN8NativeUI16CheckBoxListenerEE8capacityEv;2B.;begin::(66,25)=#(66,1),(66,2),(66,6),(0,6);:_ZN6MAUtil6VectorIPN8NativeUI16CheckBoxListenerEE5beginEv;2A.;end::(66,25):_ZN6MAUtil6VectorIPN8NativeUI16CheckBoxListenerEE3endEv;2A.;begin::(66,26)=#(66,1),(66,8),(66,23),(0,6);:_ZNK6MAUtil6VectorIPN8NativeUI16CheckBoxListenerEE5beginEv;2B.;end::(66,26):_ZNK6MAUtil6VectorIPN8NativeUI16CheckBoxListenerEE3endEv;2B.;operator[]::(66,27)=#(66,1),(66,28)=&(66,3),(66,6),(0,3),(0,6);:_ZN6MAUtil6VectorIPN8NativeUI16CheckBoxListenerEEixEi;2A.(66,29)=#(66,1),(66,17),(66,23),(0,3),(0,6);:_ZNK6MAUtil6VectorIPN8NativeUI16CheckBoxListenerEEixEi;2B.;pointer::(66,26):_ZNK6MAUtil6VectorIPN8NativeUI16CheckBoxListenerEE7pointerEv;2B.(66,25):_ZN6MAUtil6VectorIPN8NativeUI16CheckBoxListenerEE7pointerEv;2A.;;",128,0,95,0
	.stabn	162,0,0,0
	.stabs	"/Applications/MoSync/include/NativeUI/CheckBoxListener.h",130,0,0,0
	.stabn	162,0,0,0
	.stabs	"/Applications/MoSync/include/NativeUI/CustomPicker.h",130,0,0,0
	.stabs	"Vector<NativeUI::CustomPickerListener*>:Tt(68,1)=s12mSize:/1(0,3),0,32;mCapacity:/1(0,3),32,32;mData:/1(68,2)=*(68,3)=*(68,4)=xsCustomPickerListener:,64,32;__base_ctor::(68,5)=#(68,1),(0,6),(68,6)=*(68,1),(0,3),(0,6);:_ZN6MAUtil6VectorIPN8NativeUI20CustomPickerListenerEEC2Ei;2A.;__comp_ctor::(68,5):_ZN6MAUtil6VectorIPN8NativeUI20CustomPickerListenerEEC1Ei;2A.;__base_ctor::(68,7)=#(68,1),(0,6),(68,6),(68,8)=*(68,9)=k(68,3),(0,3),(0,6);:_ZN6MAUtil6VectorIPN8NativeUI20CustomPickerListenerEEC2EPKS3_i;2A.;__comp_ctor::(68,7):_ZN6MAUtil6VectorIPN8NativeUI20CustomPickerListenerEEC1EPKS3_i;2A.;__base_ctor::(68,10)=#(68,1),(0,6),(68,6),(68,11)=&(68,12)=k(68,1),(0,6);:_ZN6MAUtil6VectorIPN8NativeUI20CustomPickerListenerEEC2ERKS4_;2A.;__comp_ctor::(68,10):_ZN6MAUtil6VectorIPN8NativeUI20CustomPickerListenerEEC1ERKS4_;2A.;__base_dtor::(68,13)=#(68,1),(0,6),(68,6),(0,6);:_ZN6MAUtil6VectorIPN8NativeUI20CustomPickerListenerEED2Ev;2A.;__comp_dtor::(68,13):_ZN6MAUtil6VectorIPN8NativeUI20CustomPickerListenerEED1Ev;2A.;operator=::(68,14)=#(68,1),(68,15)=&(68,1),(68,6),(68,11),(0,6);:_ZN6MAUtil6VectorIPN8NativeUI20CustomPickerListenerEEaSERKS4_;2A.;add::(68,16)=#(68,1),(0,6),(68,6),(68,17)=&(68,9),(0,6);:_ZN6MAUtil6VectorIPN8NativeUI20CustomPickerListenerEE3addERKS3_;2A.(68,7):_ZN6MAUtil6VectorIPN8NativeUI20CustomPickerListenerEE3addEPKS3_i;2A.;remove::(68,18)=#(68,1),(0,6),(68,6),(68,2),(0,6);:_ZN6MAUtil6VectorIPN8NativeUI20CustomPickerListenerEE6removeEPS3_;2A.(68,19)=#(68,1),(0,6),(68,6),(0,3),(0,6);:_ZN6MAUtil6VectorIPN8NativeUI20CustomPickerListenerEE6removeEi;2A.(68,20)=#(68,1),(0,6),(68,6),(0,3),(0,3),(0,6);:_ZN6MAUtil6VectorIPN8NativeUI20CustomPickerListenerEE6removeEii;2A.;insert::(68,21)=#(68,1),(0,6),(68,6),(0,3),(68,3),(0,6);:_ZN6MAUtil6VectorIPN8NativeUI20CustomPickerListenerEE6insertEiS3_;2A.;size::(68,22)=#(68,1),(0,3),(68,23)=*(68,12),(0,6);:_ZNK6MAUtil6VectorIPN8NativeUI20CustomPickerListenerEE4sizeEv;2B.;resize::(68,19):_ZN6MAUtil6VectorIPN8NativeUI20CustomPickerListenerEE6resizeEi;2A.;reserve::(68,19):_ZN6MAUtil6VectorIPN8NativeUI20CustomPickerListenerEE7reserveEi;2A.;clear::(68,13):_ZN6MAUtil6VectorIPN8NativeUI20CustomPickerListenerEE5clearEv;2A.;empty::(68,24)=#(68,1),(0,4),(68,23),(0,6);:_ZNK6MAUtil6VectorIPN8NativeUI20CustomPickerListenerEE5emptyEv;2B.;capacity::(68,22):_ZNK6MAUtil6VectorIPN8NativeUI20CustomPickerListenerEE8capacityEv;2B.;begin::(68,25)=#(68,1),(68,2),(68,6),(0,6);:_ZN6MAUtil6VectorIPN8NativeUI20CustomPickerListenerEE5beginEv;2A.;end::(68,25):_ZN6MAUtil6VectorIPN8NativeUI20CustomPickerListenerEE3endEv;2A.;begin::(68,26)=#(68,1),(68,8),(68,23),(0,6);:_ZNK6MAUtil6VectorIPN8NativeUI20CustomPickerListenerEE5beginEv;2B.;end::(68,26):_ZNK6MAUtil6VectorIPN8NativeUI20CustomPickerListenerEE3endEv;2B.;operator[]::(68,27)=#(68,1),(68,28)=&(68,3),(68,6),(0,3),(0,6);:_ZN6MAUtil6VectorIPN8NativeUI20CustomPickerListenerEEixEi;2A.(68,29)=#(68,1),(68,17),(68,23),(0,3),(0,6);:_ZNK6MAUtil6VectorIPN8NativeUI20CustomPickerListenerEEixEi;2B.;pointer::(68,26):_ZNK6MAUtil6VectorIPN8NativeUI20CustomPickerListenerEE7pointerEv;2B.(68,25):_ZN6MAUtil6VectorIPN8NativeUI20CustomPickerListenerEE7pointerEv;2A.;;",128,0,95,0
	.stabn	162,0,0,0
	.stabs	"/Applications/MoSync/include/NativeUI/DatePicker.h",130,0,0,0
	.stabs	"Date:Tt(69,1)=s12day:(0,3),0,32;month:(0,3),32,32;year:(0,3),64,32;__base_ctor::(69,2)=#(69,1),(0,6),(69,3)=*(69,1),(0,3),(0,3),(0,3),(0,6);:_ZN8NativeUI4DateC2Eiii;2A.;__comp_ctor::(69,2):_ZN8NativeUI4DateC1Eiii;2A.;__base_ctor::(69,4)=#(69,1),(0,6),(69,3),(0,6);:_ZN8NativeUI4DateC2Ev;2A.;__comp_ctor::(69,4):_ZN8NativeUI4DateC1Ev;2A.;operator=::(69,5)=#(69,1),(69,6)=&(69,1),(69,3),(69,7)=&(69,8)=k(69,1),(0,6);:_ZN8NativeUI4DateaSERKS0_;2A.;__base_ctor::(69,9)=#(69,1),(0,6),(69,3),(69,7),(0,6);:_ZN8NativeUI4DateC2ERKS0_;2A.;__comp_ctor::(69,9):_ZN8NativeUI4DateC1ERKS0_;2A.;;",128,0,52,0
	.stabs	"Vector<NativeUI::DatePickerListener*>:Tt(69,10)=s12mSize:/1(0,3),0,32;mCapacity:/1(0,3),32,32;mData:/1(69,11)=*(69,12)=*(69,13)=xsDatePickerListener:,64,32;__base_ctor::(69,14)=#(69,10),(0,6),(69,15)=*(69,10),(0,3),(0,6);:_ZN6MAUtil6VectorIPN8NativeUI18DatePickerListenerEEC2Ei;2A.;__comp_ctor::(69,14):_ZN6MAUtil6VectorIPN8NativeUI18DatePickerListenerEEC1Ei;2A.;__base_ctor::(69,16)=#(69,10),(0,6),(69,15),(69,17)=*(69,18)=k(69,12),(0,3),(0,6);:_ZN6MAUtil6VectorIPN8NativeUI18DatePickerListenerEEC2EPKS3_i;2A.;__comp_ctor::(69,16):_ZN6MAUtil6VectorIPN8NativeUI18DatePickerListenerEEC1EPKS3_i;2A.;__base_ctor::(69,19)=#(69,10),(0,6),(69,15),(69,20)=&(69,21)=k(69,10),(0,6);:_ZN6MAUtil6VectorIPN8NativeUI18DatePickerListenerEEC2ERKS4_;2A.;__comp_ctor::(69,19):_ZN6MAUtil6VectorIPN8NativeUI18DatePickerListenerEEC1ERKS4_;2A.;__base_dtor::(69,22)=#(69,10),(0,6),(69,15),(0,6);:_ZN6MAUtil6VectorIPN8NativeUI18DatePickerListenerEED2Ev;2A.;__comp_dtor::(69,22):_ZN6MAUtil6VectorIPN8NativeUI18DatePickerListenerEED1Ev;2A.;operator=::(69,23)=#(69,10),(69,24)=&(69,10),(69,15),(69,20),(0,6);:_ZN6MAUtil6VectorIPN8NativeUI18DatePickerListenerEEaSERKS4_;2A.;add::(69,25)=#(69,10),(0,6),(69,15),(69,26)=&(69,18),(0,6);:_ZN6MAUtil6VectorIPN8NativeUI18DatePickerListenerEE3addERKS3_;2A.(69,16):_ZN6MAUtil6VectorIPN8NativeUI18DatePickerListenerEE3addEPKS3_i;2A.;remove::(69,27)=#(69,10),(0,6),(69,15),(69,11),(0,6);:_ZN6MAUtil6VectorIPN8NativeUI18DatePickerListenerEE6removeEPS3_;2A.(69,28)=#(69,10),(0,6),(69,15),(0,3),(0,6);:_ZN6MAUtil6VectorIPN8NativeUI18DatePickerListenerEE6removeEi;2A.(69,29)=#(69,10),(0,6),(69,15),(0,3),(0,3),(0,6);:_ZN6MAUtil6VectorIPN8NativeUI18DatePickerListenerEE6removeEii;2A.;insert::(69,30)=#(69,10),(0,6),(69,15),(0,3),(69,12),(0,6);:_ZN6MAUtil6VectorIPN8NativeUI18DatePickerListenerEE6insertEiS3_;2A.;size::(69,31)=#(69,10),(0,3),(69,32)=*(69,21),(0,6);:_ZNK6MAUtil6VectorIPN8NativeUI18DatePickerListenerEE4sizeEv;2B.;resize::(69,28):_ZN6MAUtil6VectorIPN8NativeUI18DatePickerListenerEE6resizeEi;2A.;reserve::(69,28):_ZN6MAUtil6VectorIPN8NativeUI18DatePickerListenerEE7reserveEi;2A.;clear::(69,22):_ZN6MAUtil6VectorIPN8NativeUI18DatePickerListenerEE5clearEv;2A.;empty::(69,33)=#(69,10),(0,4),(69,32),(0,6);:_ZNK6MAUtil6VectorIPN8NativeUI18DatePickerListenerEE5emptyEv;2B.;capacity::(69,31):_ZNK6MAUtil6VectorIPN8NativeUI18DatePickerListenerEE8capacityEv;2B.;begin::(69,34)=#(69,10),(69,11),(69,15),(0,6);:_ZN6MAUtil6VectorIPN8NativeUI18DatePickerListenerEE5beginEv;2A.;end::(69,34):_ZN6MAUtil6VectorIPN8NativeUI18DatePickerListenerEE3endEv;2A.;begin::(69,35)=#(69,10),(69,17),(69,32),(0,6);:_ZNK6MAUtil6VectorIPN8NativeUI18DatePickerListenerEE5beginEv;2B.;end::(69,35):_ZNK6MAUtil6VectorIPN8NativeUI18DatePickerListenerEE3endEv;2B.;operator[]::(69,36)=#(69,10),(69,37)=&(69,12),(69,15),(0,3),(0,6);:_ZN6MAUtil6VectorIPN8NativeUI18DatePickerListenerEEixEi;2A.(69,38)=#(69,10),(69,26),(69,32),(0,3),(0,6);:_ZNK6MAUtil6VectorIPN8NativeUI18DatePickerListenerEEixEi;2B.;pointer::(69,35):_ZNK6MAUtil6VectorIPN8NativeUI18DatePickerListenerEE7pointerEv;2B.(69,34):_ZN6MAUtil6VectorIPN8NativeUI18DatePickerListenerEE7pointerEv;2A.;;",128,0,95,0
	.stabn	162,0,0,0
	.stabs	"/Applications/MoSync/include/NativeUI/DatePickerListener.h",130,0,0,0
	.stabn	162,0,0,0
	.stabs	"/Applications/MoSync/include/NativeUI/Dialog.h",130,0,0,0
	.stabs	"Vector<NativeUI::DialogListener*>:Tt(71,1)=s12mSize:/1(0,3),0,32;mCapacity:/1(0,3),32,32;mData:/1(71,2)=*(71,3)=*(71,4)=xsDialogListener:,64,32;__base_ctor::(71,5)=#(71,1),(0,6),(71,6)=*(71,1),(0,3),(0,6);:_ZN6MAUtil6VectorIPN8NativeUI14DialogListenerEEC2Ei;2A.;__comp_ctor::(71,5):_ZN6MAUtil6VectorIPN8NativeUI14DialogListenerEEC1Ei;2A.;__base_ctor::(71,7)=#(71,1),(0,6),(71,6),(71,8)=*(71,9)=k(71,3),(0,3),(0,6);:_ZN6MAUtil6VectorIPN8NativeUI14DialogListenerEEC2EPKS3_i;2A.;__comp_ctor::(71,7):_ZN6MAUtil6VectorIPN8NativeUI14DialogListenerEEC1EPKS3_i;2A.;__base_ctor::(71,10)=#(71,1),(0,6),(71,6),(71,11)=&(71,12)=k(71,1),(0,6);:_ZN6MAUtil6VectorIPN8NativeUI14DialogListenerEEC2ERKS4_;2A.;__comp_ctor::(71,10):_ZN6MAUtil6VectorIPN8NativeUI14DialogListenerEEC1ERKS4_;2A.;__base_dtor::(71,13)=#(71,1),(0,6),(71,6),(0,6);:_ZN6MAUtil6VectorIPN8NativeUI14DialogListenerEED2Ev;2A.;__comp_dtor::(71,13):_ZN6MAUtil6VectorIPN8NativeUI14DialogListenerEED1Ev;2A.;operator=::(71,14)=#(71,1),(71,15)=&(71,1),(71,6),(71,11),(0,6);:_ZN6MAUtil6VectorIPN8NativeUI14DialogListenerEEaSERKS4_;2A.;add::(71,16)=#(71,1),(0,6),(71,6),(71,17)=&(71,9),(0,6);:_ZN6MAUtil6VectorIPN8NativeUI14DialogListenerEE3addERKS3_;2A.(71,7):_ZN6MAUtil6VectorIPN8NativeUI14DialogListenerEE3addEPKS3_i;2A.;remove::(71,18)=#(71,1),(0,6),(71,6),(71,2),(0,6);:_ZN6MAUtil6VectorIPN8NativeUI14DialogListenerEE6removeEPS3_;2A.(71,19)=#(71,1),(0,6),(71,6),(0,3),(0,6);:_ZN6MAUtil6VectorIPN8NativeUI14DialogListenerEE6removeEi;2A.(71,20)=#(71,1),(0,6),(71,6),(0,3),(0,3),(0,6);:_ZN6MAUtil6VectorIPN8NativeUI14DialogListenerEE6removeEii;2A.;insert::(71,21)=#(71,1),(0,6),(71,6),(0,3),(71,3),(0,6);:_ZN6MAUtil6VectorIPN8NativeUI14DialogListenerEE6insertEiS3_;2A.;size::(71,22)=#(71,1),(0,3),(71,23)=*(71,12),(0,6);:_ZNK6MAUtil6VectorIPN8NativeUI14DialogListenerEE4sizeEv;2B.;resize::(71,19):_ZN6MAUtil6VectorIPN8NativeUI14DialogListenerEE6resizeEi;2A.;reserve::(71,19):_ZN6MAUtil6VectorIPN8NativeUI14DialogListenerEE7reserveEi;2A.;clear::(71,13):_ZN6MAUtil6VectorIPN8NativeUI14DialogListenerEE5clearEv;2A.;empty::(71,24)=#(71,1),(0,4),(71,23),(0,6);:_ZNK6MAUtil6VectorIPN8NativeUI14DialogListenerEE5emptyEv;2B.;capacity::(71,22):_ZNK6MAUtil6VectorIPN8NativeUI14DialogListenerEE8capacityEv;2B.;begin::(71,25)=#(71,1),(71,2),(71,6),(0,6);:_ZN6MAUtil6VectorIPN8NativeUI14DialogListenerEE5beginEv;2A.;end::(71,25):_ZN6MAUtil6VectorIPN8NativeUI14DialogListenerEE3endEv;2A.;begin::(71,26)=#(71,1),(71,8),(71,23),(0,6);:_ZNK6MAUtil6VectorIPN8NativeUI14DialogListenerEE5beginEv;2B.;end::(71,26):_ZNK6MAUtil6VectorIPN8NativeUI14DialogListenerEE3endEv;2B.;operator[]::(71,27)=#(71,1),(71,28)=&(71,3),(71,6),(0,3),(0,6);:_ZN6MAUtil6VectorIPN8NativeUI14DialogListenerEEixEi;2A.(71,29)=#(71,1),(71,17),(71,23),(0,3),(0,6);:_ZNK6MAUtil6VectorIPN8NativeUI14DialogListenerEEixEi;2B.;pointer::(71,26):_ZNK6MAUtil6VectorIPN8NativeUI14DialogListenerEE7pointerEv;2B.(71,25):_ZN6MAUtil6VectorIPN8NativeUI14DialogListenerEE7pointerEv;2A.;;",128,0,95,0
	.stabn	162,0,0,0
	.stabs	"/Applications/MoSync/include/NativeUI/DialogListener.h",130,0,0,0
	.stabn	162,0,0,0
	.stabs	"/Applications/MoSync/include/NativeUI/EditBox.h",130,0,0,0
	.stabs	"EditBoxMode:t(73,1)=eEDIT_BOX_MODE_TEXT:0,EDIT_BOX_MODE_PASSWORD:1,;",128,0,53,0
	.stabs	"EditBoxInputMode:t(73,2)=eEDIT_BOX_INPUT_MODE_ANY:0,EDIT_BOX_INPUT_MODE_EMAILADDR:1,EDIT_BOX_INPUT_MODE_NUMERIC:2,EDIT_BOX_INPUT_MODE_PHONENUMBER:3,EDIT_BOX_INPUT_MODE_URL:4,EDIT_BOX_INPUT_MODE_DECIMAL:5,EDIT_BOX_INPUT_MODE_SINGLE_LINE:6,;",128,0,63,0
	.stabs	"EditBoxInputFlag:t(73,3)=eEDIT_BOX_INPUT_FLAG_PASSWORD:0,EDIT_BOX_INPUT_FLAG_SENSITIVE:1,EDIT_BOX_INPUT_FLAG_INITIAL_CAPS_WORD:2,EDIT_BOX_INPUT_FLAG_INITIAL_CAPS_SENTENCE:3,EDIT_BOX_INPUT_GLAG_INITIAL_CAPS_ALL_CHARACTERS:4,;",128,0,99,0
	.stabs	"EditBoxAutocorrectionType:t(73,4)=eEDIT_BOX_AUTOCORRECTION_TYPE_DEFAULT:0,EDIT_BOX_AUTOCORRECTION_TYPE_ENABLE:1,EDIT_BOX_AUTOCORRECTION_TYPE_DISABLE:2,;",128,0,133,0
	.stabs	"EditBoxCategory:t(73,5)=eEDIT_BOX_SINGLE_LINE:0,EDIT_BOX_MULTI_LINE:1,;",128,0,157,0
	.stabs	"Vector<NativeUI::EditBoxListener*>:Tt(73,6)=s12mSize:/1(0,3),0,32;mCapacity:/1(0,3),32,32;mData:/1(73,7)=*(73,8)=*(73,9)=xsEditBoxListener:,64,32;__base_ctor::(73,10)=#(73,6),(0,6),(73,11)=*(73,6),(0,3),(0,6);:_ZN6MAUtil6VectorIPN8NativeUI15EditBoxListenerEEC2Ei;2A.;__comp_ctor::(73,10):_ZN6MAUtil6VectorIPN8NativeUI15EditBoxListenerEEC1Ei;2A.;__base_ctor::(73,12)=#(73,6),(0,6),(73,11),(73,13)=*(73,14)=k(73,8),(0,3),(0,6);:_ZN6MAUtil6VectorIPN8NativeUI15EditBoxListenerEEC2EPKS3_i;2A.;__comp_ctor::(73,12):_ZN6MAUtil6VectorIPN8NativeUI15EditBoxListenerEEC1EPKS3_i;2A.;__base_ctor::(73,15)=#(73,6),(0,6),(73,11),(73,16)=&(73,17)=k(73,6),(0,6);:_ZN6MAUtil6VectorIPN8NativeUI15EditBoxListenerEEC2ERKS4_;2A.;__comp_ctor::(73,15):_ZN6MAUtil6VectorIPN8NativeUI15EditBoxListenerEEC1ERKS4_;2A.;__base_dtor::(73,18)=#(73,6),(0,6),(73,11),(0,6);:_ZN6MAUtil6VectorIPN8NativeUI15EditBoxListenerEED2Ev;2A.;__comp_dtor::(73,18):_ZN6MAUtil6VectorIPN8NativeUI15EditBoxListenerEED1Ev;2A.;operator=::(73,19)=#(73,6),(73,20)=&(73,6),(73,11),(73,16),(0,6);:_ZN6MAUtil6VectorIPN8NativeUI15EditBoxListenerEEaSERKS4_;2A.;add::(73,21)=#(73,6),(0,6),(73,11),(73,22)=&(73,14),(0,6);:_ZN6MAUtil6VectorIPN8NativeUI15EditBoxListenerEE3addERKS3_;2A.(73,12):_ZN6MAUtil6VectorIPN8NativeUI15EditBoxListenerEE3addEPKS3_i;2A.;remove::(73,23)=#(73,6),(0,6),(73,11),(73,7),(0,6);:_ZN6MAUtil6VectorIPN8NativeUI15EditBoxListenerEE6removeEPS3_;2A.(73,24)=#(73,6),(0,6),(73,11),(0,3),(0,6);:_ZN6MAUtil6VectorIPN8NativeUI15EditBoxListenerEE6removeEi;2A.(73,25)=#(73,6),(0,6),(73,11),(0,3),(0,3),(0,6);:_ZN6MAUtil6VectorIPN8NativeUI15EditBoxListenerEE6removeEii;2A.;insert::(73,26)=#(73,6),(0,6),(73,11),(0,3),(73,8),(0,6);:_ZN6MAUtil6VectorIPN8NativeUI15EditBoxListenerEE6insertEiS3_;2A.;size::(73,27)=#(73,6),(0,3),(73,28)=*(73,17),(0,6);:_ZNK6MAUtil6VectorIPN8NativeUI15EditBoxListenerEE4sizeEv;2B.;resize::(73,24):_ZN6MAUtil6VectorIPN8NativeUI15EditBoxListenerEE6resizeEi;2A.;reserve::(73,24):_ZN6MAUtil6VectorIPN8NativeUI15EditBoxListenerEE7reserveEi;2A.;clear::(73,18):_ZN6MAUtil6VectorIPN8NativeUI15EditBoxListenerEE5clearEv;2A.;empty::(73,29)=#(73,6),(0,4),(73,28),(0,6);:_ZNK6MAUtil6VectorIPN8NativeUI15EditBoxListenerEE5emptyEv;2B.;capacity::(73,27):_ZNK6MAUtil6VectorIPN8NativeUI15EditBoxListenerEE8capacityEv;2B.;begin::(73,30)=#(73,6),(73,7),(73,11),(0,6);:_ZN6MAUtil6VectorIPN8NativeUI15EditBoxListenerEE5beginEv;2A.;end::(73,30):_ZN6MAUtil6VectorIPN8NativeUI15EditBoxListenerEE3endEv;2A.;begin::(73,31)=#(73,6),(73,13),(73,28),(0,6);:_ZNK6MAUtil6VectorIPN8NativeUI15EditBoxListenerEE5beginEv;2B.;end::(73,31):_ZNK6MAUtil6VectorIPN8NativeUI15EditBoxListenerEE3endEv;2B.;operator[]::(73,32)=#(73,6),(73,33)=&(73,8),(73,11),(0,3),(0,6);:_ZN6MAUtil6VectorIPN8NativeUI15EditBoxListenerEEixEi;2A.(73,34)=#(73,6),(73,22),(73,28),(0,3),(0,6);:_ZNK6MAUtil6VectorIPN8NativeUI15EditBoxListenerEEixEi;2B.;pointer::(73,31):_ZNK6MAUtil6VectorIPN8NativeUI15EditBoxListenerEE7pointerEv;2B.(73,30):_ZN6MAUtil6VectorIPN8NativeUI15EditBoxListenerEE7pointerEv;2A.;;",128,0,95,0
	.stabn	162,0,0,0
	.stabs	"/Applications/MoSync/include/NativeUI/EditBoxListener.h",130,0,0,0
	.stabn	162,0,0,0
	.stabs	"/Applications/MoSync/include/NativeUI/GLView.h",130,0,0,0
	.stabs	"Vector<NativeUI::GLViewListener*>:Tt(75,1)=s12mSize:/1(0,3),0,32;mCapacity:/1(0,3),32,32;mData:/1(75,2)=*(75,3)=*(75,4)=xsGLViewListener:,64,32;__base_ctor::(75,5)=#(75,1),(0,6),(75,6)=*(75,1),(0,3),(0,6);:_ZN6MAUtil6VectorIPN8NativeUI14GLViewListenerEEC2Ei;2A.;__comp_ctor::(75,5):_ZN6MAUtil6VectorIPN8NativeUI14GLViewListenerEEC1Ei;2A.;__base_ctor::(75,7)=#(75,1),(0,6),(75,6),(75,8)=*(75,9)=k(75,3),(0,3),(0,6);:_ZN6MAUtil6VectorIPN8NativeUI14GLViewListenerEEC2EPKS3_i;2A.;__comp_ctor::(75,7):_ZN6MAUtil6VectorIPN8NativeUI14GLViewListenerEEC1EPKS3_i;2A.;__base_ctor::(75,10)=#(75,1),(0,6),(75,6),(75,11)=&(75,12)=k(75,1),(0,6);:_ZN6MAUtil6VectorIPN8NativeUI14GLViewListenerEEC2ERKS4_;2A.;__comp_ctor::(75,10):_ZN6MAUtil6VectorIPN8NativeUI14GLViewListenerEEC1ERKS4_;2A.;__base_dtor::(75,13)=#(75,1),(0,6),(75,6),(0,6);:_ZN6MAUtil6VectorIPN8NativeUI14GLViewListenerEED2Ev;2A.;__comp_dtor::(75,13):_ZN6MAUtil6VectorIPN8NativeUI14GLViewListenerEED1Ev;2A.;operator=::(75,14)=#(75,1),(75,15)=&(75,1),(75,6),(75,11),(0,6);:_ZN6MAUtil6VectorIPN8NativeUI14GLViewListenerEEaSERKS4_;2A.;add::(75,16)=#(75,1),(0,6),(75,6),(75,17)=&(75,9),(0,6);:_ZN6MAUtil6VectorIPN8NativeUI14GLViewListenerEE3addERKS3_;2A.(75,7):_ZN6MAUtil6VectorIPN8NativeUI14GLViewListenerEE3addEPKS3_i;2A.;remove::(75,18)=#(75,1),(0,6),(75,6),(75,2),(0,6);:_ZN6MAUtil6VectorIPN8NativeUI14GLViewListenerEE6removeEPS3_;2A.(75,19)=#(75,1),(0,6),(75,6),(0,3),(0,6);:_ZN6MAUtil6VectorIPN8NativeUI14GLViewListenerEE6removeEi;2A.(75,20)=#(75,1),(0,6),(75,6),(0,3),(0,3),(0,6);:_ZN6MAUtil6VectorIPN8NativeUI14GLViewListenerEE6removeEii;2A.;insert::(75,21)=#(75,1),(0,6),(75,6),(0,3),(75,3),(0,6);:_ZN6MAUtil6VectorIPN8NativeUI14GLViewListenerEE6insertEiS3_;2A.;size::(75,22)=#(75,1),(0,3),(75,23)=*(75,12),(0,6);:_ZNK6MAUtil6VectorIPN8NativeUI14GLViewListenerEE4sizeEv;2B.;resize::(75,19):_ZN6MAUtil6VectorIPN8NativeUI14GLViewListenerEE6resizeEi;2A.;reserve::(75,19):_ZN6MAUtil6VectorIPN8NativeUI14GLViewListenerEE7reserveEi;2A.;clear::(75,13):_ZN6MAUtil6VectorIPN8NativeUI14GLViewListenerEE5clearEv;2A.;empty::(75,24)=#(75,1),(0,4),(75,23),(0,6);:_ZNK6MAUtil6VectorIPN8NativeUI14GLViewListenerEE5emptyEv;2B.;capacity::(75,22):_ZNK6MAUtil6VectorIPN8NativeUI14GLViewListenerEE8capacityEv;2B.;begin::(75,25)=#(75,1),(75,2),(75,6),(0,6);:_ZN6MAUtil6VectorIPN8NativeUI14GLViewListenerEE5beginEv;2A.;end::(75,25):_ZN6MAUtil6VectorIPN8NativeUI14GLViewListenerEE3endEv;2A.;begin::(75,26)=#(75,1),(75,8),(75,23),(0,6);:_ZNK6MAUtil6VectorIPN8NativeUI14GLViewListenerEE5beginEv;2B.;end::(75,26):_ZNK6MAUtil6VectorIPN8NativeUI14GLViewListenerEE3endEv;2B.;operator[]::(75,27)=#(75,1),(75,28)=&(75,3),(75,6),(0,3),(0,6);:_ZN6MAUtil6VectorIPN8NativeUI14GLViewListenerEEixEi;2A.(75,29)=#(75,1),(75,17),(75,23),(0,3),(0,6);:_ZNK6MAUtil6VectorIPN8NativeUI14GLViewListenerEEixEi;2B.;pointer::(75,26):_ZNK6MAUtil6VectorIPN8NativeUI14GLViewListenerEE7pointerEv;2B.(75,25):_ZN6MAUtil6VectorIPN8NativeUI14GLViewListenerEE7pointerEv;2A.;;",128,0,95,0
	.stabn	162,0,0,0
	.stabs	"/Applications/MoSync/include/NativeUI/GLViewListener.h",130,0,0,0
	.stabn	162,0,0,0
	.stabs	"/Applications/MoSync/include/NativeUI/HorizontalLayout.h",130,0,0,0
	.stabs	"/Applications/MoSync/include/NativeUI/Layout.h",130,0,0,0
	.stabs	"/Applications/MoSync/include/Ads/Banner.h",130,0,0,0
	.stabs	"BannerSize:t(79,1)=eBANNER_SIZE_DEFAULT:0,BANNER_SIZE_RECT:1,BANNER_SIZE_IAB:2,BANNER_SIZE_LEADERBOARD:3,BANNER_SIZE_WP7_XLARGE:4,BANNER_SIZE_WP7_XXLARGE:5,;",128,0,62,0
	.stabs	"Vector<Ads::BannerListener*>:Tt(79,2)=s12mSize:/1(0,3),0,32;mCapacity:/1(0,3),32,32;mData:/1(79,3)=*(79,4)=*(79,5)=xsBannerListener:,64,32;__base_ctor::(79,6)=#(79,2),(0,6),(79,7)=*(79,2),(0,3),(0,6);:_ZN6MAUtil6VectorIPN3Ads14BannerListenerEEC2Ei;2A.;__comp_ctor::(79,6):_ZN6MAUtil6VectorIPN3Ads14BannerListenerEEC1Ei;2A.;__base_ctor::(79,8)=#(79,2),(0,6),(79,7),(79,9)=*(79,10)=k(79,4),(0,3),(0,6);:_ZN6MAUtil6VectorIPN3Ads14BannerListenerEEC2EPKS3_i;2A.;__comp_ctor::(79,8):_ZN6MAUtil6VectorIPN3Ads14BannerListenerEEC1EPKS3_i;2A.;__base_ctor::(79,11)=#(79,2),(0,6),(79,7),(79,12)=&(79,13)=k(79,2),(0,6);:_ZN6MAUtil6VectorIPN3Ads14BannerListenerEEC2ERKS4_;2A.;__comp_ctor::(79,11):_ZN6MAUtil6VectorIPN3Ads14BannerListenerEEC1ERKS4_;2A.;__base_dtor::(79,14)=#(79,2),(0,6),(79,7),(0,6);:_ZN6MAUtil6VectorIPN3Ads14BannerListenerEED2Ev;2A.;__comp_dtor::(79,14):_ZN6MAUtil6VectorIPN3Ads14BannerListenerEED1Ev;2A.;operator=::(79,15)=#(79,2),(79,16)=&(79,2),(79,7),(79,12),(0,6);:_ZN6MAUtil6VectorIPN3Ads14BannerListenerEEaSERKS4_;2A.;add::(79,17)=#(79,2),(0,6),(79,7),(79,18)=&(79,10),(0,6);:_ZN6MAUtil6VectorIPN3Ads14BannerListenerEE3addERKS3_;2A.(79,8):_ZN6MAUtil6VectorIPN3Ads14BannerListenerEE3addEPKS3_i;2A.;remove::(79,19)=#(79,2),(0,6),(79,7),(79,3),(0,6);:_ZN6MAUtil6VectorIPN3Ads14BannerListenerEE6removeEPS3_;2A.(79,20)=#(79,2),(0,6),(79,7),(0,3),(0,6);:_ZN6MAUtil6VectorIPN3Ads14BannerListenerEE6removeEi;2A.(79,21)=#(79,2),(0,6),(79,7),(0,3),(0,3),(0,6);:_ZN6MAUtil6VectorIPN3Ads14BannerListenerEE6removeEii;2A.;insert::(79,22)=#(79,2),(0,6),(79,7),(0,3),(79,4),(0,6);:_ZN6MAUtil6VectorIPN3Ads14BannerListenerEE6insertEiS3_;2A.;size::(79,23)=#(79,2),(0,3),(79,24)=*(79,13),(0,6);:_ZNK6MAUtil6VectorIPN3Ads14BannerListenerEE4sizeEv;2B.;resize::(79,20):_ZN6MAUtil6VectorIPN3Ads14BannerListenerEE6resizeEi;2A.;reserve::(79,20):_ZN6MAUtil6VectorIPN3Ads14BannerListenerEE7reserveEi;2A.;clear::(79,14):_ZN6MAUtil6VectorIPN3Ads14BannerListenerEE5clearEv;2A.;empty::(79,25)=#(79,2),(0,4),(79,24),(0,6);:_ZNK6MAUtil6VectorIPN3Ads14BannerListenerEE5emptyEv;2B.;capacity::(79,23):_ZNK6MAUtil6VectorIPN3Ads14BannerListenerEE8capacityEv;2B.;begin::(79,26)=#(79,2),(79,3),(79,7),(0,6);:_ZN6MAUtil6VectorIPN3Ads14BannerListenerEE5beginEv;2A.;end::(79,26):_ZN6MAUtil6VectorIPN3Ads14BannerListenerEE3endEv;2A.;begin::(79,27)=#(79,2),(79,9),(79,24),(0,6);:_ZNK6MAUtil6VectorIPN3Ads14BannerListenerEE5beginEv;2B.;end::(79,27):_ZNK6MAUtil6VectorIPN3Ads14BannerListenerEE3endEv;2B.;operator[]::(79,28)=#(79,2),(79,29)=&(79,4),(79,7),(0,3),(0,6);:_ZN6MAUtil6VectorIPN3Ads14BannerListenerEEixEi;2A.(79,30)=#(79,2),(79,18),(79,24),(0,3),(0,6);:_ZNK6MAUtil6VectorIPN3Ads14BannerListenerEEixEi;2B.;pointer::(79,27):_ZNK6MAUtil6VectorIPN3Ads14BannerListenerEE7pointerEv;2B.(79,26):_ZN6MAUtil6VectorIPN3Ads14BannerListenerEE7pointerEv;2A.;;",128,0,95,0
	.stabn	162,0,0,0
	.stabs	"Vector<Ads::Banner*>:Tt(78,1)=s12mSize:/1(0,3),0,32;mCapacity:/1(0,3),32,32;mData:/1(78,2)=*(78,3)=*(78,4)=xsBanner:,64,32;__base_ctor::(78,5)=#(78,1),(0,6),(78,6)=*(78,1),(0,3),(0,6);:_ZN6MAUtil6VectorIPN3Ads6BannerEEC2Ei;2A.;__comp_ctor::(78,5):_ZN6MAUtil6VectorIPN3Ads6BannerEEC1Ei;2A.;__base_ctor::(78,7)=#(78,1),(0,6),(78,6),(78,8)=*(78,9)=k(78,3),(0,3),(0,6);:_ZN6MAUtil6VectorIPN3Ads6BannerEEC2EPKS3_i;2A.;__comp_ctor::(78,7):_ZN6MAUtil6VectorIPN3Ads6BannerEEC1EPKS3_i;2A.;__base_ctor::(78,10)=#(78,1),(0,6),(78,6),(78,11)=&(78,12)=k(78,1),(0,6);:_ZN6MAUtil6VectorIPN3Ads6BannerEEC2ERKS4_;2A.;__comp_ctor::(78,10):_ZN6MAUtil6VectorIPN3Ads6BannerEEC1ERKS4_;2A.;__base_dtor::(78,13)=#(78,1),(0,6),(78,6),(0,6);:_ZN6MAUtil6VectorIPN3Ads6BannerEED2Ev;2A.;__comp_dtor::(78,13):_ZN6MAUtil6VectorIPN3Ads6BannerEED1Ev;2A.;operator=::(78,14)=#(78,1),(78,15)=&(78,1),(78,6),(78,11),(0,6);:_ZN6MAUtil6VectorIPN3Ads6BannerEEaSERKS4_;2A.;add::(78,16)=#(78,1),(0,6),(78,6),(78,17)=&(78,9),(0,6);:_ZN6MAUtil6VectorIPN3Ads6BannerEE3addERKS3_;2A.(78,7):_ZN6MAUtil6VectorIPN3Ads6BannerEE3addEPKS3_i;2A.;remove::(78,18)=#(78,1),(0,6),(78,6),(78,2),(0,6);:_ZN6MAUtil6VectorIPN3Ads6BannerEE6removeEPS3_;2A.(78,19)=#(78,1),(0,6),(78,6),(0,3),(0,6);:_ZN6MAUtil6VectorIPN3Ads6BannerEE6removeEi;2A.(78,20)=#(78,1),(0,6),(78,6),(0,3),(0,3),(0,6);:_ZN6MAUtil6VectorIPN3Ads6BannerEE6removeEii;2A.;insert::(78,21)=#(78,1),(0,6),(78,6),(0,3),(78,3),(0,6);:_ZN6MAUtil6VectorIPN3Ads6BannerEE6insertEiS3_;2A.;size::(78,22)=#(78,1),(0,3),(78,23)=*(78,12),(0,6);:_ZNK6MAUtil6VectorIPN3Ads6BannerEE4sizeEv;2B.;resize::(78,19):_ZN6MAUtil6VectorIPN3Ads6BannerEE6resizeEi;2A.;reserve::(78,19):_ZN6MAUtil6VectorIPN3Ads6BannerEE7reserveEi;2A.;clear::(78,13):_ZN6MAUtil6VectorIPN3Ads6BannerEE5clearEv;2A.;empty::(78,24)=#(78,1),(0,4),(78,23),(0,6);:_ZNK6MAUtil6VectorIPN3Ads6BannerEE5emptyEv;2B.;capacity::(78,22):_ZNK6MAUtil6VectorIPN3Ads6BannerEE8capacityEv;2B.;begin::(78,25)=#(78,1),(78,2),(78,6),(0,6);:_ZN6MAUtil6VectorIPN3Ads6BannerEE5beginEv;2A.;end::(78,25):_ZN6MAUtil6VectorIPN3Ads6BannerEE3endEv;2A.;begin::(78,26)=#(78,1),(78,8),(78,23),(0,6);:_ZNK6MAUtil6VectorIPN3Ads6BannerEE5beginEv;2B.;end::(78,26):_ZNK6MAUtil6VectorIPN3Ads6BannerEE3endEv;2B.;operator[]::(78,27)=#(78,1),(78,28)=&(78,3),(78,6),(0,3),(0,6);:_ZN6MAUtil6VectorIPN3Ads6BannerEEixEi;2A.(78,29)=#(78,1),(78,17),(78,23),(0,3),(0,6);:_ZNK6MAUtil6VectorIPN3Ads6BannerEEixEi;2B.;pointer::(78,26):_ZNK6MAUtil6VectorIPN3Ads6BannerEE7pointerEv;2B.(78,25):_ZN6MAUtil6VectorIPN3Ads6BannerEE7pointerEv;2A.;;",128,0,95,0
	.stabn	162,0,0,0
	.stabn	162,0,0,0
	.stabs	"/Applications/MoSync/include/NativeUI/Image.h",130,0,0,0
	.stabs	"ImageScaleMode:t(80,1)=eIMAGE_SCALE_NONE:0,IMAGE_SCALE_XY:1,IMAGE_SCALE_PRESERVE_ASPECT:2,;",128,0,47,0
	.stabn	162,0,0,0
	.stabs	"/Applications/MoSync/include/NativeUI/ImageButton.h",130,0,0,0
	.stabn	162,0,0,0
	.stabs	"/Applications/MoSync/include/NativeUI/Label.h",130,0,0,0
	.stabn	162,0,0,0
	.stabs	"/Applications/MoSync/include/NativeUI/ListView.h",130,0,0,0
	.stabs	"ListViewType:t(83,1)=eLIST_VIEW_TYPE_DEFAULT:0,LIST_VIEW_TYPE_ALPHABETICAL:1,LIST_VIEW_TYPE_SEGMENTED:2,;",128,0,49,0
	.stabs	"ListViewMode:t(83,2)=eLIST_VIEW_MODE_DISPLAY:0,LIST_VIEW_MODE_EDIT:1,;",128,0,71,0
	.stabs	"ListViewStyle:t(83,3)=eLIST_VIEW_STYLE_SUBTITLE:0,LIST_VIEW_STYLE_NO_SUBTITLE:1,;",128,0,88,0
	.stabs	"Vector<NativeUI::ListViewListener*>:Tt(83,4)=s12mSize:/1(0,3),0,32;mCapacity:/1(0,3),32,32;mData:/1(83,5)=*(83,6)=*(83,7)=xsListViewListener:,64,32;__base_ctor::(83,8)=#(83,4),(0,6),(83,9)=*(83,4),(0,3),(0,6);:_ZN6MAUtil6VectorIPN8NativeUI16ListViewListenerEEC2Ei;2A.;__comp_ctor::(83,8):_ZN6MAUtil6VectorIPN8NativeUI16ListViewListenerEEC1Ei;2A.;__base_ctor::(83,10)=#(83,4),(0,6),(83,9),(83,11)=*(83,12)=k(83,6),(0,3),(0,6);:_ZN6MAUtil6VectorIPN8NativeUI16ListViewListenerEEC2EPKS3_i;2A.;__comp_ctor::(83,10):_ZN6MAUtil6VectorIPN8NativeUI16ListViewListenerEEC1EPKS3_i;2A.;__base_ctor::(83,13)=#(83,4),(0,6),(83,9),(83,14)=&(83,15)=k(83,4),(0,6);:_ZN6MAUtil6VectorIPN8NativeUI16ListViewListenerEEC2ERKS4_;2A.;__comp_ctor::(83,13):_ZN6MAUtil6VectorIPN8NativeUI16ListViewListenerEEC1ERKS4_;2A.;__base_dtor::(83,16)=#(83,4),(0,6),(83,9),(0,6);:_ZN6MAUtil6VectorIPN8NativeUI16ListViewListenerEED2Ev;2A.;__comp_dtor::(83,16):_ZN6MAUtil6VectorIPN8NativeUI16ListViewListenerEED1Ev;2A.;operator=::(83,17)=#(83,4),(83,18)=&(83,4),(83,9),(83,14),(0,6);:_ZN6MAUtil6VectorIPN8NativeUI16ListViewListenerEEaSERKS4_;2A.;add::(83,19)=#(83,4),(0,6),(83,9),(83,20)=&(83,12),(0,6);:_ZN6MAUtil6VectorIPN8NativeUI16ListViewListenerEE3addERKS3_;2A.(83,10):_ZN6MAUtil6VectorIPN8NativeUI16ListViewListenerEE3addEPKS3_i;2A.;remove::(83,21)=#(83,4),(0,6),(83,9),(83,5),(0,6);:_ZN6MAUtil6VectorIPN8NativeUI16ListViewListenerEE6removeEPS3_;2A.(83,22)=#(83,4),(0,6),(83,9),(0,3),(0,6);:_ZN6MAUtil6VectorIPN8NativeUI16ListViewListenerEE6removeEi;2A.(83,23)=#(83,4),(0,6),(83,9),(0,3),(0,3),(0,6);:_ZN6MAUtil6VectorIPN8NativeUI16ListViewListenerEE6removeEii;2A.;insert::(83,24)=#(83,4),(0,6),(83,9),(0,3),(83,6),(0,6);:_ZN6MAUtil6VectorIPN8NativeUI16ListViewListenerEE6insertEiS3_;2A.;size::(83,25)=#(83,4),(0,3),(83,26)=*(83,15),(0,6);:_ZNK6MAUtil6VectorIPN8NativeUI16ListViewListenerEE4sizeEv;2B.;resize::(83,22):_ZN6MAUtil6VectorIPN8NativeUI16ListViewListenerEE6resizeEi;2A.;reserve::(83,22):_ZN6MAUtil6VectorIPN8NativeUI16ListViewListenerEE7reserveEi;2A.;clear::(83,16):_ZN6MAUtil6VectorIPN8NativeUI16ListViewListenerEE5clearEv;2A.;empty::(83,27)=#(83,4),(0,4),(83,26),(0,6);:_ZNK6MAUtil6VectorIPN8NativeUI16ListViewListenerEE5emptyEv;2B.;capacity::(83,25):_ZNK6MAUtil6VectorIPN8NativeUI16ListViewListenerEE8capacityEv;2B.;begin::(83,28)=#(83,4),(83,5),(83,9),(0,6);:_ZN6MAUtil6VectorIPN8NativeUI16ListViewListenerEE5beginEv;2A.;end::(83,28):_ZN6MAUtil6VectorIPN8NativeUI16ListViewListenerEE3endEv;2A.;begin::(83,29)=#(83,4),(83,11),(83,26),(0,6);:_ZNK6MAUtil6VectorIPN8NativeUI16ListViewListenerEE5beginEv;2B.;end::(83,29):_ZNK6MAUtil6VectorIPN8NativeUI16ListViewListenerEE3endEv;2B.;operator[]::(83,30)=#(83,4),(83,31)=&(83,6),(83,9),(0,3),(0,6);:_ZN6MAUtil6VectorIPN8NativeUI16ListViewListenerEEixEi;2A.(83,32)=#(83,4),(83,20),(83,26),(0,3),(0,6);:_ZNK6MAUtil6VectorIPN8NativeUI16ListViewListenerEEixEi;2B.;pointer::(83,29):_ZNK6MAUtil6VectorIPN8NativeUI16ListViewListenerEE7pointerEv;2B.(83,28):_ZN6MAUtil6VectorIPN8NativeUI16ListViewListenerEE7pointerEv;2A.;;",128,0,95,0
	.stabn	162,0,0,0
	.stabs	"/Applications/MoSync/include/NativeUI/ListViewItem.h",130,0,0,0
	.stabs	"ListViewItemAccessory:t(84,1)=eLIST_VIEW_ITEM_ACCESSORY_NONE:0,LIST_VIEW_ITEM_ACCESSORY_DISCLOSURE:1,LIST_VIEW_ITEM_ACCESSORY_DETAIL:2,LIST_VIEW_ITEM_ACCESSORY_CHECKMARK:3,;",128,0,49,0
	.stabs	"ListViewItemEditStyle:t(84,2)=eLIST_VIEW_ITEM_EDIT_STYLE_NONE:0,LIST_VIEW_ITEM_EDIT_STYLE_DELETE:1,LIST_VIEW_ITEM_EDIT_STYLE_INSERT:2,;",128,0,57,0
	.stabs	"ListViewItemSelectionStyle:t(84,3)=eLIST_VIEW_ITEM_SELECTION_STYLE_NONE:0,LIST_VIEW_ITEM_SELECTION_STYLE_BLUE:1,LIST_VIEW_ITEM_SELECTION_STYLE_GRAY:2,;",128,0,79,0
	.stabn	162,0,0,0
	.stabs	"/Applications/MoSync/include/NativeUI/ListViewSection.h",130,0,0,0
	.stabs	"ListViewSectionType:t(85,1)=eLIST_VIEW_SECTION_TYPE_ALPHABETICAL:0,LIST_VIEW_SECTION_TYPE_SEGMENTED:1,;",128,0,50,0
	.stabn	162,0,0,0
	.stabs	"/Applications/MoSync/include/NativeUI/ListViewListener.h",130,0,0,0
	.stabn	162,0,0,0
	.stabs	"/Applications/MoSync/include/NativeUI/Map.h",130,0,0,0
	.stabs	"/Applications/MoSync/include/NativeUI/MapLocation.h",130,0,0,0
	.stabs	"/Applications/MoSync/include/NativeUI/Location.h",130,0,0,0
	.stabs	"Location:Tt(89,1)=s16mLatitude:/1(0,8),0,64;mLongitude:/1(0,8),64,64;__base_ctor::(89,2)=#(89,1),(0,6),(89,3)=*(89,1),(0,6);:_ZN8NativeUI8LocationC2Ev;2A.;__comp_ctor::(89,2):_ZN8NativeUI8LocationC1Ev;2A.;__base_ctor::(89,4)=#(89,1),(0,6),(89,3),(0,8),(0,8),(0,6);:_ZN8NativeUI8LocationC2Edd;2A.;__comp_ctor::(89,4):_ZN8NativeUI8LocationC1Edd;2A.;__base_dtor::(89,2):_ZN8NativeUI8LocationD2Ev;2A.;__comp_dtor::(89,2):_ZN8NativeUI8LocationD1Ev;2A.;setLatitude::(89,5)=#(89,1),(0,6),(89,3),(0,8),(0,6);:_ZN8NativeUI8Location11setLatitudeEd;2A.;getLatitude::(89,6)=#(89,1),(0,8),(89,7)=*(89,8)=k(89,1),(0,6);:_ZNK8NativeUI8Location11getLatitudeEv;2B.;setLongitude::(89,5):_ZN8NativeUI8Location12setLongitudeEd;2A.;getLongitude::(89,6):_ZNK8NativeUI8Location12getLongitudeEv;2B.;operator=::(89,9)=#(89,1),(89,10)=&(89,1),(89,3),(89,11)=&(89,8),(0,6);:_ZN8NativeUI8LocationaSERKS0_;2A.;__base_ctor::(89,12)=#(89,1),(0,6),(89,3),(89,11),(0,6);:_ZN8NativeUI8LocationC2ERKS0_;2A.;__comp_ctor::(89,12):_ZN8NativeUI8LocationC1ERKS0_;2A.;;",128,0,41,0
	.stabn	162,0,0,0
	.stabs	"MapLocation:Tt(88,1)=s20!1,020,(89,1);mZoomLevel:/0(0,3),128,32;__base_ctor::(88,2)=#(88,1),(0,6),(88,3)=*(88,1),(0,6);:_ZN8NativeUI11MapLocationC2Ev;2A.;__comp_ctor::(88,2):_ZN8NativeUI11MapLocationC1Ev;2A.;__base_ctor::(88,4)=#(88,1),(0,6),(88,3),(0,8),(0,8),(0,6);:_ZN8NativeUI11MapLocationC2Edd;2A.;__comp_ctor::(88,4):_ZN8NativeUI11MapLocationC1Edd;2A.;__base_ctor::(88,5)=#(88,1),(0,6),(88,3),(0,8),(0,8),(0,3),(0,6);:_ZN8NativeUI11MapLocationC2Eddi;2A.;__comp_ctor::(88,5):_ZN8NativeUI11MapLocationC1Eddi;2A.;__base_dtor::(88,2):_ZN8NativeUI11MapLocationD2Ev;2A.;__comp_dtor::(88,2):_ZN8NativeUI11MapLocationD1Ev;2A.;setZoomLevel::(88,6)=#(88,1),(0,6),(88,3),(0,3),(0,6);:_ZN8NativeUI11MapLocation12setZoomLevelEi;2A.;getZoomLevel::(88,7)=#(88,1),(0,3),(88,8)=*(88,9)=k(88,1),(0,6);:_ZNK8NativeUI11MapLocation12getZoomLevelEv;2B.;setLocation::(88,10)=#(88,1),(0,6),(88,3),(89,3),(0,6);:_ZN8NativeUI11MapLocation11setLocationEPNS_8LocationE;2A.;operator=::(88,11)=#(88,1),(88,12)=&(88,1),(88,3),(88,13)=&(88,9),(0,6);:_ZN8NativeUI11MapLocationaSERKS0_;2A.;__base_ctor::(88,14)=#(88,1),(0,6),(88,3),(88,13),(0,6);:_ZN8NativeUI11MapLocationC2ERKS0_;2A.;__comp_ctor::(88,14):_ZN8NativeUI11MapLocationC1ERKS0_;2A.;;",128,0,43,0
	.stabn	162,0,0,0
	.stabs	"/Applications/MoSync/include/NativeUI/MapPin.h",130,0,0,0
	.stabs	"/Applications/MoSync/include/NativeUI/MapPinListener.h",130,0,0,0
	.stabn	162,0,0,0
	.stabs	"Vector<NativeUI::MapPinListener*>:Tt(90,1)=s12mSize:/1(0,3),0,32;mCapacity:/1(0,3),32,32;mData:/1(90,2)=*(90,3)=*(90,4)=xsMapPinListener:,64,32;__base_ctor::(90,5)=#(90,1),(0,6),(90,6)=*(90,1),(0,3),(0,6);:_ZN6MAUtil6VectorIPN8NativeUI14MapPinListenerEEC2Ei;2A.;__comp_ctor::(90,5):_ZN6MAUtil6VectorIPN8NativeUI14MapPinListenerEEC1Ei;2A.;__base_ctor::(90,7)=#(90,1),(0,6),(90,6),(90,8)=*(90,9)=k(90,3),(0,3),(0,6);:_ZN6MAUtil6VectorIPN8NativeUI14MapPinListenerEEC2EPKS3_i;2A.;__comp_ctor::(90,7):_ZN6MAUtil6VectorIPN8NativeUI14MapPinListenerEEC1EPKS3_i;2A.;__base_ctor::(90,10)=#(90,1),(0,6),(90,6),(90,11)=&(90,12)=k(90,1),(0,6);:_ZN6MAUtil6VectorIPN8NativeUI14MapPinListenerEEC2ERKS4_;2A.;__comp_ctor::(90,10):_ZN6MAUtil6VectorIPN8NativeUI14MapPinListenerEEC1ERKS4_;2A.;__base_dtor::(90,13)=#(90,1),(0,6),(90,6),(0,6);:_ZN6MAUtil6VectorIPN8NativeUI14MapPinListenerEED2Ev;2A.;__comp_dtor::(90,13):_ZN6MAUtil6VectorIPN8NativeUI14MapPinListenerEED1Ev;2A.;operator=::(90,14)=#(90,1),(90,15)=&(90,1),(90,6),(90,11),(0,6);:_ZN6MAUtil6VectorIPN8NativeUI14MapPinListenerEEaSERKS4_;2A.;add::(90,16)=#(90,1),(0,6),(90,6),(90,17)=&(90,9),(0,6);:_ZN6MAUtil6VectorIPN8NativeUI14MapPinListenerEE3addERKS3_;2A.(90,7):_ZN6MAUtil6VectorIPN8NativeUI14MapPinListenerEE3addEPKS3_i;2A.;remove::(90,18)=#(90,1),(0,6),(90,6),(90,2),(0,6);:_ZN6MAUtil6VectorIPN8NativeUI14MapPinListenerEE6removeEPS3_;2A.(90,19)=#(90,1),(0,6),(90,6),(0,3),(0,6);:_ZN6MAUtil6VectorIPN8NativeUI14MapPinListenerEE6removeEi;2A.(90,20)=#(90,1),(0,6),(90,6),(0,3),(0,3),(0,6);:_ZN6MAUtil6VectorIPN8NativeUI14MapPinListenerEE6removeEii;2A.;insert::(90,21)=#(90,1),(0,6),(90,6),(0,3),(90,3),(0,6);:_ZN6MAUtil6VectorIPN8NativeUI14MapPinListenerEE6insertEiS3_;2A.;size::(90,22)=#(90,1),(0,3),(90,23)=*(90,12),(0,6);:_ZNK6MAUtil6VectorIPN8NativeUI14MapPinListenerEE4sizeEv;2B.;resize::(90,19):_ZN6MAUtil6VectorIPN8NativeUI14MapPinListenerEE6resizeEi;2A.;reserve::(90,19):_ZN6MAUtil6VectorIPN8NativeUI14MapPinListenerEE7reserveEi;2A.;clear::(90,13):_ZN6MAUtil6VectorIPN8NativeUI14MapPinListenerEE5clearEv;2A.;empty::(90,24)=#(90,1),(0,4),(90,23),(0,6);:_ZNK6MAUtil6VectorIPN8NativeUI14MapPinListenerEE5emptyEv;2B.;capacity::(90,22):_ZNK6MAUtil6VectorIPN8NativeUI14MapPinListenerEE8capacityEv;2B.;begin::(90,25)=#(90,1),(90,2),(90,6),(0,6);:_ZN6MAUtil6VectorIPN8NativeUI14MapPinListenerEE5beginEv;2A.;end::(90,25):_ZN6MAUtil6VectorIPN8NativeUI14MapPinListenerEE3endEv;2A.;begin::(90,26)=#(90,1),(90,8),(90,23),(0,6);:_ZNK6MAUtil6VectorIPN8NativeUI14MapPinListenerEE5beginEv;2B.;end::(90,26):_ZNK6MAUtil6VectorIPN8NativeUI14MapPinListenerEE3endEv;2B.;operator[]::(90,27)=#(90,1),(90,28)=&(90,3),(90,6),(0,3),(0,6);:_ZN6MAUtil6VectorIPN8NativeUI14MapPinListenerEEixEi;2A.(90,29)=#(90,1),(90,17),(90,23),(0,3),(0,6);:_ZNK6MAUtil6VectorIPN8NativeUI14MapPinListenerEEixEi;2B.;pointer::(90,26):_ZNK6MAUtil6VectorIPN8NativeUI14MapPinListenerEE7pointerEv;2B.(90,25):_ZN6MAUtil6VectorIPN8NativeUI14MapPinListenerEE7pointerEv;2A.;;",128,0,95,0
	.stabn	162,0,0,0
	.stabs	"/Applications/MoSync/include/NativeUI/MapRegion.h",130,0,0,0
	.stabs	"MapRegion:Tt(92,1)=s8mUpperLeftCorner:/0(89,3),0,32;mLowerRightCorner:/0(89,3),32,32;__base_ctor::(92,2)=#(92,1),(0,6),(92,3)=*(92,1),(0,6);:_ZN8NativeUI9MapRegionC2Ev;2A.;__comp_ctor::(92,2):_ZN8NativeUI9MapRegionC1Ev;2A.;__base_ctor::(92,4)=#(92,1),(0,6),(92,3),(89,1),(89,1),(0,6);:_ZN8NativeUI9MapRegionC2ENS_8LocationES1_;2A.;__comp_ctor::(92,4):_ZN8NativeUI9MapRegionC1ENS_8LocationES1_;2A.;__base_dtor::(92,2):_ZN8NativeUI9MapRegionD2Ev;2A.;__comp_dtor::(92,2):_ZN8NativeUI9MapRegionD1Ev;2A.;setUpperLeftCorner::(92,5)=#(92,1),(0,6),(92,3),(89,3),(0,6);:_ZN8NativeUI9MapRegion18setUpperLeftCornerEPNS_8LocationE;2A.;getUpperLeftCorner::(92,6)=#(92,1),(89,10),(92,7)=*(92,8)=k(92,1),(0,6);:_ZNK8NativeUI9MapRegion18getUpperLeftCornerEv;2B.;setLowerRightCorner::(92,5):_ZN8NativeUI9MapRegion19setLowerRightCornerEPNS_8LocationE;2A.;getLowerRightCorner::(92,6):_ZNK8NativeUI9MapRegion19getLowerRightCornerEv;2B.;operator=::(92,9)=#(92,1),(92,10)=&(92,1),(92,3),(92,11)=&(92,8),(0,6);:_ZN8NativeUI9MapRegionaSERKS0_;2A.;__base_ctor::(92,12)=#(92,1),(0,6),(92,3),(92,11),(0,6);:_ZN8NativeUI9MapRegionC2ERKS0_;2A.;__comp_ctor::(92,12):_ZN8NativeUI9MapRegionC1ERKS0_;2A.;;",128,0,43,0
	.stabn	162,0,0,0
	.stabs	"MapType:t(87,1)=eMAP_TYPE_ROAD:0,MAP_TYPE_SATELLITE:1,;",128,0,60,0
	.stabs	"Vector<NativeUI::MapListener*>:Tt(87,2)=s12mSize:/1(0,3),0,32;mCapacity:/1(0,3),32,32;mData:/1(87,3)=*(87,4)=*(87,5)=xsMapListener:,64,32;__base_ctor::(87,6)=#(87,2),(0,6),(87,7)=*(87,2),(0,3),(0,6);:_ZN6MAUtil6VectorIPN8NativeUI11MapListenerEEC2Ei;2A.;__comp_ctor::(87,6):_ZN6MAUtil6VectorIPN8NativeUI11MapListenerEEC1Ei;2A.;__base_ctor::(87,8)=#(87,2),(0,6),(87,7),(87,9)=*(87,10)=k(87,4),(0,3),(0,6);:_ZN6MAUtil6VectorIPN8NativeUI11MapListenerEEC2EPKS3_i;2A.;__comp_ctor::(87,8):_ZN6MAUtil6VectorIPN8NativeUI11MapListenerEEC1EPKS3_i;2A.;__base_ctor::(87,11)=#(87,2),(0,6),(87,7),(87,12)=&(87,13)=k(87,2),(0,6);:_ZN6MAUtil6VectorIPN8NativeUI11MapListenerEEC2ERKS4_;2A.;__comp_ctor::(87,11):_ZN6MAUtil6VectorIPN8NativeUI11MapListenerEEC1ERKS4_;2A.;__base_dtor::(87,14)=#(87,2),(0,6),(87,7),(0,6);:_ZN6MAUtil6VectorIPN8NativeUI11MapListenerEED2Ev;2A.;__comp_dtor::(87,14):_ZN6MAUtil6VectorIPN8NativeUI11MapListenerEED1Ev;2A.;operator=::(87,15)=#(87,2),(87,16)=&(87,2),(87,7),(87,12),(0,6);:_ZN6MAUtil6VectorIPN8NativeUI11MapListenerEEaSERKS4_;2A.;add::(87,17)=#(87,2),(0,6),(87,7),(87,18)=&(87,10),(0,6);:_ZN6MAUtil6VectorIPN8NativeUI11MapListenerEE3addERKS3_;2A.(87,8):_ZN6MAUtil6VectorIPN8NativeUI11MapListenerEE3addEPKS3_i;2A.;remove::(87,19)=#(87,2),(0,6),(87,7),(87,3),(0,6);:_ZN6MAUtil6VectorIPN8NativeUI11MapListenerEE6removeEPS3_;2A.(87,20)=#(87,2),(0,6),(87,7),(0,3),(0,6);:_ZN6MAUtil6VectorIPN8NativeUI11MapListenerEE6removeEi;2A.(87,21)=#(87,2),(0,6),(87,7),(0,3),(0,3),(0,6);:_ZN6MAUtil6VectorIPN8NativeUI11MapListenerEE6removeEii;2A.;insert::(87,22)=#(87,2),(0,6),(87,7),(0,3),(87,4),(0,6);:_ZN6MAUtil6VectorIPN8NativeUI11MapListenerEE6insertEiS3_;2A.;size::(87,23)=#(87,2),(0,3),(87,24)=*(87,13),(0,6);:_ZNK6MAUtil6VectorIPN8NativeUI11MapListenerEE4sizeEv;2B.;resize::(87,20):_ZN6MAUtil6VectorIPN8NativeUI11MapListenerEE6resizeEi;2A.;reserve::(87,20):_ZN6MAUtil6VectorIPN8NativeUI11MapListenerEE7reserveEi;2A.;clear::(87,14):_ZN6MAUtil6VectorIPN8NativeUI11MapListenerEE5clearEv;2A.;empty::(87,25)=#(87,2),(0,4),(87,24),(0,6);:_ZNK6MAUtil6VectorIPN8NativeUI11MapListenerEE5emptyEv;2B.;capacity::(87,23):_ZNK6MAUtil6VectorIPN8NativeUI11MapListenerEE8capacityEv;2B.;begin::(87,26)=#(87,2),(87,3),(87,7),(0,6);:_ZN6MAUtil6VectorIPN8NativeUI11MapListenerEE5beginEv;2A.;end::(87,26):_ZN6MAUtil6VectorIPN8NativeUI11MapListenerEE3endEv;2A.;begin::(87,27)=#(87,2),(87,9),(87,24),(0,6);:_ZNK6MAUtil6VectorIPN8NativeUI11MapListenerEE5beginEv;2B.;end::(87,27):_ZNK6MAUtil6VectorIPN8NativeUI11MapListenerEE3endEv;2B.;operator[]::(87,28)=#(87,2),(87,29)=&(87,4),(87,7),(0,3),(0,6);:_ZN6MAUtil6VectorIPN8NativeUI11MapListenerEEixEi;2A.(87,30)=#(87,2),(87,18),(87,24),(0,3),(0,6);:_ZNK6MAUtil6VectorIPN8NativeUI11MapListenerEEixEi;2B.;pointer::(87,27):_ZNK6MAUtil6VectorIPN8NativeUI11MapListenerEE7pointerEv;2B.(87,26):_ZN6MAUtil6VectorIPN8NativeUI11MapListenerEE7pointerEv;2A.;;",128,0,95,0
	.stabn	162,0,0,0
	.stabs	"/Applications/MoSync/include/NativeUI/MapListener.h",130,0,0,0
	.stabn	162,0,0,0
	.stabs	"/Applications/MoSync/include/NativeUI/NavigationBar.h",130,0,0,0
	.stabs	"Vector<NativeUI::NavigationBarListener*>:Tt(94,1)=s12mSize:/1(0,3),0,32;mCapacity:/1(0,3),32,32;mData:/1(94,2)=*(94,3)=*(94,4)=xsNavigationBarListener:,64,32;__base_ctor::(94,5)=#(94,1),(0,6),(94,6)=*(94,1),(0,3),(0,6);:_ZN6MAUtil6VectorIPN8NativeUI21NavigationBarListenerEEC2Ei;2A.;__comp_ctor::(94,5):_ZN6MAUtil6VectorIPN8NativeUI21NavigationBarListenerEEC1Ei;2A.;__base_ctor::(94,7)=#(94,1),(0,6),(94,6),(94,8)=*(94,9)=k(94,3),(0,3),(0,6);:_ZN6MAUtil6VectorIPN8NativeUI21NavigationBarListenerEEC2EPKS3_i;2A.;__comp_ctor::(94,7):_ZN6MAUtil6VectorIPN8NativeUI21NavigationBarListenerEEC1EPKS3_i;2A.;__base_ctor::(94,10)=#(94,1),(0,6),(94,6),(94,11)=&(94,12)=k(94,1),(0,6);:_ZN6MAUtil6VectorIPN8NativeUI21NavigationBarListenerEEC2ERKS4_;2A.;__comp_ctor::(94,10):_ZN6MAUtil6VectorIPN8NativeUI21NavigationBarListenerEEC1ERKS4_;2A.;__base_dtor::(94,13)=#(94,1),(0,6),(94,6),(0,6);:_ZN6MAUtil6VectorIPN8NativeUI21NavigationBarListenerEED2Ev;2A.;__comp_dtor::(94,13):_ZN6MAUtil6VectorIPN8NativeUI21NavigationBarListenerEED1Ev;2A.;operator=::(94,14)=#(94,1),(94,15)=&(94,1),(94,6),(94,11),(0,6);:_ZN6MAUtil6VectorIPN8NativeUI21NavigationBarListenerEEaSERKS4_;2A.;add::(94,16)=#(94,1),(0,6),(94,6),(94,17)=&(94,9),(0,6);:_ZN6MAUtil6VectorIPN8NativeUI21NavigationBarListenerEE3addERKS3_;2A.(94,7):_ZN6MAUtil6VectorIPN8NativeUI21NavigationBarListenerEE3addEPKS3_i;2A.;remove::(94,18)=#(94,1),(0,6),(94,6),(94,2),(0,6);:_ZN6MAUtil6VectorIPN8NativeUI21NavigationBarListenerEE6removeEPS3_;2A.(94,19)=#(94,1),(0,6),(94,6),(0,3),(0,6);:_ZN6MAUtil6VectorIPN8NativeUI21NavigationBarListenerEE6removeEi;2A.(94,20)=#(94,1),(0,6),(94,6),(0,3),(0,3),(0,6);:_ZN6MAUtil6VectorIPN8NativeUI21NavigationBarListenerEE6removeEii;2A.;insert::(94,21)=#(94,1),(0,6),(94,6),(0,3),(94,3),(0,6);:_ZN6MAUtil6VectorIPN8NativeUI21NavigationBarListenerEE6insertEiS3_;2A.;size::(94,22)=#(94,1),(0,3),(94,23)=*(94,12),(0,6);:_ZNK6MAUtil6VectorIPN8NativeUI21NavigationBarListenerEE4sizeEv;2B.;resize::(94,19):_ZN6MAUtil6VectorIPN8NativeUI21NavigationBarListenerEE6resizeEi;2A.;reserve::(94,19):_ZN6MAUtil6VectorIPN8NativeUI21NavigationBarListenerEE7reserveEi;2A.;clear::(94,13):_ZN6MAUtil6VectorIPN8NativeUI21NavigationBarListenerEE5clearEv;2A.;empty::(94,24)=#(94,1),(0,4),(94,23),(0,6);:_ZNK6MAUtil6VectorIPN8NativeUI21NavigationBarListenerEE5emptyEv;2B.;capacity::(94,22):_ZNK6MAUtil6VectorIPN8NativeUI21NavigationBarListenerEE8capacityEv;2B.;begin::(94,25)=#(94,1),(94,2),(94,6),(0,6);:_ZN6MAUtil6VectorIPN8NativeUI21NavigationBarListenerEE5beginEv;2A.;end::(94,25):_ZN6MAUtil6VectorIPN8NativeUI21NavigationBarListenerEE3endEv;2A.;begin::(94,26)=#(94,1),(94,8),(94,23),(0,6);:_ZNK6MAUtil6VectorIPN8NativeUI21NavigationBarListenerEE5beginEv;2B.;end::(94,26):_ZNK6MAUtil6VectorIPN8NativeUI21NavigationBarListenerEE3endEv;2B.;operator[]::(94,27)=#(94,1),(94,28)=&(94,3),(94,6),(0,3),(0,6);:_ZN6MAUtil6VectorIPN8NativeUI21NavigationBarListenerEEixEi;2A.(94,29)=#(94,1),(94,17),(94,23),(0,3),(0,6);:_ZNK6MAUtil6VectorIPN8NativeUI21NavigationBarListenerEEixEi;2B.;pointer::(94,26):_ZNK6MAUtil6VectorIPN8NativeUI21NavigationBarListenerEE7pointerEv;2B.(94,25):_ZN6MAUtil6VectorIPN8NativeUI21NavigationBarListenerEE7pointerEv;2A.;;",128,0,95,0
	.stabn	162,0,0,0
	.stabs	"/Applications/MoSync/include/NativeUI/NavigationBarListener.h",130,0,0,0
	.stabn	162,0,0,0
	.stabs	"/Applications/MoSync/include/NativeUI/NumberPicker.h",130,0,0,0
	.stabs	"Vector<NativeUI::NumberPickerListener*>:Tt(96,1)=s12mSize:/1(0,3),0,32;mCapacity:/1(0,3),32,32;mData:/1(96,2)=*(96,3)=*(96,4)=xsNumberPickerListener:,64,32;__base_ctor::(96,5)=#(96,1),(0,6),(96,6)=*(96,1),(0,3),(0,6);:_ZN6MAUtil6VectorIPN8NativeUI20NumberPickerListenerEEC2Ei;2A.;__comp_ctor::(96,5):_ZN6MAUtil6VectorIPN8NativeUI20NumberPickerListenerEEC1Ei;2A.;__base_ctor::(96,7)=#(96,1),(0,6),(96,6),(96,8)=*(96,9)=k(96,3),(0,3),(0,6);:_ZN6MAUtil6VectorIPN8NativeUI20NumberPickerListenerEEC2EPKS3_i;2A.;__comp_ctor::(96,7):_ZN6MAUtil6VectorIPN8NativeUI20NumberPickerListenerEEC1EPKS3_i;2A.;__base_ctor::(96,10)=#(96,1),(0,6),(96,6),(96,11)=&(96,12)=k(96,1),(0,6);:_ZN6MAUtil6VectorIPN8NativeUI20NumberPickerListenerEEC2ERKS4_;2A.;__comp_ctor::(96,10):_ZN6MAUtil6VectorIPN8NativeUI20NumberPickerListenerEEC1ERKS4_;2A.;__base_dtor::(96,13)=#(96,1),(0,6),(96,6),(0,6);:_ZN6MAUtil6VectorIPN8NativeUI20NumberPickerListenerEED2Ev;2A.;__comp_dtor::(96,13):_ZN6MAUtil6VectorIPN8NativeUI20NumberPickerListenerEED1Ev;2A.;operator=::(96,14)=#(96,1),(96,15)=&(96,1),(96,6),(96,11),(0,6);:_ZN6MAUtil6VectorIPN8NativeUI20NumberPickerListenerEEaSERKS4_;2A.;add::(96,16)=#(96,1),(0,6),(96,6),(96,17)=&(96,9),(0,6);:_ZN6MAUtil6VectorIPN8NativeUI20NumberPickerListenerEE3addERKS3_;2A.(96,7):_ZN6MAUtil6VectorIPN8NativeUI20NumberPickerListenerEE3addEPKS3_i;2A.;remove::(96,18)=#(96,1),(0,6),(96,6),(96,2),(0,6);:_ZN6MAUtil6VectorIPN8NativeUI20NumberPickerListenerEE6removeEPS3_;2A.(96,19)=#(96,1),(0,6),(96,6),(0,3),(0,6);:_ZN6MAUtil6VectorIPN8NativeUI20NumberPickerListenerEE6removeEi;2A.(96,20)=#(96,1),(0,6),(96,6),(0,3),(0,3),(0,6);:_ZN6MAUtil6VectorIPN8NativeUI20NumberPickerListenerEE6removeEii;2A.;insert::(96,21)=#(96,1),(0,6),(96,6),(0,3),(96,3),(0,6);:_ZN6MAUtil6VectorIPN8NativeUI20NumberPickerListenerEE6insertEiS3_;2A.;size::(96,22)=#(96,1),(0,3),(96,23)=*(96,12),(0,6);:_ZNK6MAUtil6VectorIPN8NativeUI20NumberPickerListenerEE4sizeEv;2B.;resize::(96,19):_ZN6MAUtil6VectorIPN8NativeUI20NumberPickerListenerEE6resizeEi;2A.;reserve::(96,19):_ZN6MAUtil6VectorIPN8NativeUI20NumberPickerListenerEE7reserveEi;2A.;clear::(96,13):_ZN6MAUtil6VectorIPN8NativeUI20NumberPickerListenerEE5clearEv;2A.;empty::(96,24)=#(96,1),(0,4),(96,23),(0,6);:_ZNK6MAUtil6VectorIPN8NativeUI20NumberPickerListenerEE5emptyEv;2B.;capacity::(96,22):_ZNK6MAUtil6VectorIPN8NativeUI20NumberPickerListenerEE8capacityEv;2B.;begin::(96,25)=#(96,1),(96,2),(96,6),(0,6);:_ZN6MAUtil6VectorIPN8NativeUI20NumberPickerListenerEE5beginEv;2A.;end::(96,25):_ZN6MAUtil6VectorIPN8NativeUI20NumberPickerListenerEE3endEv;2A.;begin::(96,26)=#(96,1),(96,8),(96,23),(0,6);:_ZNK6MAUtil6VectorIPN8NativeUI20NumberPickerListenerEE5beginEv;2B.;end::(96,26):_ZNK6MAUtil6VectorIPN8NativeUI20NumberPickerListenerEE3endEv;2B.;operator[]::(96,27)=#(96,1),(96,28)=&(96,3),(96,6),(0,3),(0,6);:_ZN6MAUtil6VectorIPN8NativeUI20NumberPickerListenerEEixEi;2A.(96,29)=#(96,1),(96,17),(96,23),(0,3),(0,6);:_ZNK6MAUtil6VectorIPN8NativeUI20NumberPickerListenerEEixEi;2B.;pointer::(96,26):_ZNK6MAUtil6VectorIPN8NativeUI20NumberPickerListenerEE7pointerEv;2B.(96,25):_ZN6MAUtil6VectorIPN8NativeUI20NumberPickerListenerEE7pointerEv;2A.;;",128,0,95,0
	.stabn	162,0,0,0
	.stabs	"/Applications/MoSync/include/NativeUI/NumberPickerListener.h",130,0,0,0
	.stabn	162,0,0,0
	.stabs	"/Applications/MoSync/include/NativeUI/PanoramaView.h",130,0,0,0
	.stabs	"/Applications/MoSync/include/NativeUI/Screen.h",130,0,0,0
	.stabs	"ActionBarMenuItemDisplayFlag:t(99,1)=eSHOW_IF_ROOM:1,SHOW_ALWAYS:2,SHOW_WITH_TEXT:4,SHOW_COLLAPSE_ACTION_VIEW:8,;",128,0,51,0
	.stabs	"Vector<NativeUI::ScreenListener*>:Tt(99,2)=s12mSize:/1(0,3),0,32;mCapacity:/1(0,3),32,32;mData:/1(99,3)=*(99,4)=*(99,5)=xsScreenListener:,64,32;__base_ctor::(99,6)=#(99,2),(0,6),(99,7)=*(99,2),(0,3),(0,6);:_ZN6MAUtil6VectorIPN8NativeUI14ScreenListenerEEC2Ei;2A.;__comp_ctor::(99,6):_ZN6MAUtil6VectorIPN8NativeUI14ScreenListenerEEC1Ei;2A.;__base_ctor::(99,8)=#(99,2),(0,6),(99,7),(99,9)=*(99,10)=k(99,4),(0,3),(0,6);:_ZN6MAUtil6VectorIPN8NativeUI14ScreenListenerEEC2EPKS3_i;2A.;__comp_ctor::(99,8):_ZN6MAUtil6VectorIPN8NativeUI14ScreenListenerEEC1EPKS3_i;2A.;__base_ctor::(99,11)=#(99,2),(0,6),(99,7),(99,12)=&(99,13)=k(99,2),(0,6);:_ZN6MAUtil6VectorIPN8NativeUI14ScreenListenerEEC2ERKS4_;2A.;__comp_ctor::(99,11):_ZN6MAUtil6VectorIPN8NativeUI14ScreenListenerEEC1ERKS4_;2A.;__base_dtor::(99,14)=#(99,2),(0,6),(99,7),(0,6);:_ZN6MAUtil6VectorIPN8NativeUI14ScreenListenerEED2Ev;2A.;__comp_dtor::(99,14):_ZN6MAUtil6VectorIPN8NativeUI14ScreenListenerEED1Ev;2A.;operator=::(99,15)=#(99,2),(99,16)=&(99,2),(99,7),(99,12),(0,6);:_ZN6MAUtil6VectorIPN8NativeUI14ScreenListenerEEaSERKS4_;2A.;add::(99,17)=#(99,2),(0,6),(99,7),(99,18)=&(99,10),(0,6);:_ZN6MAUtil6VectorIPN8NativeUI14ScreenListenerEE3addERKS3_;2A.(99,8):_ZN6MAUtil6VectorIPN8NativeUI14ScreenListenerEE3addEPKS3_i;2A.;remove::(99,19)=#(99,2),(0,6),(99,7),(99,3),(0,6);:_ZN6MAUtil6VectorIPN8NativeUI14ScreenListenerEE6removeEPS3_;2A.(99,20)=#(99,2),(0,6),(99,7),(0,3),(0,6);:_ZN6MAUtil6VectorIPN8NativeUI14ScreenListenerEE6removeEi;2A.(99,21)=#(99,2),(0,6),(99,7),(0,3),(0,3),(0,6);:_ZN6MAUtil6VectorIPN8NativeUI14ScreenListenerEE6removeEii;2A.;insert::(99,22)=#(99,2),(0,6),(99,7),(0,3),(99,4),(0,6);:_ZN6MAUtil6VectorIPN8NativeUI14ScreenListenerEE6insertEiS3_;2A.;size::(99,23)=#(99,2),(0,3),(99,24)=*(99,13),(0,6);:_ZNK6MAUtil6VectorIPN8NativeUI14ScreenListenerEE4sizeEv;2B.;resize::(99,20):_ZN6MAUtil6VectorIPN8NativeUI14ScreenListenerEE6resizeEi;2A.;reserve::(99,20):_ZN6MAUtil6VectorIPN8NativeUI14ScreenListenerEE7reserveEi;2A.;clear::(99,14):_ZN6MAUtil6VectorIPN8NativeUI14ScreenListenerEE5clearEv;2A.;empty::(99,25)=#(99,2),(0,4),(99,24),(0,6);:_ZNK6MAUtil6VectorIPN8NativeUI14ScreenListenerEE5emptyEv;2B.;capacity::(99,23):_ZNK6MAUtil6VectorIPN8NativeUI14ScreenListenerEE8capacityEv;2B.;begin::(99,26)=#(99,2),(99,3),(99,7),(0,6);:_ZN6MAUtil6VectorIPN8NativeUI14ScreenListenerEE5beginEv;2A.;end::(99,26):_ZN6MAUtil6VectorIPN8NativeUI14ScreenListenerEE3endEv;2A.;begin::(99,27)=#(99,2),(99,9),(99,24),(0,6);:_ZNK6MAUtil6VectorIPN8NativeUI14ScreenListenerEE5beginEv;2B.;end::(99,27):_ZNK6MAUtil6VectorIPN8NativeUI14ScreenListenerEE3endEv;2B.;operator[]::(99,28)=#(99,2),(99,29)=&(99,4),(99,7),(0,3),(0,6);:_ZN6MAUtil6VectorIPN8NativeUI14ScreenListenerEEixEi;2A.(99,30)=#(99,2),(99,18),(99,24),(0,3),(0,6);:_ZNK6MAUtil6VectorIPN8NativeUI14ScreenListenerEEixEi;2B.;pointer::(99,27):_ZNK6MAUtil6VectorIPN8NativeUI14ScreenListenerEE7pointerEv;2B.(99,26):_ZN6MAUtil6VectorIPN8NativeUI14ScreenListenerEE7pointerEv;2A.;;",128,0,95,0
	.stabn	162,0,0,0
	.stabn	162,0,0,0
	.stabs	"/Applications/MoSync/include/NativeUI/ProgressBar.h",130,0,0,0
	.stabn	162,0,0,0
	.stabs	"/Applications/MoSync/include/NativeUI/RadioButton.h",130,0,0,0
	.stabs	"Vector<NativeUI::RadioButtonListener*>:Tt(101,1)=s12mSize:/1(0,3),0,32;mCapacity:/1(0,3),32,32;mData:/1(101,2)=*(101,3)=*(101,4)=xsRadioButtonListener:,64,32;__base_ctor::(101,5)=#(101,1),(0,6),(101,6)=*(101,1),(0,3),(0,6);:_ZN6MAUtil6VectorIPN8NativeUI19RadioButtonListenerEEC2Ei;2A.;__comp_ctor::(101,5):_ZN6MAUtil6VectorIPN8NativeUI19RadioButtonListenerEEC1Ei;2A.;__base_ctor::(101,7)=#(101,1),(0,6),(101,6),(101,8)=*(101,9)=k(101,3),(0,3),(0,6);:_ZN6MAUtil6VectorIPN8NativeUI19RadioButtonListenerEEC2EPKS3_i;2A.;__comp_ctor::(101,7):_ZN6MAUtil6VectorIPN8NativeUI19RadioButtonListenerEEC1EPKS3_i;2A.;__base_ctor::(101,10)=#(101,1),(0,6),(101,6),(101,11)=&(101,12)=k(101,1),(0,6);:_ZN6MAUtil6VectorIPN8NativeUI19RadioButtonListenerEEC2ERKS4_;2A.;__comp_ctor::(101,10):_ZN6MAUtil6VectorIPN8NativeUI19RadioButtonListenerEEC1ERKS4_;2A.;__base_dtor::(101,13)=#(101,1),(0,6),(101,6),(0,6);:_ZN6MAUtil6VectorIPN8NativeUI19RadioButtonListenerEED2Ev;2A.;__comp_dtor::(101,13):_ZN6MAUtil6VectorIPN8NativeUI19RadioButtonListenerEED1Ev;2A.;operator=::(101,14)=#(101,1),(101,15)=&(101,1),(101,6),(101,11),(0,6);:_ZN6MAUtil6VectorIPN8NativeUI19RadioButtonListenerEEaSERKS4_;2A.;add::(101,16)=#(101,1),(0,6),(101,6),(101,17)=&(101,9),(0,6);:_ZN6MAUtil6VectorIPN8NativeUI19RadioButtonListenerEE3addERKS3_;2A.(101,7):_ZN6MAUtil6VectorIPN8NativeUI19RadioButtonListenerEE3addEPKS3_i;2A.;remove::(101,18)=#(101,1),(0,6),(101,6),(101,2),(0,6);:_ZN6MAUtil6VectorIPN8NativeUI19RadioButtonListenerEE6removeEPS3_;2A.(101,19)=#(101,1),(0,6),(101,6),(0,3),(0,6);:_ZN6MAUtil6VectorIPN8NativeUI19RadioButtonListenerEE6removeEi;2A.(101,20)=#(101,1),(0,6),(101,6),(0,3),(0,3),(0,6);:_ZN6MAUtil6VectorIPN8NativeUI19RadioButtonListenerEE6removeEii;2A.;insert::(101,21)=#(101,1),(0,6),(101,6),(0,3),(101,3),(0,6);:_ZN6MAUtil6VectorIPN8NativeUI19RadioButtonListenerEE6insertEiS3_;2A.;size::(101,22)=#(101,1),(0,3),(101,23)=*(101,12),(0,6);:_ZNK6MAUtil6VectorIPN8NativeUI19RadioButtonListenerEE4sizeEv;2B.;resize::(101,19):_ZN6MAUtil6VectorIPN8NativeUI19RadioButtonListenerEE6resizeEi;2A.;reserve::(101,19):_ZN6MAUtil6VectorIPN8NativeUI19RadioButtonListenerEE7reserveEi;2A.;clear::(101,13):_ZN6MAUtil6VectorIPN8NativeUI19RadioButtonListenerEE5clearEv;2A.;empty::(101,24)=#(101,1),(0,4),(101,23),(0,6);:_ZNK6MAUtil6VectorIPN8NativeUI19RadioButtonListenerEE5emptyEv;2B.;capacity::(101,22):_ZNK6MAUtil6VectorIPN8NativeUI19RadioButtonListenerEE8capacityEv;2B.;begin::(101,25)=#(101,1),(101,2),(101,6),(0,6);:_ZN6MAUtil6VectorIPN8NativeUI19RadioButtonListenerEE5beginEv;2A.;end::(101,25):_ZN6MAUtil6VectorIPN8NativeUI19RadioButtonListenerEE3endEv;2A.;begin::(101,26)=#(101,1),(101,8),(101,23),(0,6);:_ZNK6MAUtil6VectorIPN8NativeUI19RadioButtonListenerEE5beginEv;2B.;end::(101,26):_ZNK6MAUtil6VectorIPN8NativeUI19RadioButtonListenerEE3endEv;2B.;operator[]::(101,27)=#(101,1),(101,28)=&(101,3),(101,6),(0,3),(0,6);:_ZN6MAUtil6VectorIPN8NativeUI19RadioButtonListenerEEixEi;2A.(101,29)=#(101,1),(101,17),(101,23),(0,3),(0,6);:_ZNK6MAUtil6VectorIPN8NativeUI19RadioButtonListenerEEixEi;2B.;pointer::(101,26):_ZNK6MAUtil6VectorIPN8NativeUI19RadioButtonListenerEE7pointerEv;2B.(101,25):_ZN6MAUtil6VectorIPN8NativeUI19RadioButtonListenerEE7pointerEv;2A.;;",128,0,95,0
	.stabn	162,0,0,0
	.stabs	"/Applications/MoSync/include/NativeUI/RadioButtonListener.h",130,0,0,0
	.stabn	162,0,0,0
	.stabs	"/Applications/MoSync/include/NativeUI/RadioGroup.h",130,0,0,0
	.stabs	"Vector<NativeUI::RadioGroupListener*>:Tt(103,1)=s12mSize:/1(0,3),0,32;mCapacity:/1(0,3),32,32;mData:/1(103,2)=*(103,3)=*(103,4)=xsRadioGroupListener:,64,32;__base_ctor::(103,5)=#(103,1),(0,6),(103,6)=*(103,1),(0,3),(0,6);:_ZN6MAUtil6VectorIPN8NativeUI18RadioGroupListenerEEC2Ei;2A.;__comp_ctor::(103,5):_ZN6MAUtil6VectorIPN8NativeUI18RadioGroupListenerEEC1Ei;2A.;__base_ctor::(103,7)=#(103,1),(0,6),(103,6),(103,8)=*(103,9)=k(103,3),(0,3),(0,6);:_ZN6MAUtil6VectorIPN8NativeUI18RadioGroupListenerEEC2EPKS3_i;2A.;__comp_ctor::(103,7):_ZN6MAUtil6VectorIPN8NativeUI18RadioGroupListenerEEC1EPKS3_i;2A.;__base_ctor::(103,10)=#(103,1),(0,6),(103,6),(103,11)=&(103,12)=k(103,1),(0,6);:_ZN6MAUtil6VectorIPN8NativeUI18RadioGroupListenerEEC2ERKS4_;2A.;__comp_ctor::(103,10):_ZN6MAUtil6VectorIPN8NativeUI18RadioGroupListenerEEC1ERKS4_;2A.;__base_dtor::(103,13)=#(103,1),(0,6),(103,6),(0,6);:_ZN6MAUtil6VectorIPN8NativeUI18RadioGroupListenerEED2Ev;2A.;__comp_dtor::(103,13):_ZN6MAUtil6VectorIPN8NativeUI18RadioGroupListenerEED1Ev;2A.;operator=::(103,14)=#(103,1),(103,15)=&(103,1),(103,6),(103,11),(0,6);:_ZN6MAUtil6VectorIPN8NativeUI18RadioGroupListenerEEaSERKS4_;2A.;add::(103,16)=#(103,1),(0,6),(103,6),(103,17)=&(103,9),(0,6);:_ZN6MAUtil6VectorIPN8NativeUI18RadioGroupListenerEE3addERKS3_;2A.(103,7):_ZN6MAUtil6VectorIPN8NativeUI18RadioGroupListenerEE3addEPKS3_i;2A.;remove::(103,18)=#(103,1),(0,6),(103,6),(103,2),(0,6);:_ZN6MAUtil6VectorIPN8NativeUI18RadioGroupListenerEE6removeEPS3_;2A.(103,19)=#(103,1),(0,6),(103,6),(0,3),(0,6);:_ZN6MAUtil6VectorIPN8NativeUI18RadioGroupListenerEE6removeEi;2A.(103,20)=#(103,1),(0,6),(103,6),(0,3),(0,3),(0,6);:_ZN6MAUtil6VectorIPN8NativeUI18RadioGroupListenerEE6removeEii;2A.;insert::(103,21)=#(103,1),(0,6),(103,6),(0,3),(103,3),(0,6);:_ZN6MAUtil6VectorIPN8NativeUI18RadioGroupListenerEE6insertEiS3_;2A.;size::(103,22)=#(103,1),(0,3),(103,23)=*(103,12),(0,6);:_ZNK6MAUtil6VectorIPN8NativeUI18RadioGroupListenerEE4sizeEv;2B.;resize::(103,19):_ZN6MAUtil6VectorIPN8NativeUI18RadioGroupListenerEE6resizeEi;2A.;reserve::(103,19):_ZN6MAUtil6VectorIPN8NativeUI18RadioGroupListenerEE7reserveEi;2A.;clear::(103,13):_ZN6MAUtil6VectorIPN8NativeUI18RadioGroupListenerEE5clearEv;2A.;empty::(103,24)=#(103,1),(0,4),(103,23),(0,6);:_ZNK6MAUtil6VectorIPN8NativeUI18RadioGroupListenerEE5emptyEv;2B.;capacity::(103,22):_ZNK6MAUtil6VectorIPN8NativeUI18RadioGroupListenerEE8capacityEv;2B.;begin::(103,25)=#(103,1),(103,2),(103,6),(0,6);:_ZN6MAUtil6VectorIPN8NativeUI18RadioGroupListenerEE5beginEv;2A.;end::(103,25):_ZN6MAUtil6VectorIPN8NativeUI18RadioGroupListenerEE3endEv;2A.;begin::(103,26)=#(103,1),(103,8),(103,23),(0,6);:_ZNK6MAUtil6VectorIPN8NativeUI18RadioGroupListenerEE5beginEv;2B.;end::(103,26):_ZNK6MAUtil6VectorIPN8NativeUI18RadioGroupListenerEE3endEv;2B.;operator[]::(103,27)=#(103,1),(103,28)=&(103,3),(103,6),(0,3),(0,6);:_ZN6MAUtil6VectorIPN8NativeUI18RadioGroupListenerEEixEi;2A.(103,29)=#(103,1),(103,17),(103,23),(0,3),(0,6);:_ZNK6MAUtil6VectorIPN8NativeUI18RadioGroupListenerEEixEi;2B.;pointer::(103,26):_ZNK6MAUtil6VectorIPN8NativeUI18RadioGroupListenerEE7pointerEv;2B.(103,25):_ZN6MAUtil6VectorIPN8NativeUI18RadioGroupListenerEE7pointerEv;2A.;;",128,0,95,0
	.stabs	"Vector<NativeUI::RadioButton*>:Tt(103,30)=s12mSize:/1(0,3),0,32;mCapacity:/1(0,3),32,32;mData:/1(103,31)=*(103,32)=*(103,33)=xsRadioButton:,64,32;__base_ctor::(103,34)=#(103,30),(0,6),(103,35)=*(103,30),(0,3),(0,6);:_ZN6MAUtil6VectorIPN8NativeUI11RadioButtonEEC2Ei;2A.;__comp_ctor::(103,34):_ZN6MAUtil6VectorIPN8NativeUI11RadioButtonEEC1Ei;2A.;__base_ctor::(103,36)=#(103,30),(0,6),(103,35),(103,37)=*(103,38)=k(103,32),(0,3),(0,6);:_ZN6MAUtil6VectorIPN8NativeUI11RadioButtonEEC2EPKS3_i;2A.;__comp_ctor::(103,36):_ZN6MAUtil6VectorIPN8NativeUI11RadioButtonEEC1EPKS3_i;2A.;__base_ctor::(103,39)=#(103,30),(0,6),(103,35),(103,40)=&(103,41)=k(103,30),(0,6);:_ZN6MAUtil6VectorIPN8NativeUI11RadioButtonEEC2ERKS4_;2A.;__comp_ctor::(103,39):_ZN6MAUtil6VectorIPN8NativeUI11RadioButtonEEC1ERKS4_;2A.;__base_dtor::(103,42)=#(103,30),(0,6),(103,35),(0,6);:_ZN6MAUtil6VectorIPN8NativeUI11RadioButtonEED2Ev;2A.;__comp_dtor::(103,42):_ZN6MAUtil6VectorIPN8NativeUI11RadioButtonEED1Ev;2A.;operator=::(103,43)=#(103,30),(103,44)=&(103,30),(103,35),(103,40),(0,6);:_ZN6MAUtil6VectorIPN8NativeUI11RadioButtonEEaSERKS4_;2A.;add::(103,45)=#(103,30),(0,6),(103,35),(103,46)=&(103,38),(0,6);:_ZN6MAUtil6VectorIPN8NativeUI11RadioButtonEE3addERKS3_;2A.(103,36):_ZN6MAUtil6VectorIPN8NativeUI11RadioButtonEE3addEPKS3_i;2A.;remove::(103,47)=#(103,30),(0,6),(103,35),(103,31),(0,6);:_ZN6MAUtil6VectorIPN8NativeUI11RadioButtonEE6removeEPS3_;2A.(103,48)=#(103,30),(0,6),(103,35),(0,3),(0,6);:_ZN6MAUtil6VectorIPN8NativeUI11RadioButtonEE6removeEi;2A.(103,49)=#(103,30),(0,6),(103,35),(0,3),(0,3),(0,6);:_ZN6MAUtil6VectorIPN8NativeUI11RadioButtonEE6removeEii;2A.;insert::(103,50)=#(103,30),(0,6),(103,35),(0,3),(103,32),(0,6);:_ZN6MAUtil6VectorIPN8NativeUI11RadioButtonEE6insertEiS3_;2A.;size::(103,51)=#(103,30),(0,3),(103,52)=*(103,41),(0,6);:_ZNK6MAUtil6VectorIPN8NativeUI11RadioButtonEE4sizeEv;2B.;resize::(103,48):_ZN6MAUtil6VectorIPN8NativeUI11RadioButtonEE6resizeEi;2A.;reserve::(103,48):_ZN6MAUtil6VectorIPN8NativeUI11RadioButtonEE7reserveEi;2A.;clear::(103,42):_ZN6MAUtil6VectorIPN8NativeUI11RadioButtonEE5clearEv;2A.;empty::(103,53)=#(103,30),(0,4),(103,52),(0,6);:_ZNK6MAUtil6VectorIPN8NativeUI11RadioButtonEE5emptyEv;2B.;capacity::(103,51):_ZNK6MAUtil6VectorIPN8NativeUI11RadioButtonEE8capacityEv;2B.;begin::(103,54)=#(103,30),(103,31),(103,35),(0,6);:_ZN6MAUtil6VectorIPN8NativeUI11RadioButtonEE5beginEv;2A.;end::(103,54):_ZN6MAUtil6VectorIPN8NativeUI11RadioButtonEE3endEv;2A.;begin::(103,55)=#(103,30),(103,37),(103,52),(0,6);:_ZNK6MAUtil6VectorIPN8NativeUI11RadioButtonEE5beginEv;2B.;end::(103,55):_ZNK6MAUtil6VectorIPN8NativeUI11RadioButtonEE3endEv;2B.;operator[]::(103,56)=#(103,30),(103,57)=&(103,32),(103,35),(0,3),(0,6);:_ZN6MAUtil6VectorIPN8NativeUI11RadioButtonEEixEi;2A.(103,58)=#(103,30),(103,46),(103,52),(0,3),(0,6);:_ZNK6MAUtil6VectorIPN8NativeUI11RadioButtonEEixEi;2B.;pointer::(103,55):_ZNK6MAUtil6VectorIPN8NativeUI11RadioButtonEE7pointerEv;2B.(103,54):_ZN6MAUtil6VectorIPN8NativeUI11RadioButtonEE7pointerEv;2A.;;",128,0,95,0
	.stabn	162,0,0,0
	.stabs	"/Applications/MoSync/include/NativeUI/RadioGroupListener.h",130,0,0,0
	.stabn	162,0,0,0
	.stabs	"/Applications/MoSync/include/NativeUI/RatingBar.h",130,0,0,0
	.stabs	"Vector<NativeUI::RatingBarListener*>:Tt(105,1)=s12mSize:/1(0,3),0,32;mCapacity:/1(0,3),32,32;mData:/1(105,2)=*(105,3)=*(105,4)=xsRatingBarListener:,64,32;__base_ctor::(105,5)=#(105,1),(0,6),(105,6)=*(105,1),(0,3),(0,6);:_ZN6MAUtil6VectorIPN8NativeUI17RatingBarListenerEEC2Ei;2A.;__comp_ctor::(105,5):_ZN6MAUtil6VectorIPN8NativeUI17RatingBarListenerEEC1Ei;2A.;__base_ctor::(105,7)=#(105,1),(0,6),(105,6),(105,8)=*(105,9)=k(105,3),(0,3),(0,6);:_ZN6MAUtil6VectorIPN8NativeUI17RatingBarListenerEEC2EPKS3_i;2A.;__comp_ctor::(105,7):_ZN6MAUtil6VectorIPN8NativeUI17RatingBarListenerEEC1EPKS3_i;2A.;__base_ctor::(105,10)=#(105,1),(0,6),(105,6),(105,11)=&(105,12)=k(105,1),(0,6);:_ZN6MAUtil6VectorIPN8NativeUI17RatingBarListenerEEC2ERKS4_;2A.;__comp_ctor::(105,10):_ZN6MAUtil6VectorIPN8NativeUI17RatingBarListenerEEC1ERKS4_;2A.;__base_dtor::(105,13)=#(105,1),(0,6),(105,6),(0,6);:_ZN6MAUtil6VectorIPN8NativeUI17RatingBarListenerEED2Ev;2A.;__comp_dtor::(105,13):_ZN6MAUtil6VectorIPN8NativeUI17RatingBarListenerEED1Ev;2A.;operator=::(105,14)=#(105,1),(105,15)=&(105,1),(105,6),(105,11),(0,6);:_ZN6MAUtil6VectorIPN8NativeUI17RatingBarListenerEEaSERKS4_;2A.;add::(105,16)=#(105,1),(0,6),(105,6),(105,17)=&(105,9),(0,6);:_ZN6MAUtil6VectorIPN8NativeUI17RatingBarListenerEE3addERKS3_;2A.(105,7):_ZN6MAUtil6VectorIPN8NativeUI17RatingBarListenerEE3addEPKS3_i;2A.;remove::(105,18)=#(105,1),(0,6),(105,6),(105,2),(0,6);:_ZN6MAUtil6VectorIPN8NativeUI17RatingBarListenerEE6removeEPS3_;2A.(105,19)=#(105,1),(0,6),(105,6),(0,3),(0,6);:_ZN6MAUtil6VectorIPN8NativeUI17RatingBarListenerEE6removeEi;2A.(105,20)=#(105,1),(0,6),(105,6),(0,3),(0,3),(0,6);:_ZN6MAUtil6VectorIPN8NativeUI17RatingBarListenerEE6removeEii;2A.;insert::(105,21)=#(105,1),(0,6),(105,6),(0,3),(105,3),(0,6);:_ZN6MAUtil6VectorIPN8NativeUI17RatingBarListenerEE6insertEiS3_;2A.;size::(105,22)=#(105,1),(0,3),(105,23)=*(105,12),(0,6);:_ZNK6MAUtil6VectorIPN8NativeUI17RatingBarListenerEE4sizeEv;2B.;resize::(105,19):_ZN6MAUtil6VectorIPN8NativeUI17RatingBarListenerEE6resizeEi;2A.;reserve::(105,19):_ZN6MAUtil6VectorIPN8NativeUI17RatingBarListenerEE7reserveEi;2A.;clear::(105,13):_ZN6MAUtil6VectorIPN8NativeUI17RatingBarListenerEE5clearEv;2A.;empty::(105,24)=#(105,1),(0,4),(105,23),(0,6);:_ZNK6MAUtil6VectorIPN8NativeUI17RatingBarListenerEE5emptyEv;2B.;capacity::(105,22):_ZNK6MAUtil6VectorIPN8NativeUI17RatingBarListenerEE8capacityEv;2B.;begin::(105,25)=#(105,1),(105,2),(105,6),(0,6);:_ZN6MAUtil6VectorIPN8NativeUI17RatingBarListenerEE5beginEv;2A.;end::(105,25):_ZN6MAUtil6VectorIPN8NativeUI17RatingBarListenerEE3endEv;2A.;begin::(105,26)=#(105,1),(105,8),(105,23),(0,6);:_ZNK6MAUtil6VectorIPN8NativeUI17RatingBarListenerEE5beginEv;2B.;end::(105,26):_ZNK6MAUtil6VectorIPN8NativeUI17RatingBarListenerEE3endEv;2B.;operator[]::(105,27)=#(105,1),(105,28)=&(105,3),(105,6),(0,3),(0,6);:_ZN6MAUtil6VectorIPN8NativeUI17RatingBarListenerEEixEi;2A.(105,29)=#(105,1),(105,17),(105,23),(0,3),(0,6);:_ZNK6MAUtil6VectorIPN8NativeUI17RatingBarListenerEEixEi;2B.;pointer::(105,26):_ZNK6MAUtil6VectorIPN8NativeUI17RatingBarListenerEE7pointerEv;2B.(105,25):_ZN6MAUtil6VectorIPN8NativeUI17RatingBarListenerEE7pointerEv;2A.;;",128,0,95,0
	.stabn	162,0,0,0
	.stabs	"/Applications/MoSync/include/NativeUI/RatingBarListener.h",130,0,0,0
	.stabn	162,0,0,0
	.stabs	"/Applications/MoSync/include/NativeUI/RelativeLayout.h",130,0,0,0
	.stabn	162,0,0,0
	.stabs	"/Applications/MoSync/include/NativeUI/ScreenListener.h",130,0,0,0
	.stabn	162,0,0,0
	.stabs	"/Applications/MoSync/include/NativeUI/SearchBar.h",130,0,0,0
	.stabs	"Vector<NativeUI::SearchBarListener*>:Tt(109,1)=s12mSize:/1(0,3),0,32;mCapacity:/1(0,3),32,32;mData:/1(109,2)=*(109,3)=*(109,4)=xsSearchBarListener:,64,32;__base_ctor::(109,5)=#(109,1),(0,6),(109,6)=*(109,1),(0,3),(0,6);:_ZN6MAUtil6VectorIPN8NativeUI17SearchBarListenerEEC2Ei;2A.;__comp_ctor::(109,5):_ZN6MAUtil6VectorIPN8NativeUI17SearchBarListenerEEC1Ei;2A.;__base_ctor::(109,7)=#(109,1),(0,6),(109,6),(109,8)=*(109,9)=k(109,3),(0,3),(0,6);:_ZN6MAUtil6VectorIPN8NativeUI17SearchBarListenerEEC2EPKS3_i;2A.;__comp_ctor::(109,7):_ZN6MAUtil6VectorIPN8NativeUI17SearchBarListenerEEC1EPKS3_i;2A.;__base_ctor::(109,10)=#(109,1),(0,6),(109,6),(109,11)=&(109,12)=k(109,1),(0,6);:_ZN6MAUtil6VectorIPN8NativeUI17SearchBarListenerEEC2ERKS4_;2A.;__comp_ctor::(109,10):_ZN6MAUtil6VectorIPN8NativeUI17SearchBarListenerEEC1ERKS4_;2A.;__base_dtor::(109,13)=#(109,1),(0,6),(109,6),(0,6);:_ZN6MAUtil6VectorIPN8NativeUI17SearchBarListenerEED2Ev;2A.;__comp_dtor::(109,13):_ZN6MAUtil6VectorIPN8NativeUI17SearchBarListenerEED1Ev;2A.;operator=::(109,14)=#(109,1),(109,15)=&(109,1),(109,6),(109,11),(0,6);:_ZN6MAUtil6VectorIPN8NativeUI17SearchBarListenerEEaSERKS4_;2A.;add::(109,16)=#(109,1),(0,6),(109,6),(109,17)=&(109,9),(0,6);:_ZN6MAUtil6VectorIPN8NativeUI17SearchBarListenerEE3addERKS3_;2A.(109,7):_ZN6MAUtil6VectorIPN8NativeUI17SearchBarListenerEE3addEPKS3_i;2A.;remove::(109,18)=#(109,1),(0,6),(109,6),(109,2),(0,6);:_ZN6MAUtil6VectorIPN8NativeUI17SearchBarListenerEE6removeEPS3_;2A.(109,19)=#(109,1),(0,6),(109,6),(0,3),(0,6);:_ZN6MAUtil6VectorIPN8NativeUI17SearchBarListenerEE6removeEi;2A.(109,20)=#(109,1),(0,6),(109,6),(0,3),(0,3),(0,6);:_ZN6MAUtil6VectorIPN8NativeUI17SearchBarListenerEE6removeEii;2A.;insert::(109,21)=#(109,1),(0,6),(109,6),(0,3),(109,3),(0,6);:_ZN6MAUtil6VectorIPN8NativeUI17SearchBarListenerEE6insertEiS3_;2A.;size::(109,22)=#(109,1),(0,3),(109,23)=*(109,12),(0,6);:_ZNK6MAUtil6VectorIPN8NativeUI17SearchBarListenerEE4sizeEv;2B.;resize::(109,19):_ZN6MAUtil6VectorIPN8NativeUI17SearchBarListenerEE6resizeEi;2A.;reserve::(109,19):_ZN6MAUtil6VectorIPN8NativeUI17SearchBarListenerEE7reserveEi;2A.;clear::(109,13):_ZN6MAUtil6VectorIPN8NativeUI17SearchBarListenerEE5clearEv;2A.;empty::(109,24)=#(109,1),(0,4),(109,23),(0,6);:_ZNK6MAUtil6VectorIPN8NativeUI17SearchBarListenerEE5emptyEv;2B.;capacity::(109,22):_ZNK6MAUtil6VectorIPN8NativeUI17SearchBarListenerEE8capacityEv;2B.;begin::(109,25)=#(109,1),(109,2),(109,6),(0,6);:_ZN6MAUtil6VectorIPN8NativeUI17SearchBarListenerEE5beginEv;2A.;end::(109,25):_ZN6MAUtil6VectorIPN8NativeUI17SearchBarListenerEE3endEv;2A.;begin::(109,26)=#(109,1),(109,8),(109,23),(0,6);:_ZNK6MAUtil6VectorIPN8NativeUI17SearchBarListenerEE5beginEv;2B.;end::(109,26):_ZNK6MAUtil6VectorIPN8NativeUI17SearchBarListenerEE3endEv;2B.;operator[]::(109,27)=#(109,1),(109,28)=&(109,3),(109,6),(0,3),(0,6);:_ZN6MAUtil6VectorIPN8NativeUI17SearchBarListenerEEixEi;2A.(109,29)=#(109,1),(109,17),(109,23),(0,3),(0,6);:_ZNK6MAUtil6VectorIPN8NativeUI17SearchBarListenerEEixEi;2B.;pointer::(109,26):_ZNK6MAUtil6VectorIPN8NativeUI17SearchBarListenerEE7pointerEv;2B.(109,25):_ZN6MAUtil6VectorIPN8NativeUI17SearchBarListenerEE7pointerEv;2A.;;",128,0,95,0
	.stabn	162,0,0,0
	.stabs	"/Applications/MoSync/include/NativeUI/SearchBarListener.h",130,0,0,0
	.stabn	162,0,0,0
	.stabs	"/Applications/MoSync/include/NativeUI/Slider.h",130,0,0,0
	.stabs	"Vector<NativeUI::SliderListener*>:Tt(111,1)=s12mSize:/1(0,3),0,32;mCapacity:/1(0,3),32,32;mData:/1(111,2)=*(111,3)=*(111,4)=xsSliderListener:,64,32;__base_ctor::(111,5)=#(111,1),(0,6),(111,6)=*(111,1),(0,3),(0,6);:_ZN6MAUtil6VectorIPN8NativeUI14SliderListenerEEC2Ei;2A.;__comp_ctor::(111,5):_ZN6MAUtil6VectorIPN8NativeUI14SliderListenerEEC1Ei;2A.;__base_ctor::(111,7)=#(111,1),(0,6),(111,6),(111,8)=*(111,9)=k(111,3),(0,3),(0,6);:_ZN6MAUtil6VectorIPN8NativeUI14SliderListenerEEC2EPKS3_i;2A.;__comp_ctor::(111,7):_ZN6MAUtil6VectorIPN8NativeUI14SliderListenerEEC1EPKS3_i;2A.;__base_ctor::(111,10)=#(111,1),(0,6),(111,6),(111,11)=&(111,12)=k(111,1),(0,6);:_ZN6MAUtil6VectorIPN8NativeUI14SliderListenerEEC2ERKS4_;2A.;__comp_ctor::(111,10):_ZN6MAUtil6VectorIPN8NativeUI14SliderListenerEEC1ERKS4_;2A.;__base_dtor::(111,13)=#(111,1),(0,6),(111,6),(0,6);:_ZN6MAUtil6VectorIPN8NativeUI14SliderListenerEED2Ev;2A.;__comp_dtor::(111,13):_ZN6MAUtil6VectorIPN8NativeUI14SliderListenerEED1Ev;2A.;operator=::(111,14)=#(111,1),(111,15)=&(111,1),(111,6),(111,11),(0,6);:_ZN6MAUtil6VectorIPN8NativeUI14SliderListenerEEaSERKS4_;2A.;add::(111,16)=#(111,1),(0,6),(111,6),(111,17)=&(111,9),(0,6);:_ZN6MAUtil6VectorIPN8NativeUI14SliderListenerEE3addERKS3_;2A.(111,7):_ZN6MAUtil6VectorIPN8NativeUI14SliderListenerEE3addEPKS3_i;2A.;remove::(111,18)=#(111,1),(0,6),(111,6),(111,2),(0,6);:_ZN6MAUtil6VectorIPN8NativeUI14SliderListenerEE6removeEPS3_;2A.(111,19)=#(111,1),(0,6),(111,6),(0,3),(0,6);:_ZN6MAUtil6VectorIPN8NativeUI14SliderListenerEE6removeEi;2A.(111,20)=#(111,1),(0,6),(111,6),(0,3),(0,3),(0,6);:_ZN6MAUtil6VectorIPN8NativeUI14SliderListenerEE6removeEii;2A.;insert::(111,21)=#(111,1),(0,6),(111,6),(0,3),(111,3),(0,6);:_ZN6MAUtil6VectorIPN8NativeUI14SliderListenerEE6insertEiS3_;2A.;size::(111,22)=#(111,1),(0,3),(111,23)=*(111,12),(0,6);:_ZNK6MAUtil6VectorIPN8NativeUI14SliderListenerEE4sizeEv;2B.;resize::(111,19):_ZN6MAUtil6VectorIPN8NativeUI14SliderListenerEE6resizeEi;2A.;reserve::(111,19):_ZN6MAUtil6VectorIPN8NativeUI14SliderListenerEE7reserveEi;2A.;clear::(111,13):_ZN6MAUtil6VectorIPN8NativeUI14SliderListenerEE5clearEv;2A.;empty::(111,24)=#(111,1),(0,4),(111,23),(0,6);:_ZNK6MAUtil6VectorIPN8NativeUI14SliderListenerEE5emptyEv;2B.;capacity::(111,22):_ZNK6MAUtil6VectorIPN8NativeUI14SliderListenerEE8capacityEv;2B.;begin::(111,25)=#(111,1),(111,2),(111,6),(0,6);:_ZN6MAUtil6VectorIPN8NativeUI14SliderListenerEE5beginEv;2A.;end::(111,25):_ZN6MAUtil6VectorIPN8NativeUI14SliderListenerEE3endEv;2A.;begin::(111,26)=#(111,1),(111,8),(111,23),(0,6);:_ZNK6MAUtil6VectorIPN8NativeUI14SliderListenerEE5beginEv;2B.;end::(111,26):_ZNK6MAUtil6VectorIPN8NativeUI14SliderListenerEE3endEv;2B.;operator[]::(111,27)=#(111,1),(111,28)=&(111,3),(111,6),(0,3),(0,6);:_ZN6MAUtil6VectorIPN8NativeUI14SliderListenerEEixEi;2A.(111,29)=#(111,1),(111,17),(111,23),(0,3),(0,6);:_ZNK6MAUtil6VectorIPN8NativeUI14SliderListenerEEixEi;2B.;pointer::(111,26):_ZNK6MAUtil6VectorIPN8NativeUI14SliderListenerEE7pointerEv;2B.(111,25):_ZN6MAUtil6VectorIPN8NativeUI14SliderListenerEE7pointerEv;2A.;;",128,0,95,0
	.stabn	162,0,0,0
	.stabs	"/Applications/MoSync/include/NativeUI/SliderListener.h",130,0,0,0
	.stabn	162,0,0,0
	.stabs	"/Applications/MoSync/include/NativeUI/StackScreen.h",130,0,0,0
	.stabs	"Vector<NativeUI::StackScreenListener*>:Tt(113,1)=s12mSize:/1(0,3),0,32;mCapacity:/1(0,3),32,32;mData:/1(113,2)=*(113,3)=*(113,4)=xsStackScreenListener:,64,32;__base_ctor::(113,5)=#(113,1),(0,6),(113,6)=*(113,1),(0,3),(0,6);:_ZN6MAUtil6VectorIPN8NativeUI19StackScreenListenerEEC2Ei;2A.;__comp_ctor::(113,5):_ZN6MAUtil6VectorIPN8NativeUI19StackScreenListenerEEC1Ei;2A.;__base_ctor::(113,7)=#(113,1),(0,6),(113,6),(113,8)=*(113,9)=k(113,3),(0,3),(0,6);:_ZN6MAUtil6VectorIPN8NativeUI19StackScreenListenerEEC2EPKS3_i;2A.;__comp_ctor::(113,7):_ZN6MAUtil6VectorIPN8NativeUI19StackScreenListenerEEC1EPKS3_i;2A.;__base_ctor::(113,10)=#(113,1),(0,6),(113,6),(113,11)=&(113,12)=k(113,1),(0,6);:_ZN6MAUtil6VectorIPN8NativeUI19StackScreenListenerEEC2ERKS4_;2A.;__comp_ctor::(113,10):_ZN6MAUtil6VectorIPN8NativeUI19StackScreenListenerEEC1ERKS4_;2A.;__base_dtor::(113,13)=#(113,1),(0,6),(113,6),(0,6);:_ZN6MAUtil6VectorIPN8NativeUI19StackScreenListenerEED2Ev;2A.;__comp_dtor::(113,13):_ZN6MAUtil6VectorIPN8NativeUI19StackScreenListenerEED1Ev;2A.;operator=::(113,14)=#(113,1),(113,15)=&(113,1),(113,6),(113,11),(0,6);:_ZN6MAUtil6VectorIPN8NativeUI19StackScreenListenerEEaSERKS4_;2A.;add::(113,16)=#(113,1),(0,6),(113,6),(113,17)=&(113,9),(0,6);:_ZN6MAUtil6VectorIPN8NativeUI19StackScreenListenerEE3addERKS3_;2A.(113,7):_ZN6MAUtil6VectorIPN8NativeUI19StackScreenListenerEE3addEPKS3_i;2A.;remove::(113,18)=#(113,1),(0,6),(113,6),(113,2),(0,6);:_ZN6MAUtil6VectorIPN8NativeUI19StackScreenListenerEE6removeEPS3_;2A.(113,19)=#(113,1),(0,6),(113,6),(0,3),(0,6);:_ZN6MAUtil6VectorIPN8NativeUI19StackScreenListenerEE6removeEi;2A.(113,20)=#(113,1),(0,6),(113,6),(0,3),(0,3),(0,6);:_ZN6MAUtil6VectorIPN8NativeUI19StackScreenListenerEE6removeEii;2A.;insert::(113,21)=#(113,1),(0,6),(113,6),(0,3),(113,3),(0,6);:_ZN6MAUtil6VectorIPN8NativeUI19StackScreenListenerEE6insertEiS3_;2A.;size::(113,22)=#(113,1),(0,3),(113,23)=*(113,12),(0,6);:_ZNK6MAUtil6VectorIPN8NativeUI19StackScreenListenerEE4sizeEv;2B.;resize::(113,19):_ZN6MAUtil6VectorIPN8NativeUI19StackScreenListenerEE6resizeEi;2A.;reserve::(113,19):_ZN6MAUtil6VectorIPN8NativeUI19StackScreenListenerEE7reserveEi;2A.;clear::(113,13):_ZN6MAUtil6VectorIPN8NativeUI19StackScreenListenerEE5clearEv;2A.;empty::(113,24)=#(113,1),(0,4),(113,23),(0,6);:_ZNK6MAUtil6VectorIPN8NativeUI19StackScreenListenerEE5emptyEv;2B.;capacity::(113,22):_ZNK6MAUtil6VectorIPN8NativeUI19StackScreenListenerEE8capacityEv;2B.;begin::(113,25)=#(113,1),(113,2),(113,6),(0,6);:_ZN6MAUtil6VectorIPN8NativeUI19StackScreenListenerEE5beginEv;2A.;end::(113,25):_ZN6MAUtil6VectorIPN8NativeUI19StackScreenListenerEE3endEv;2A.;begin::(113,26)=#(113,1),(113,8),(113,23),(0,6);:_ZNK6MAUtil6VectorIPN8NativeUI19StackScreenListenerEE5beginEv;2B.;end::(113,26):_ZNK6MAUtil6VectorIPN8NativeUI19StackScreenListenerEE3endEv;2B.;operator[]::(113,27)=#(113,1),(113,28)=&(113,3),(113,6),(0,3),(0,6);:_ZN6MAUtil6VectorIPN8NativeUI19StackScreenListenerEEixEi;2A.(113,29)=#(113,1),(113,17),(113,23),(0,3),(0,6);:_ZNK6MAUtil6VectorIPN8NativeUI19StackScreenListenerEEixEi;2B.;pointer::(113,26):_ZNK6MAUtil6VectorIPN8NativeUI19StackScreenListenerEE7pointerEv;2B.(113,25):_ZN6MAUtil6VectorIPN8NativeUI19StackScreenListenerEE7pointerEv;2A.;;",128,0,95,0
	.stabs	"Vector<NativeUI::Screen*>:Tt(113,30)=s12mSize:/1(0,3),0,32;mCapacity:/1(0,3),32,32;mData:/1(113,31)=*(113,32)=*(113,33)=xsScreen:,64,32;__base_ctor::(113,34)=#(113,30),(0,6),(113,35)=*(113,30),(0,3),(0,6);:_ZN6MAUtil6VectorIPN8NativeUI6ScreenEEC2Ei;2A.;__comp_ctor::(113,34):_ZN6MAUtil6VectorIPN8NativeUI6ScreenEEC1Ei;2A.;__base_ctor::(113,36)=#(113,30),(0,6),(113,35),(113,37)=*(113,38)=k(113,32),(0,3),(0,6);:_ZN6MAUtil6VectorIPN8NativeUI6ScreenEEC2EPKS3_i;2A.;__comp_ctor::(113,36):_ZN6MAUtil6VectorIPN8NativeUI6ScreenEEC1EPKS3_i;2A.;__base_ctor::(113,39)=#(113,30),(0,6),(113,35),(113,40)=&(113,41)=k(113,30),(0,6);:_ZN6MAUtil6VectorIPN8NativeUI6ScreenEEC2ERKS4_;2A.;__comp_ctor::(113,39):_ZN6MAUtil6VectorIPN8NativeUI6ScreenEEC1ERKS4_;2A.;__base_dtor::(113,42)=#(113,30),(0,6),(113,35),(0,6);:_ZN6MAUtil6VectorIPN8NativeUI6ScreenEED2Ev;2A.;__comp_dtor::(113,42):_ZN6MAUtil6VectorIPN8NativeUI6ScreenEED1Ev;2A.;operator=::(113,43)=#(113,30),(113,44)=&(113,30),(113,35),(113,40),(0,6);:_ZN6MAUtil6VectorIPN8NativeUI6ScreenEEaSERKS4_;2A.;add::(113,45)=#(113,30),(0,6),(113,35),(113,46)=&(113,38),(0,6);:_ZN6MAUtil6VectorIPN8NativeUI6ScreenEE3addERKS3_;2A.(113,36):_ZN6MAUtil6VectorIPN8NativeUI6ScreenEE3addEPKS3_i;2A.;remove::(113,47)=#(113,30),(0,6),(113,35),(113,31),(0,6);:_ZN6MAUtil6VectorIPN8NativeUI6ScreenEE6removeEPS3_;2A.(113,48)=#(113,30),(0,6),(113,35),(0,3),(0,6);:_ZN6MAUtil6VectorIPN8NativeUI6ScreenEE6removeEi;2A.(113,49)=#(113,30),(0,6),(113,35),(0,3),(0,3),(0,6);:_ZN6MAUtil6VectorIPN8NativeUI6ScreenEE6removeEii;2A.;insert::(113,50)=#(113,30),(0,6),(113,35),(0,3),(113,32),(0,6);:_ZN6MAUtil6VectorIPN8NativeUI6ScreenEE6insertEiS3_;2A.;size::(113,51)=#(113,30),(0,3),(113,52)=*(113,41),(0,6);:_ZNK6MAUtil6VectorIPN8NativeUI6ScreenEE4sizeEv;2B.;resize::(113,48):_ZN6MAUtil6VectorIPN8NativeUI6ScreenEE6resizeEi;2A.;reserve::(113,48):_ZN6MAUtil6VectorIPN8NativeUI6ScreenEE7reserveEi;2A.;clear::(113,42):_ZN6MAUtil6VectorIPN8NativeUI6ScreenEE5clearEv;2A.;empty::(113,53)=#(113,30),(0,4),(113,52),(0,6);:_ZNK6MAUtil6VectorIPN8NativeUI6ScreenEE5emptyEv;2B.;capacity::(113,51):_ZNK6MAUtil6VectorIPN8NativeUI6ScreenEE8capacityEv;2B.;begin::(113,54)=#(113,30),(113,31),(113,35),(0,6);:_ZN6MAUtil6VectorIPN8NativeUI6ScreenEE5beginEv;2A.;end::(113,54):_ZN6MAUtil6VectorIPN8NativeUI6ScreenEE3endEv;2A.;begin::(113,55)=#(113,30),(113,37),(113,52),(0,6);:_ZNK6MAUtil6VectorIPN8NativeUI6ScreenEE5beginEv;2B.;end::(113,55):_ZNK6MAUtil6VectorIPN8NativeUI6ScreenEE3endEv;2B.;operator[]::(113,56)=#(113,30),(113,57)=&(113,32),(113,35),(0,3),(0,6);:_ZN6MAUtil6VectorIPN8NativeUI6ScreenEEixEi;2A.(113,58)=#(113,30),(113,46),(113,52),(0,3),(0,6);:_ZNK6MAUtil6VectorIPN8NativeUI6ScreenEEixEi;2B.;pointer::(113,55):_ZNK6MAUtil6VectorIPN8NativeUI6ScreenEE7pointerEv;2B.(113,54):_ZN6MAUtil6VectorIPN8NativeUI6ScreenEE7pointerEv;2A.;;",128,0,95,0
	.stabn	162,0,0,0
	.stabs	"/Applications/MoSync/include/NativeUI/StackScreenListener.h",130,0,0,0
	.stabn	162,0,0,0
	.stabs	"/Applications/MoSync/include/NativeUI/TabScreen.h",130,0,0,0
	.stabs	"Vector<NativeUI::TabScreenListener*>:Tt(115,1)=s12mSize:/1(0,3),0,32;mCapacity:/1(0,3),32,32;mData:/1(115,2)=*(115,3)=*(115,4)=xsTabScreenListener:,64,32;__base_ctor::(115,5)=#(115,1),(0,6),(115,6)=*(115,1),(0,3),(0,6);:_ZN6MAUtil6VectorIPN8NativeUI17TabScreenListenerEEC2Ei;2A.;__comp_ctor::(115,5):_ZN6MAUtil6VectorIPN8NativeUI17TabScreenListenerEEC1Ei;2A.;__base_ctor::(115,7)=#(115,1),(0,6),(115,6),(115,8)=*(115,9)=k(115,3),(0,3),(0,6);:_ZN6MAUtil6VectorIPN8NativeUI17TabScreenListenerEEC2EPKS3_i;2A.;__comp_ctor::(115,7):_ZN6MAUtil6VectorIPN8NativeUI17TabScreenListenerEEC1EPKS3_i;2A.;__base_ctor::(115,10)=#(115,1),(0,6),(115,6),(115,11)=&(115,12)=k(115,1),(0,6);:_ZN6MAUtil6VectorIPN8NativeUI17TabScreenListenerEEC2ERKS4_;2A.;__comp_ctor::(115,10):_ZN6MAUtil6VectorIPN8NativeUI17TabScreenListenerEEC1ERKS4_;2A.;__base_dtor::(115,13)=#(115,1),(0,6),(115,6),(0,6);:_ZN6MAUtil6VectorIPN8NativeUI17TabScreenListenerEED2Ev;2A.;__comp_dtor::(115,13):_ZN6MAUtil6VectorIPN8NativeUI17TabScreenListenerEED1Ev;2A.;operator=::(115,14)=#(115,1),(115,15)=&(115,1),(115,6),(115,11),(0,6);:_ZN6MAUtil6VectorIPN8NativeUI17TabScreenListenerEEaSERKS4_;2A.;add::(115,16)=#(115,1),(0,6),(115,6),(115,17)=&(115,9),(0,6);:_ZN6MAUtil6VectorIPN8NativeUI17TabScreenListenerEE3addERKS3_;2A.(115,7):_ZN6MAUtil6VectorIPN8NativeUI17TabScreenListenerEE3addEPKS3_i;2A.;remove::(115,18)=#(115,1),(0,6),(115,6),(115,2),(0,6);:_ZN6MAUtil6VectorIPN8NativeUI17TabScreenListenerEE6removeEPS3_;2A.(115,19)=#(115,1),(0,6),(115,6),(0,3),(0,6);:_ZN6MAUtil6VectorIPN8NativeUI17TabScreenListenerEE6removeEi;2A.(115,20)=#(115,1),(0,6),(115,6),(0,3),(0,3),(0,6);:_ZN6MAUtil6VectorIPN8NativeUI17TabScreenListenerEE6removeEii;2A.;insert::(115,21)=#(115,1),(0,6),(115,6),(0,3),(115,3),(0,6);:_ZN6MAUtil6VectorIPN8NativeUI17TabScreenListenerEE6insertEiS3_;2A.;size::(115,22)=#(115,1),(0,3),(115,23)=*(115,12),(0,6);:_ZNK6MAUtil6VectorIPN8NativeUI17TabScreenListenerEE4sizeEv;2B.;resize::(115,19):_ZN6MAUtil6VectorIPN8NativeUI17TabScreenListenerEE6resizeEi;2A.;reserve::(115,19):_ZN6MAUtil6VectorIPN8NativeUI17TabScreenListenerEE7reserveEi;2A.;clear::(115,13):_ZN6MAUtil6VectorIPN8NativeUI17TabScreenListenerEE5clearEv;2A.;empty::(115,24)=#(115,1),(0,4),(115,23),(0,6);:_ZNK6MAUtil6VectorIPN8NativeUI17TabScreenListenerEE5emptyEv;2B.;capacity::(115,22):_ZNK6MAUtil6VectorIPN8NativeUI17TabScreenListenerEE8capacityEv;2B.;begin::(115,25)=#(115,1),(115,2),(115,6),(0,6);:_ZN6MAUtil6VectorIPN8NativeUI17TabScreenListenerEE5beginEv;2A.;end::(115,25):_ZN6MAUtil6VectorIPN8NativeUI17TabScreenListenerEE3endEv;2A.;begin::(115,26)=#(115,1),(115,8),(115,23),(0,6);:_ZNK6MAUtil6VectorIPN8NativeUI17TabScreenListenerEE5beginEv;2B.;end::(115,26):_ZNK6MAUtil6VectorIPN8NativeUI17TabScreenListenerEE3endEv;2B.;operator[]::(115,27)=#(115,1),(115,28)=&(115,3),(115,6),(0,3),(0,6);:_ZN6MAUtil6VectorIPN8NativeUI17TabScreenListenerEEixEi;2A.(115,29)=#(115,1),(115,17),(115,23),(0,3),(0,6);:_ZNK6MAUtil6VectorIPN8NativeUI17TabScreenListenerEEixEi;2B.;pointer::(115,26):_ZNK6MAUtil6VectorIPN8NativeUI17TabScreenListenerEE7pointerEv;2B.(115,25):_ZN6MAUtil6VectorIPN8NativeUI17TabScreenListenerEE7pointerEv;2A.;;",128,0,95,0
	.stabn	162,0,0,0
	.stabs	"/Applications/MoSync/include/NativeUI/TabScreenListener.h",130,0,0,0
	.stabn	162,0,0,0
	.stabs	"/Applications/MoSync/include/NativeUI/TimePicker.h",130,0,0,0
	.stabs	"Vector<NativeUI::TimePickerListener*>:Tt(117,1)=s12mSize:/1(0,3),0,32;mCapacity:/1(0,3),32,32;mData:/1(117,2)=*(117,3)=*(117,4)=xsTimePickerListener:,64,32;__base_ctor::(117,5)=#(117,1),(0,6),(117,6)=*(117,1),(0,3),(0,6);:_ZN6MAUtil6VectorIPN8NativeUI18TimePickerListenerEEC2Ei;2A.;__comp_ctor::(117,5):_ZN6MAUtil6VectorIPN8NativeUI18TimePickerListenerEEC1Ei;2A.;__base_ctor::(117,7)=#(117,1),(0,6),(117,6),(117,8)=*(117,9)=k(117,3),(0,3),(0,6);:_ZN6MAUtil6VectorIPN8NativeUI18TimePickerListenerEEC2EPKS3_i;2A.;__comp_ctor::(117,7):_ZN6MAUtil6VectorIPN8NativeUI18TimePickerListenerEEC1EPKS3_i;2A.;__base_ctor::(117,10)=#(117,1),(0,6),(117,6),(117,11)=&(117,12)=k(117,1),(0,6);:_ZN6MAUtil6VectorIPN8NativeUI18TimePickerListenerEEC2ERKS4_;2A.;__comp_ctor::(117,10):_ZN6MAUtil6VectorIPN8NativeUI18TimePickerListenerEEC1ERKS4_;2A.;__base_dtor::(117,13)=#(117,1),(0,6),(117,6),(0,6);:_ZN6MAUtil6VectorIPN8NativeUI18TimePickerListenerEED2Ev;2A.;__comp_dtor::(117,13):_ZN6MAUtil6VectorIPN8NativeUI18TimePickerListenerEED1Ev;2A.;operator=::(117,14)=#(117,1),(117,15)=&(117,1),(117,6),(117,11),(0,6);:_ZN6MAUtil6VectorIPN8NativeUI18TimePickerListenerEEaSERKS4_;2A.;add::(117,16)=#(117,1),(0,6),(117,6),(117,17)=&(117,9),(0,6);:_ZN6MAUtil6VectorIPN8NativeUI18TimePickerListenerEE3addERKS3_;2A.(117,7):_ZN6MAUtil6VectorIPN8NativeUI18TimePickerListenerEE3addEPKS3_i;2A.;remove::(117,18)=#(117,1),(0,6),(117,6),(117,2),(0,6);:_ZN6MAUtil6VectorIPN8NativeUI18TimePickerListenerEE6removeEPS3_;2A.(117,19)=#(117,1),(0,6),(117,6),(0,3),(0,6);:_ZN6MAUtil6VectorIPN8NativeUI18TimePickerListenerEE6removeEi;2A.(117,20)=#(117,1),(0,6),(117,6),(0,3),(0,3),(0,6);:_ZN6MAUtil6VectorIPN8NativeUI18TimePickerListenerEE6removeEii;2A.;insert::(117,21)=#(117,1),(0,6),(117,6),(0,3),(117,3),(0,6);:_ZN6MAUtil6VectorIPN8NativeUI18TimePickerListenerEE6insertEiS3_;2A.;size::(117,22)=#(117,1),(0,3),(117,23)=*(117,12),(0,6);:_ZNK6MAUtil6VectorIPN8NativeUI18TimePickerListenerEE4sizeEv;2B.;resize::(117,19):_ZN6MAUtil6VectorIPN8NativeUI18TimePickerListenerEE6resizeEi;2A.;reserve::(117,19):_ZN6MAUtil6VectorIPN8NativeUI18TimePickerListenerEE7reserveEi;2A.;clear::(117,13):_ZN6MAUtil6VectorIPN8NativeUI18TimePickerListenerEE5clearEv;2A.;empty::(117,24)=#(117,1),(0,4),(117,23),(0,6);:_ZNK6MAUtil6VectorIPN8NativeUI18TimePickerListenerEE5emptyEv;2B.;capacity::(117,22):_ZNK6MAUtil6VectorIPN8NativeUI18TimePickerListenerEE8capacityEv;2B.;begin::(117,25)=#(117,1),(117,2),(117,6),(0,6);:_ZN6MAUtil6VectorIPN8NativeUI18TimePickerListenerEE5beginEv;2A.;end::(117,25):_ZN6MAUtil6VectorIPN8NativeUI18TimePickerListenerEE3endEv;2A.;begin::(117,26)=#(117,1),(117,8),(117,23),(0,6);:_ZNK6MAUtil6VectorIPN8NativeUI18TimePickerListenerEE5beginEv;2B.;end::(117,26):_ZNK6MAUtil6VectorIPN8NativeUI18TimePickerListenerEE3endEv;2B.;operator[]::(117,27)=#(117,1),(117,28)=&(117,3),(117,6),(0,3),(0,6);:_ZN6MAUtil6VectorIPN8NativeUI18TimePickerListenerEEixEi;2A.(117,29)=#(117,1),(117,17),(117,23),(0,3),(0,6);:_ZNK6MAUtil6VectorIPN8NativeUI18TimePickerListenerEEixEi;2B.;pointer::(117,26):_ZNK6MAUtil6VectorIPN8NativeUI18TimePickerListenerEE7pointerEv;2B.(117,25):_ZN6MAUtil6VectorIPN8NativeUI18TimePickerListenerEE7pointerEv;2A.;;",128,0,95,0
	.stabn	162,0,0,0
	.stabs	"/Applications/MoSync/include/NativeUI/TimePickerListener.h",130,0,0,0
	.stabn	162,0,0,0
	.stabs	"/Applications/MoSync/include/NativeUI/ToggleButton.h",130,0,0,0
	.stabs	"Vector<NativeUI::ToggleButtonListener*>:Tt(119,1)=s12mSize:/1(0,3),0,32;mCapacity:/1(0,3),32,32;mData:/1(119,2)=*(119,3)=*(119,4)=xsToggleButtonListener:,64,32;__base_ctor::(119,5)=#(119,1),(0,6),(119,6)=*(119,1),(0,3),(0,6);:_ZN6MAUtil6VectorIPN8NativeUI20ToggleButtonListenerEEC2Ei;2A.;__comp_ctor::(119,5):_ZN6MAUtil6VectorIPN8NativeUI20ToggleButtonListenerEEC1Ei;2A.;__base_ctor::(119,7)=#(119,1),(0,6),(119,6),(119,8)=*(119,9)=k(119,3),(0,3),(0,6);:_ZN6MAUtil6VectorIPN8NativeUI20ToggleButtonListenerEEC2EPKS3_i;2A.;__comp_ctor::(119,7):_ZN6MAUtil6VectorIPN8NativeUI20ToggleButtonListenerEEC1EPKS3_i;2A.;__base_ctor::(119,10)=#(119,1),(0,6),(119,6),(119,11)=&(119,12)=k(119,1),(0,6);:_ZN6MAUtil6VectorIPN8NativeUI20ToggleButtonListenerEEC2ERKS4_;2A.;__comp_ctor::(119,10):_ZN6MAUtil6VectorIPN8NativeUI20ToggleButtonListenerEEC1ERKS4_;2A.;__base_dtor::(119,13)=#(119,1),(0,6),(119,6),(0,6);:_ZN6MAUtil6VectorIPN8NativeUI20ToggleButtonListenerEED2Ev;2A.;__comp_dtor::(119,13):_ZN6MAUtil6VectorIPN8NativeUI20ToggleButtonListenerEED1Ev;2A.;operator=::(119,14)=#(119,1),(119,15)=&(119,1),(119,6),(119,11),(0,6);:_ZN6MAUtil6VectorIPN8NativeUI20ToggleButtonListenerEEaSERKS4_;2A.;add::(119,16)=#(119,1),(0,6),(119,6),(119,17)=&(119,9),(0,6);:_ZN6MAUtil6VectorIPN8NativeUI20ToggleButtonListenerEE3addERKS3_;2A.(119,7):_ZN6MAUtil6VectorIPN8NativeUI20ToggleButtonListenerEE3addEPKS3_i;2A.;remove::(119,18)=#(119,1),(0,6),(119,6),(119,2),(0,6);:_ZN6MAUtil6VectorIPN8NativeUI20ToggleButtonListenerEE6removeEPS3_;2A.(119,19)=#(119,1),(0,6),(119,6),(0,3),(0,6);:_ZN6MAUtil6VectorIPN8NativeUI20ToggleButtonListenerEE6removeEi;2A.(119,20)=#(119,1),(0,6),(119,6),(0,3),(0,3),(0,6);:_ZN6MAUtil6VectorIPN8NativeUI20ToggleButtonListenerEE6removeEii;2A.;insert::(119,21)=#(119,1),(0,6),(119,6),(0,3),(119,3),(0,6);:_ZN6MAUtil6VectorIPN8NativeUI20ToggleButtonListenerEE6insertEiS3_;2A.;size::(119,22)=#(119,1),(0,3),(119,23)=*(119,12),(0,6);:_ZNK6MAUtil6VectorIPN8NativeUI20ToggleButtonListenerEE4sizeEv;2B.;resize::(119,19):_ZN6MAUtil6VectorIPN8NativeUI20ToggleButtonListenerEE6resizeEi;2A.;reserve::(119,19):_ZN6MAUtil6VectorIPN8NativeUI20ToggleButtonListenerEE7reserveEi;2A.;clear::(119,13):_ZN6MAUtil6VectorIPN8NativeUI20ToggleButtonListenerEE5clearEv;2A.;empty::(119,24)=#(119,1),(0,4),(119,23),(0,6);:_ZNK6MAUtil6VectorIPN8NativeUI20ToggleButtonListenerEE5emptyEv;2B.;capacity::(119,22):_ZNK6MAUtil6VectorIPN8NativeUI20ToggleButtonListenerEE8capacityEv;2B.;begin::(119,25)=#(119,1),(119,2),(119,6),(0,6);:_ZN6MAUtil6VectorIPN8NativeUI20ToggleButtonListenerEE5beginEv;2A.;end::(119,25):_ZN6MAUtil6VectorIPN8NativeUI20ToggleButtonListenerEE3endEv;2A.;begin::(119,26)=#(119,1),(119,8),(119,23),(0,6);:_ZNK6MAUtil6VectorIPN8NativeUI20ToggleButtonListenerEE5beginEv;2B.;end::(119,26):_ZNK6MAUtil6VectorIPN8NativeUI20ToggleButtonListenerEE3endEv;2B.;operator[]::(119,27)=#(119,1),(119,28)=&(119,3),(119,6),(0,3),(0,6);:_ZN6MAUtil6VectorIPN8NativeUI20ToggleButtonListenerEEixEi;2A.(119,29)=#(119,1),(119,17),(119,23),(0,3),(0,6);:_ZNK6MAUtil6VectorIPN8NativeUI20ToggleButtonListenerEEixEi;2B.;pointer::(119,26):_ZNK6MAUtil6VectorIPN8NativeUI20ToggleButtonListenerEE7pointerEv;2B.(119,25):_ZN6MAUtil6VectorIPN8NativeUI20ToggleButtonListenerEE7pointerEv;2A.;;",128,0,95,0
	.stabn	162,0,0,0
	.stabs	"/Applications/MoSync/include/NativeUI/ToggleButtonListener.h",130,0,0,0
	.stabn	162,0,0,0
	.stabs	"/Applications/MoSync/include/NativeUI/VerticalLayout.h",130,0,0,0
	.stabn	162,0,0,0
	.stabs	"/Applications/MoSync/include/NativeUI/VideoView.h",130,0,0,0
	.stabs	"Vector<NativeUI::VideoViewListener*>:Tt(122,1)=s12mSize:/1(0,3),0,32;mCapacity:/1(0,3),32,32;mData:/1(122,2)=*(122,3)=*(122,4)=xsVideoViewListener:,64,32;__base_ctor::(122,5)=#(122,1),(0,6),(122,6)=*(122,1),(0,3),(0,6);:_ZN6MAUtil6VectorIPN8NativeUI17VideoViewListenerEEC2Ei;2A.;__comp_ctor::(122,5):_ZN6MAUtil6VectorIPN8NativeUI17VideoViewListenerEEC1Ei;2A.;__base_ctor::(122,7)=#(122,1),(0,6),(122,6),(122,8)=*(122,9)=k(122,3),(0,3),(0,6);:_ZN6MAUtil6VectorIPN8NativeUI17VideoViewListenerEEC2EPKS3_i;2A.;__comp_ctor::(122,7):_ZN6MAUtil6VectorIPN8NativeUI17VideoViewListenerEEC1EPKS3_i;2A.;__base_ctor::(122,10)=#(122,1),(0,6),(122,6),(122,11)=&(122,12)=k(122,1),(0,6);:_ZN6MAUtil6VectorIPN8NativeUI17VideoViewListenerEEC2ERKS4_;2A.;__comp_ctor::(122,10):_ZN6MAUtil6VectorIPN8NativeUI17VideoViewListenerEEC1ERKS4_;2A.;__base_dtor::(122,13)=#(122,1),(0,6),(122,6),(0,6);:_ZN6MAUtil6VectorIPN8NativeUI17VideoViewListenerEED2Ev;2A.;__comp_dtor::(122,13):_ZN6MAUtil6VectorIPN8NativeUI17VideoViewListenerEED1Ev;2A.;operator=::(122,14)=#(122,1),(122,15)=&(122,1),(122,6),(122,11),(0,6);:_ZN6MAUtil6VectorIPN8NativeUI17VideoViewListenerEEaSERKS4_;2A.;add::(122,16)=#(122,1),(0,6),(122,6),(122,17)=&(122,9),(0,6);:_ZN6MAUtil6VectorIPN8NativeUI17VideoViewListenerEE3addERKS3_;2A.(122,7):_ZN6MAUtil6VectorIPN8NativeUI17VideoViewListenerEE3addEPKS3_i;2A.;remove::(122,18)=#(122,1),(0,6),(122,6),(122,2),(0,6);:_ZN6MAUtil6VectorIPN8NativeUI17VideoViewListenerEE6removeEPS3_;2A.(122,19)=#(122,1),(0,6),(122,6),(0,3),(0,6);:_ZN6MAUtil6VectorIPN8NativeUI17VideoViewListenerEE6removeEi;2A.(122,20)=#(122,1),(0,6),(122,6),(0,3),(0,3),(0,6);:_ZN6MAUtil6VectorIPN8NativeUI17VideoViewListenerEE6removeEii;2A.;insert::(122,21)=#(122,1),(0,6),(122,6),(0,3),(122,3),(0,6);:_ZN6MAUtil6VectorIPN8NativeUI17VideoViewListenerEE6insertEiS3_;2A.;size::(122,22)=#(122,1),(0,3),(122,23)=*(122,12),(0,6);:_ZNK6MAUtil6VectorIPN8NativeUI17VideoViewListenerEE4sizeEv;2B.;resize::(122,19):_ZN6MAUtil6VectorIPN8NativeUI17VideoViewListenerEE6resizeEi;2A.;reserve::(122,19):_ZN6MAUtil6VectorIPN8NativeUI17VideoViewListenerEE7reserveEi;2A.;clear::(122,13):_ZN6MAUtil6VectorIPN8NativeUI17VideoViewListenerEE5clearEv;2A.;empty::(122,24)=#(122,1),(0,4),(122,23),(0,6);:_ZNK6MAUtil6VectorIPN8NativeUI17VideoViewListenerEE5emptyEv;2B.;capacity::(122,22):_ZNK6MAUtil6VectorIPN8NativeUI17VideoViewListenerEE8capacityEv;2B.;begin::(122,25)=#(122,1),(122,2),(122,6),(0,6);:_ZN6MAUtil6VectorIPN8NativeUI17VideoViewListenerEE5beginEv;2A.;end::(122,25):_ZN6MAUtil6VectorIPN8NativeUI17VideoViewListenerEE3endEv;2A.;begin::(122,26)=#(122,1),(122,8),(122,23),(0,6);:_ZNK6MAUtil6VectorIPN8NativeUI17VideoViewListenerEE5beginEv;2B.;end::(122,26):_ZNK6MAUtil6VectorIPN8NativeUI17VideoViewListenerEE3endEv;2B.;operator[]::(122,27)=#(122,1),(122,28)=&(122,3),(122,6),(0,3),(0,6);:_ZN6MAUtil6VectorIPN8NativeUI17VideoViewListenerEEixEi;2A.(122,29)=#(122,1),(122,17),(122,23),(0,3),(0,6);:_ZNK6MAUtil6VectorIPN8NativeUI17VideoViewListenerEEixEi;2B.;pointer::(122,26):_ZNK6MAUtil6VectorIPN8NativeUI17VideoViewListenerEE7pointerEv;2B.(122,25):_ZN6MAUtil6VectorIPN8NativeUI17VideoViewListenerEE7pointerEv;2A.;;",128,0,95,0
	.stabn	162,0,0,0
	.stabs	"/Applications/MoSync/include/NativeUI/VideoViewListener.h",130,0,0,0
	.stabn	162,0,0,0
	.stabs	"/Applications/MoSync/include/NativeUI/WebView.h",130,0,0,0
	.stabs	"Vector<NativeUI::WebViewListener*>:Tt(124,1)=s12mSize:/1(0,3),0,32;mCapacity:/1(0,3),32,32;mData:/1(124,2)=*(124,3)=*(124,4)=xsWebViewListener:,64,32;__base_ctor::(124,5)=#(124,1),(0,6),(124,6)=*(124,1),(0,3),(0,6);:_ZN6MAUtil6VectorIPN8NativeUI15WebViewListenerEEC2Ei;2A.;__comp_ctor::(124,5):_ZN6MAUtil6VectorIPN8NativeUI15WebViewListenerEEC1Ei;2A.;__base_ctor::(124,7)=#(124,1),(0,6),(124,6),(124,8)=*(124,9)=k(124,3),(0,3),(0,6);:_ZN6MAUtil6VectorIPN8NativeUI15WebViewListenerEEC2EPKS3_i;2A.;__comp_ctor::(124,7):_ZN6MAUtil6VectorIPN8NativeUI15WebViewListenerEEC1EPKS3_i;2A.;__base_ctor::(124,10)=#(124,1),(0,6),(124,6),(124,11)=&(124,12)=k(124,1),(0,6);:_ZN6MAUtil6VectorIPN8NativeUI15WebViewListenerEEC2ERKS4_;2A.;__comp_ctor::(124,10):_ZN6MAUtil6VectorIPN8NativeUI15WebViewListenerEEC1ERKS4_;2A.;__base_dtor::(124,13)=#(124,1),(0,6),(124,6),(0,6);:_ZN6MAUtil6VectorIPN8NativeUI15WebViewListenerEED2Ev;2A.;__comp_dtor::(124,13):_ZN6MAUtil6VectorIPN8NativeUI15WebViewListenerEED1Ev;2A.;operator=::(124,14)=#(124,1),(124,15)=&(124,1),(124,6),(124,11),(0,6);:_ZN6MAUtil6VectorIPN8NativeUI15WebViewListenerEEaSERKS4_;2A.;add::(124,16)=#(124,1),(0,6),(124,6),(124,17)=&(124,9),(0,6);:_ZN6MAUtil6VectorIPN8NativeUI15WebViewListenerEE3addERKS3_;2A.(124,7):_ZN6MAUtil6VectorIPN8NativeUI15WebViewListenerEE3addEPKS3_i;2A.;remove::(124,18)=#(124,1),(0,6),(124,6),(124,2),(0,6);:_ZN6MAUtil6VectorIPN8NativeUI15WebViewListenerEE6removeEPS3_;2A.(124,19)=#(124,1),(0,6),(124,6),(0,3),(0,6);:_ZN6MAUtil6VectorIPN8NativeUI15WebViewListenerEE6removeEi;2A.(124,20)=#(124,1),(0,6),(124,6),(0,3),(0,3),(0,6);:_ZN6MAUtil6VectorIPN8NativeUI15WebViewListenerEE6removeEii;2A.;insert::(124,21)=#(124,1),(0,6),(124,6),(0,3),(124,3),(0,6);:_ZN6MAUtil6VectorIPN8NativeUI15WebViewListenerEE6insertEiS3_;2A.;size::(124,22)=#(124,1),(0,3),(124,23)=*(124,12),(0,6);:_ZNK6MAUtil6VectorIPN8NativeUI15WebViewListenerEE4sizeEv;2B.;resize::(124,19):_ZN6MAUtil6VectorIPN8NativeUI15WebViewListenerEE6resizeEi;2A.;reserve::(124,19):_ZN6MAUtil6VectorIPN8NativeUI15WebViewListenerEE7reserveEi;2A.;clear::(124,13):_ZN6MAUtil6VectorIPN8NativeUI15WebViewListenerEE5clearEv;2A.;empty::(124,24)=#(124,1),(0,4),(124,23),(0,6);:_ZNK6MAUtil6VectorIPN8NativeUI15WebViewListenerEE5emptyEv;2B.;capacity::(124,22):_ZNK6MAUtil6VectorIPN8NativeUI15WebViewListenerEE8capacityEv;2B.;begin::(124,25)=#(124,1),(124,2),(124,6),(0,6);:_ZN6MAUtil6VectorIPN8NativeUI15WebViewListenerEE5beginEv;2A.;end::(124,25):_ZN6MAUtil6VectorIPN8NativeUI15WebViewListenerEE3endEv;2A.;begin::(124,26)=#(124,1),(124,8),(124,23),(0,6);:_ZNK6MAUtil6VectorIPN8NativeUI15WebViewListenerEE5beginEv;2B.;end::(124,26):_ZNK6MAUtil6VectorIPN8NativeUI15WebViewListenerEE3endEv;2B.;operator[]::(124,27)=#(124,1),(124,28)=&(124,3),(124,6),(0,3),(0,6);:_ZN6MAUtil6VectorIPN8NativeUI15WebViewListenerEEixEi;2A.(124,29)=#(124,1),(124,17),(124,23),(0,3),(0,6);:_ZNK6MAUtil6VectorIPN8NativeUI15WebViewListenerEEixEi;2B.;pointer::(124,26):_ZNK6MAUtil6VectorIPN8NativeUI15WebViewListenerEE7pointerEv;2B.(124,25):_ZN6MAUtil6VectorIPN8NativeUI15WebViewListenerEE7pointerEv;2A.;;",128,0,95,0
	.stabn	162,0,0,0
	.stabs	"/Applications/MoSync/include/NativeUI/WebViewListener.h",130,0,0,0
	.stabn	162,0,0,0
	.stabs	"/Applications/MoSync/include/NativeUI/WidgetManager.h",130,0,0,0
	.stabs	"/Applications/MoSync/include/NativeUI/WidgetEventListener.h",130,0,0,0
	.stabn	162,0,0,0
	.stabs	"Dictionary<const MAHandle,MAUtil::Pair<const MAHandle, NativeUI::Widget*> >:Tt(126,1)=s56mDict:/1(58,30),0,416;mKeyOffset:/1(0,3),416,32;__base_ctor::(126,2)=#(126,1),(0,6),(126,3)=*(126,1),(126,4)=&(126,5)=k(126,1),(0,6);:_ZN6MAUtil10DictionaryIKiNS_4PairIS1_PN8NativeUI6WidgetEEEEC2ERKS7_;2A.;__comp_ctor::(126,2):_ZN6MAUtil10DictionaryIKiNS_4PairIS1_PN8NativeUI6WidgetEEEEC1ERKS7_;2A.;operator=::(126,6)=#(126,1),(126,7)=&(126,1),(126,3),(126,4),(0,6);:_ZN6MAUtil10DictionaryIKiNS_4PairIS1_PN8NativeUI6WidgetEEEEaSERKS7_;2A.;__base_dtor::(126,8)=#(126,1),(0,6),(126,3),(0,6);:_ZN6MAUtil10DictionaryIKiNS_4PairIS1_PN8NativeUI6WidgetEEEED2Ev;2A.;__comp_dtor::(126,8):_ZN6MAUtil10DictionaryIKiNS_4PairIS1_PN8NativeUI6WidgetEEEED1Ev;2A.;find::(126,9)=#(126,1),(126,10)=xsIterator:,(126,3),(126,11)=&(126,12)=k(45,5),(0,6);:_ZN6MAUtil10DictionaryIKiNS_4PairIS1_PN8NativeUI6WidgetEEEE4findERS1_;2A.(126,13)=#(126,1),(126,14)=xsConstIterator:,(126,15)=*(126,5),(126,11),(0,6);:_ZNK6MAUtil10DictionaryIKiNS_4PairIS1_PN8NativeUI6WidgetEEEE4findERS1_;2B.;erase::(126,16)=#(126,1),(0,4),(126,3),(126,11),(0,6);:_ZN6MAUtil10DictionaryIKiNS_4PairIS1_PN8NativeUI6WidgetEEEE5eraseERS1_;2A.(126,17)=#(126,1),(0,6),(126,3),(126,10),(0,6);:_ZN6MAUtil10DictionaryIKiNS_4PairIS1_PN8NativeUI6WidgetEEEE5eraseENS7_8IteratorE;2A.;begin::(126,18)=#(126,1),(126,10),(126,3),(0,6);:_ZN6MAUtil10DictionaryIKiNS_4PairIS1_PN8NativeUI6WidgetEEEE5beginEv;2A.(126,19)=#(126,1),(126,14),(126,15),(0,6);:_ZNK6MAUtil10DictionaryIKiNS_4PairIS1_PN8NativeUI6WidgetEEEE5beginEv;2B.;end::(126,18):_ZN6MAUtil10DictionaryIKiNS_4PairIS1_PN8NativeUI6WidgetEEEE3endEv;2A.(126,19):_ZNK6MAUtil10DictionaryIKiNS_4PairIS1_PN8NativeUI6WidgetEEEE3endEv;2B.;size::(126,20)=#(126,1),(7,2),(126,15),(0,6);:_ZNK6MAUtil10DictionaryIKiNS_4PairIS1_PN8NativeUI6WidgetEEEE4sizeEv;2B.;clear::(126,8):_ZN6MAUtil10DictionaryIKiNS_4PairIS1_PN8NativeUI6WidgetEEEE5clearEv;2A.;init::(126,21)=#(126,1),(0,6),(126,3),(126,22)=*(126,23)=f(0,3),(0,6);:_ZN6MAUtil10DictionaryIKiNS_4PairIS1_PN8NativeUI6WidgetEEEE4initEPFiRS1_S8_E;1A.;alloc::(58,17):_ZN6MAUtil10DictionaryIKiNS_4PairIS1_PN8NativeUI6WidgetEEEE5allocEPv;1A?;free::(58,21):_ZN6MAUtil10DictionaryIKiNS_4PairIS1_PN8NativeUI6WidgetEEEE4freeEP7dnode_tPv;1A?;__base_ctor::(126,24)=#(126,1),(0,6),(126,3),(126,22),(0,3),(0,6);:_ZN6MAUtil10DictionaryIKiNS_4PairIS1_PN8NativeUI6WidgetEEEEC2EPFiRS1_S8_Ei;1A.;__comp_ctor::(126,24):_ZN6MAUtil10DictionaryIKiNS_4PairIS1_PN8NativeUI6WidgetEEEEC1EPFiRS1_S8_Ei;1A.;insert::(126,25)=#(126,1),(126,26)=xsPair<MAUtil::Dictionary<const MAHandle, MAUtil::Pair<const MAHandle, NativeUI::Widget*> >::Iterator,bool>:,(126,3),(126,27)=&(126,28)=k(126,29)=xsPair<const MAHandle,NativeUI::Widget*>:,(0,6);:_ZN6MAUtil10DictionaryIKiNS_4PairIS1_PN8NativeUI6WidgetEEEE6insertERKS6_;1A.;;",128,0,57,0
	.stabs	"Map<MAHandle,NativeUI::Widget*>:Tt(126,30)=s56!1,020,(126,1);__base_ctor::(126,31)=#(126,30),(0,6),(126,32)=*(126,30),(126,22),(0,6);:_ZN6MAUtil3MapIiPN8NativeUI6WidgetEEC2EPFiRKiS6_E;2A.;__comp_ctor::(126,31):_ZN6MAUtil3MapIiPN8NativeUI6WidgetEEC1EPFiRKiS6_E;2A.;insert::(126,33)=#(126,30),(126,26),(126,32),(126,11),(53,87),(0,6);:_ZN6MAUtil3MapIiPN8NativeUI6WidgetEE6insertERKiRKS3_;2A.(126,34)=#(126,30),(126,26),(126,32),(126,35)=&(126,36)=k(126,37)=xsPair<MAHandle,NativeUI::Widget*>:,(0,6);:_ZN6MAUtil3MapIiPN8NativeUI6WidgetEE6insertERKNS_4PairIiS3_EE;2A.;operator[]::(126,38)=#(126,30),(53,98),(126,32),(126,11),(0,6);:_ZN6MAUtil3MapIiPN8NativeUI6WidgetEEixERKi;2A.;operator=::(126,39)=#(126,30),(126,40)=&(126,30),(126,32),(126,41)=&(126,42)=k(126,30),(0,6);:_ZN6MAUtil3MapIiPN8NativeUI6WidgetEEaSERKS4_;2A.;__base_ctor::(126,43)=#(126,30),(0,6),(126,32),(126,41),(0,6);:_ZN6MAUtil3MapIiPN8NativeUI6WidgetEEC2ERKS4_;2A.;__comp_ctor::(126,43):_ZN6MAUtil3MapIiPN8NativeUI6WidgetEEC1ERKS4_;2A.;__base_dtor::(126,44)=#(126,30),(0,6),(126,32),(0,6);:_ZN6MAUtil3MapIiPN8NativeUI6WidgetEED2Ev;2A.;__comp_dtor::(126,44):_ZN6MAUtil3MapIiPN8NativeUI6WidgetEED1Ev;2A.;;",128,0,33,0
	.stabn	162,0,0,0
	.stabn	162,0,0,0
	.stabs	"/Applications/MoSync/include/MAUtil/Moblet.h",130,0,0,0
	.stabn	162,0,0,0
	.stabs	"/Applications/MoSync/include/MAUtil/Connection.h",130,0,0,0
	.stabn	162,0,0,0
	.stabn	162,0,0,0
	.stabs	"MainScreen:Tt(0,25)=s1184!4,020,(113,33);02576,(61,4);02608,(73,9);00640,(0,26)=xsHttpConnectionListener:;mMainLayout:/0(0,27)=*(0,28)=xsVerticalLayout:,672,32;mInstructions:/0(0,29)=*(0,30)=xsLabel:,704,32;mLayoutP1:/0(0,31)=*(0,32)=xsHorizontalLayout:,736,32;mLayoutP2:/0(0,31),768,32;mLabelP1:/0(0,29),800,32;mLabelP2:/0(0,29),832,32;mUrlBox:/0(0,33)=*(0,34)=xsEditBox:,864,32;mP1Button:/0(0,35)=*(0,36)=xsButton:,896,32;mP2Button:/0(0,35),928,32;mBuffer:/0(0,37)=ar(12,11);0;1023;(0,19),960,8192;mHttp:/0(0,38)=xsHttpConnection:,9152,320;__base_ctor::(0,39)=#(0,25),(0,6),(0,40)=*(0,25),(0,6);:_ZN10MainScreenC2Ev;2A.;__comp_ctor::(0,39):_ZN10MainScreenC1Ev;2A.;__base_dtor::(0,39):_ZN10MainScreenD2Ev;2A.;__comp_dtor::(0,39):_ZN10MainScreenD1Ev;2A*0;(0,25);;__deleting_dtor::(0,39):_ZN10MainScreenD0Ev;2A*1;(0,25);;start::(0,41)=#(0,25),(0,6),(0,40),(11,88),(0,6);:_ZN10MainScreen5startEPKc;2A.;httpFinished::(0,42)=#(0,25),(0,6),(0,40),(0,43)=*(0,38),(0,3),(0,6);:_ZN10MainScreen12httpFinishedEPN6MAUtil14HttpConnectionEi;2A*48;(0,25);;connReadFinished::(0,44)=#(0,25),(0,6),(0,40),(0,45)=*(0,46)=xsConnection:,(0,3),(0,6);:_ZN10MainScreen16connReadFinishedEPN6MAUtil10ConnectionEi;2A*49;(0,25);;connRecvFinished::(0,44):_ZN10MainScreen16connRecvFinishedEPN6MAUtil10ConnectionEi;2A*50;(0,25);;createUI::(0,39):_ZN10MainScreen8createUIEv;0A.;buttonClicked::(0,47)=#(0,25),(0,6),(0,40),(53,73),(0,6);:_ZN10MainScreen13buttonClickedEPN8NativeUI6WidgetE;0A*51;(0,25);;editBoxReturn::(0,48)=#(0,25),(0,6),(0,40),(0,33),(0,6);:_ZN10MainScreen13editBoxReturnEPN8NativeUI7EditBoxE;0A*52;(0,25);;operator=::(0,49)=#(0,25),(0,50)=&(0,25),(0,40),(0,51)=&(0,52)=k(0,25),(0,6);:_ZN10MainScreenaSERKS_;2A.;__base_ctor::(0,53)=#(0,25),(0,6),(0,40),(0,51),(0,6);:_ZN10MainScreenC2ERKS_;2A.;__comp_ctor::(0,53):_ZN10MainScreenC1ERKS_;2A.;;~%(53,74);",128,0,22,0
	.stabs	"HttpConnectionListener:Tt(0,26)=s4!1,020,(0,54)=xsConnectionListener:;httpFinished::(0,55)=#(0,26),(0,6),(0,56)=*(0,26),(0,43),(0,3),(0,6);:_ZN6MAUtil22HttpConnectionListener12httpFinishedEPNS_14HttpConnectionEi;2A*4;(0,26);;operator=::(0,57)=#(0,26),(0,58)=&(0,26),(0,56),(0,59)=&(0,60)=k(0,26),(0,6);:_ZN6MAUtil22HttpConnectionListeneraSERKS0_;2A.;__base_ctor::(0,61)=#(0,26),(0,6),(0,56),(0,59),(0,6);:_ZN6MAUtil22HttpConnectionListenerC2ERKS0_;2A.;__comp_ctor::(0,61):_ZN6MAUtil22HttpConnectionListenerC1ERKS0_;2A.;__base_ctor::(0,62)=#(0,26),(0,6),(0,56),(0,6);:_ZN6MAUtil22HttpConnectionListenerC2Ev;2A.;__comp_ctor::(0,62):_ZN6MAUtil22HttpConnectionListenerC1Ev;2A.;;~%(0,54);",128,0,219,0
	.stabs	"WebViewListener:Tt(124,4)=s4_vptr$WebViewListener:(0,63)=*(0,1),0,32;__base_ctor::(0,64)=#(124,4),(0,6),(124,3),(0,6);:_ZN8NativeUI15WebViewListenerC2Ev;2A.;__comp_ctor::(0,64):_ZN8NativeUI15WebViewListenerC1Ev;2A.;__base_dtor::(0,64):_ZN8NativeUI15WebViewListenerD2Ev;2A.;__comp_dtor::(0,64):_ZN8NativeUI15WebViewListenerD1Ev;2A*0;(124,4);;__deleting_dtor::(0,64):_ZN8NativeUI15WebViewListenerD0Ev;2A*1;(124,4);;webViewHookInvoked::(0,65)=#(124,4),(0,6),(124,3),(0,66)=*(0,67)=xsWebView:,(0,3),(45,5),(0,6);:_ZN8NativeUI15WebViewListener18webViewHookInvokedEPNS_7WebViewEii;2A*2;(124,4);;webViewContentLoading::(0,68)=#(124,4),(0,6),(124,3),(0,66),(0,3),(0,6);:_ZN8NativeUI15WebViewListener21webViewContentLoadingEPNS_7WebViewEi;2A*3;(124,4);;operator=::(0,69)=#(124,4),(0,70)=&(124,4),(124,3),(0,71)=&(0,72)=k(124,4),(0,6);:_ZN8NativeUI15WebViewListeneraSERKS0_;2A.;__base_ctor::(0,73)=#(124,4),(0,6),(124,3),(0,71),(0,6);:_ZN8NativeUI15WebViewListenerC2ERKS0_;2A.;__comp_ctor::(0,73):_ZN8NativeUI15WebViewListenerC1ERKS0_;2A.;;~%(124,4);",128,0,50,0
	.stabs	"EditBoxListener:Tt(73,9)=s4_vptr$EditBoxListener:(0,63),0,32;editBoxEditingDidBegin::(0,74)=#(73,9),(0,6),(73,8),(0,33),(0,6);:_ZN8NativeUI15EditBoxListener22editBoxEditingDidBeginEPNS_7EditBoxE;2A*0;(73,9);;editBoxEditingDidEnd::(0,74):_ZN8NativeUI15EditBoxListener20editBoxEditingDidEndEPNS_7EditBoxE;2A*1;(73,9);;editBoxTextChanged::(0,75)=#(73,9),(0,6),(73,8),(0,33),(53,34),(0,6);:_ZN8NativeUI15EditBoxListener18editBoxTextChangedEPNS_7EditBoxERKN6MAUtil11BasicStringIcEE;2A*2;(73,9);;editBoxReturn::(0,74):_ZN8NativeUI15EditBoxListener13editBoxReturnEPNS_7EditBoxE;2A*3;(73,9);;operator=::(0,76)=#(73,9),(0,77)=&(73,9),(73,8),(0,78)=&(0,79)=k(73,9),(0,6);:_ZN8NativeUI15EditBoxListeneraSERKS0_;2A.;__base_ctor::(0,80)=#(73,9),(0,6),(73,8),(0,78),(0,6);:_ZN8NativeUI15EditBoxListenerC2ERKS0_;2A.;__comp_ctor::(0,80):_ZN8NativeUI15EditBoxListenerC1ERKS0_;2A.;__base_ctor::(0,81)=#(73,9),(0,6),(73,8),(0,6);:_ZN8NativeUI15EditBoxListenerC2Ev;2A.;__comp_ctor::(0,81):_ZN8NativeUI15EditBoxListenerC1Ev;2A.;;~%(73,9);",128,0,48,0
	.stabs	"ButtonListener:Tt(61,4)=s4_vptr$ButtonListener:(0,63),0,32;buttonPressed::(0,82)=#(61,4),(0,6),(61,3),(53,73),(0,6);:_ZN8NativeUI14ButtonListener13buttonPressedEPNS_6WidgetE;2A*0;(61,4);;buttonReleased::(0,82):_ZN8NativeUI14ButtonListener14buttonReleasedEPNS_6WidgetE;2A*1;(61,4);;buttonClicked::(0,82):_ZN8NativeUI14ButtonListener13buttonClickedEPNS_6WidgetE;2A*2;(61,4);;operator=::(0,83)=#(61,4),(0,84)=&(61,4),(61,3),(0,85)=&(0,86)=k(61,4),(0,6);:_ZN8NativeUI14ButtonListeneraSERKS0_;2A.;__base_ctor::(0,87)=#(61,4),(0,6),(61,3),(0,85),(0,6);:_ZN8NativeUI14ButtonListenerC2ERKS0_;2A.;__comp_ctor::(0,87):_ZN8NativeUI14ButtonListenerC1ERKS0_;2A.;__base_ctor::(0,88)=#(61,4),(0,6),(61,3),(0,6);:_ZN8NativeUI14ButtonListenerC2Ev;2A.;__comp_ctor::(0,88):_ZN8NativeUI14ButtonListenerC1Ev;2A.;;~%(61,4);",128,0,48,0
	.stabs	"RefCounted:Tt(0,89)=s8_vptr$RefCounted:(0,63),0,32;mRefCount:/0(0,3),32,32;__base_ctor::(0,90)=#(0,89),(0,6),(0,91)=*(0,89),(0,3),(0,6);:_ZN6MAUtil10RefCountedC2Ei;2A.;__comp_ctor::(0,90):_ZN6MAUtil10RefCountedC1Ei;2A.;addRef::(0,92)=#(0,89),(0,6),(0,91),(0,6);:_ZN6MAUtil10RefCounted6addRefEv;2A.;release::(0,92):_ZN6MAUtil10RefCounted7releaseEv;2A.;getRefCount::(0,93)=#(0,89),(0,3),(0,91),(0,6);:_ZN6MAUtil10RefCounted11getRefCountEv;2A.;__base_dtor::(0,92):_ZN6MAUtil10RefCountedD2Ev;2A.;__comp_dtor::(0,92):_ZN6MAUtil10RefCountedD1Ev;2A*0;(0,89);;__deleting_dtor::(0,92):_ZN6MAUtil10RefCountedD0Ev;2A*1;(0,89);;operator=::(0,94)=#(0,89),(0,95)=&(0,89),(0,91),(0,96)=&(0,97)=k(0,89),(0,6);:_ZN6MAUtil10RefCountedaSERKS0_;2A.;__base_ctor::(0,98)=#(0,89),(0,6),(0,91),(0,96),(0,6);:_ZN6MAUtil10RefCountedC2ERKS0_;2A.;__comp_ctor::(0,98):_ZN6MAUtil10RefCountedC1ERKS0_;2A.;;~%(0,89);",128,0,28,0
	.ctor __GLOBAL__I__ZN10MainScreenC2Ev
	.dtor __GLOBAL__D__ZN10MainScreenC2Ev
	.global	__ZTV10MainScreen
.data
	.align 4
__ZTV10MainScreen:
	.long	0
	.long	0
	.long	__ZN10MainScreenD1Ev
	.long	__ZN10MainScreenD0Ev
	.long	__ZN8NativeUI6Widget25markWidgetHandleAsDeletedEv
	.long	__ZNK8NativeUI6Widget15getWidgetHandleEv
	.long	__ZN8NativeUI6Widget11setPropertyERKN6MAUtil11BasicStringIcEES5_
	.long	__ZN8NativeUI6Widget14setPropertyIntERKN6MAUtil11BasicStringIcEEi
	.long	__ZN8NativeUI6Widget16setPropertyFloatERKN6MAUtil11BasicStringIcEEf
	.long	__ZN8NativeUI6Widget14getPropertyIntERKN6MAUtil11BasicStringIcEERi
	.long	__ZN8NativeUI6Widget14getPropertyIntERKN6MAUtil11BasicStringIcEE
	.long	__ZN8NativeUI6Widget16getPropertyFloatERKN6MAUtil11BasicStringIcEERi
	.long	__ZN8NativeUI6Widget16getPropertyFloatERKN6MAUtil11BasicStringIcEE
	.long	__ZN8NativeUI6Widget17getPropertyStringERKN6MAUtil11BasicStringIcEERi
	.long	__ZN8NativeUI6Widget17getPropertyStringERKN6MAUtil11BasicStringIcEE
	.long	__ZN8NativeUI6Widget8addChildEPS0_
	.long	__ZN8NativeUI6Widget11insertChildEPS0_i
	.long	__ZN8NativeUI6Widget11removeChildEPS0_
	.long	__ZNK8NativeUI6Widget8getChildEi
	.long	__ZNK8NativeUI6Widget17countChildWidgetsEv
	.long	__ZN8NativeUI6Widget11setPositionEii
	.long	__ZN8NativeUI6Widget15setLeftPositionEi
	.long	__ZN8NativeUI6Widget14setTopPositionEi
	.long	__ZN8NativeUI6Widget7setSizeEii
	.long	__ZN8NativeUI6Widget8getWidthEv
	.long	__ZN8NativeUI6Widget9getHeightEv
	.long	__ZN8NativeUI6Widget8setWidthEi
	.long	__ZN8NativeUI6Widget9setHeightEi
	.long	__ZN8NativeUI6Widget21fillSpaceHorizontallyEv
	.long	__ZN8NativeUI6Widget19fillSpaceVerticallyEv
	.long	__ZN8NativeUI6Widget23wrapContentHorizontallyEv
	.long	__ZN8NativeUI6Widget21wrapContentVerticallyEv
	.long	__ZN8NativeUI6Widget18setBackgroundColorEi
	.long	__ZN8NativeUI6Widget18setBackgroundColorEiii
	.long	__ZN8NativeUI6Widget21setBackgroundGradientEii
	.long	__ZN8NativeUI6Widget10setVisibleEb
	.long	__ZN8NativeUI6Widget9isVisibleEv
	.long	__ZN8NativeUI6Widget10setEnabledEb
	.long	__ZN8NativeUI6Widget9isEnabledEv
	.long	__ZN8NativeUI6Widget16addEventListenerEPNS_19WidgetEventListenerE
	.long	__ZN8NativeUI6Widget19removeEventListenerEPNS_19WidgetEventListenerE
	.long	__ZN8NativeUI6Screen17handleWidgetEventEP17MAWidgetEventData
	.long	__ZN8NativeUI6Screen4showEv
	.long	__ZN8NativeUI6Screen18showWithTransitionEii
	.long	__ZN8NativeUI6Screen21orientationWillChangeEv
	.long	__ZN8NativeUI6Screen20orientationDidChangeEv
	.long	__ZN8NativeUI6Screen17removeOptionsMenuEv
	.long	__ZN8NativeUI6Screen7isShownEv
	.long	__ZN8NativeUI6Screen17addScreenListenerEPNS_14ScreenListenerE
	.long	__ZN8NativeUI6Screen20removeScreenListenerEPNS_14ScreenListenerE
	.long	__ZN10MainScreen12httpFinishedEPN6MAUtil14HttpConnectionEi
	.long	__ZN10MainScreen16connReadFinishedEPN6MAUtil10ConnectionEi
	.long	__ZN10MainScreen16connRecvFinishedEPN6MAUtil10ConnectionEi
	.long	__ZN10MainScreen13buttonClickedEPN8NativeUI6WidgetE
	.long	__ZN10MainScreen13editBoxReturnEPN8NativeUI7EditBoxE
	.long	-72
	.long	0
	.long	__ZN8NativeUI14ButtonListener13buttonPressedEPNS_6WidgetE
	.long	__ZN8NativeUI14ButtonListener14buttonReleasedEPNS_6WidgetE
	.long	__ZThn72_N10MainScreen13buttonClickedEPN8NativeUI6WidgetE
	.long	-76
	.long	0
	.long	__ZN8NativeUI15EditBoxListener22editBoxEditingDidBeginEPNS_7EditBoxE
	.long	__ZN8NativeUI15EditBoxListener20editBoxEditingDidEndEPNS_7EditBoxE
	.long	__ZN8NativeUI15EditBoxListener18editBoxTextChangedEPNS_7EditBoxERKN6MAUtil11BasicStringIcEE
	.long	__ZThn76_N10MainScreen13editBoxReturnEPN8NativeUI7EditBoxE
	.long	-80
	.long	0
	.long	__ZN6MAUtil18ConnectionListener15connectFinishedEPNS_10ConnectionEi
	.long	__ZThn80_N10MainScreen16connRecvFinishedEPN6MAUtil10ConnectionEi
	.long	__ZN6MAUtil18ConnectionListener17connWriteFinishedEPNS_10ConnectionEi
	.long	__ZThn80_N10MainScreen16connReadFinishedEPN6MAUtil10ConnectionEi
	.long	__ZThn80_N10MainScreen12httpFinishedEPN6MAUtil14HttpConnectionEi
	.lcomm	__ZN3Ads13TEST_EMULATORE, 4 ; size=4
	.align 4
__ZTVN8NativeUI14ButtonListenerE:
	.long	0
	.long	0
	.long	__ZN8NativeUI14ButtonListener13buttonPressedEPNS_6WidgetE
	.long	__ZN8NativeUI14ButtonListener14buttonReleasedEPNS_6WidgetE
	.long	___cxa_pure_virtual
	.align 4
__ZTVN8NativeUI15EditBoxListenerE:
	.long	0
	.long	0
	.long	__ZN8NativeUI15EditBoxListener22editBoxEditingDidBeginEPNS_7EditBoxE
	.long	__ZN8NativeUI15EditBoxListener20editBoxEditingDidEndEPNS_7EditBoxE
	.long	__ZN8NativeUI15EditBoxListener18editBoxTextChangedEPNS_7EditBoxERKN6MAUtil11BasicStringIcEE
	.long	___cxa_pure_virtual
	.align 4
__ZTVN6MAUtil22HttpConnectionListenerE:
	.long	0
	.long	0
	.long	__ZN6MAUtil18ConnectionListener15connectFinishedEPNS_10ConnectionEi
	.long	__ZN6MAUtil18ConnectionListener16connRecvFinishedEPNS_10ConnectionEi
	.long	__ZN6MAUtil18ConnectionListener17connWriteFinishedEPNS_10ConnectionEi
	.long	__ZN6MAUtil18ConnectionListener16connReadFinishedEPNS_10ConnectionEi
	.long	___cxa_pure_virtual
.code
	.stabs	"_ZN8NativeUI14ButtonListener13buttonPressedEPNS_6WidgetE:f(0,6)",36,0,56,__ZN8NativeUI14ButtonListener13buttonPressedEPNS_6WidgetE
	.stabs	"this:P(61,9)",64,0,56,12
	.stabs	"button:P(53,73)",64,0,56,13

.func __ZN8NativeUI14ButtonListener13buttonPressedEPNS_6WidgetE, 2, void
	.stabs	"/Applications/MoSync/include/NativeUI/ButtonListener.h",132,0,0,Ltext1
Ltext1:
	.line 56
	push fr,fr
	ld   fr,sp
	add  fr,#0x4
	.line 56
	pop  fr,fr
	ret
Lscope0:
	.stabs	"_ZN8NativeUI14ButtonListener14buttonReleasedEPNS_6WidgetE:f(0,6)",36,0,64,__ZN8NativeUI14ButtonListener14buttonReleasedEPNS_6WidgetE
	.stabs	"this:P(61,9)",64,0,64,12
	.stabs	"button:P(53,73)",64,0,64,13

.func __ZN8NativeUI14ButtonListener14buttonReleasedEPNS_6WidgetE, 2, void
	.line 64
	push fr,fr
	ld   fr,sp
	add  fr,#0x4
	.line 64
	pop  fr,fr
	ret
Lscope1:
	.stabs	"_ZN8NativeUI15EditBoxListener22editBoxEditingDidBeginEPNS_7EditBoxE:f(0,6)",36,0,56,__ZN8NativeUI15EditBoxListener22editBoxEditingDidBeginEPNS_7EditBoxE
	.stabs	"this:P(73,14)",64,0,56,12
	.stabs	"editBox:P(0,33)",64,0,56,13

.func __ZN8NativeUI15EditBoxListener22editBoxEditingDidBeginEPNS_7EditBoxE, 2, void
	.stabs	"/Applications/MoSync/include/NativeUI/EditBoxListener.h",132,0,0,Ltext2
Ltext2:
	.line 56
	push fr,fr
	ld   fr,sp
	add  fr,#0x4
	.line 56
	pop  fr,fr
	ret
Lscope2:
	.stabs	"_ZN8NativeUI15EditBoxListener20editBoxEditingDidEndEPNS_7EditBoxE:f(0,6)",36,0,64,__ZN8NativeUI15EditBoxListener20editBoxEditingDidEndEPNS_7EditBoxE
	.stabs	"this:P(73,14)",64,0,64,12
	.stabs	"editBox:P(0,33)",64,0,64,13

.func __ZN8NativeUI15EditBoxListener20editBoxEditingDidEndEPNS_7EditBoxE, 2, void
	.line 64
	push fr,fr
	ld   fr,sp
	add  fr,#0x4
	.line 64
	pop  fr,fr
	ret
Lscope3:
	.stabs	"_ZN8NativeUI15EditBoxListener18editBoxTextChangedEPNS_7EditBoxERKN6MAUtil11BasicStringIcEE:f(0,6)",36,0,73,__ZN8NativeUI15EditBoxListener18editBoxTextChangedEPNS_7EditBoxERKN6MAUtil11BasicStringIcEE
	.stabs	"this:P(73,14)",64,0,73,12
	.stabs	"editBox:P(0,33)",64,0,73,13
	.stabs	"text:P(53,34)",64,0,73,14

.func __ZN8NativeUI15EditBoxListener18editBoxTextChangedEPNS_7EditBoxERKN6MAUtil11BasicStringIcEE, 3, void
	.line 73
	push fr,fr
	ld   fr,sp
	add  fr,#0x4
	.line 73
	pop  fr,fr
	ret
Lscope4:
	.stabs	"_ZN10MainScreenD2Ev:F(0,6)",36,0,14,__ZN10MainScreenD2Ev
	.stabs	"this:P(0,99)=k(0,40)",64,0,14,4
	.global	__ZN10MainScreenD2Ev

.func __ZN10MainScreenD2Ev, 1, void
	.stabs	"/Users/brzeszczot/workspace/Sterownik/MainScreen.cpp",132,0,0,Ltext3
Ltext3:
	.line 14
	push rt,d2
	ld   fr,sp
	add  fr,#0x14
	ld   d0,i0
	.dlab LBB2
	.line 14
	ld   r14,#__ZTV10MainScreen+8
	ld   [i0],r14
	ld   r14,#__ZTV10MainScreen+228
	ld   [i0,72],r14
	ld   r14,#__ZTV10MainScreen+248
	ld   [i0,76],r14
	ld   r14,#__ZTV10MainScreen+272
	ld   [i0,80],r14
	.line 15
	ld   i0,[i0,112]
	ld   r14,[i0]
	ld   d2,d0
	add  d2,#0x48
	ld   d1,[r14,192]
	ld   i1,d2
	call d1 ; call non-native
	.line 16
	ld   i0,[d0,116]
	ld   r14,[i0]
	ld   d1,[r14,192]
	ld   i1,d2
	call d1 ; call non-native
	.line 17
	ld   i0,[d0,108]
	ld   r14,[i0]
	ld   d1,[r14,204]
	ld   i1,d0
	add  i1,#0x4c
	call d1 ; call non-native
	.dlab LBB3
	.line 5
	ld   i0,d0
	add  i0,#0x478
	.dlab LBB4
	ld   r14,#__ZTVN6MAUtil14HttpConnectionE+8
	ld   [i0],r14
	call &__ZN6MAUtil10ConnectionD2Ev ; call non-native
	.dlab LBE4
	.dlab LBE3
	ld   i0,d0
	call &__ZN8NativeUI6ScreenD2Ev ; call non-native
	.dlab LBE2
	.line 18
	pop  rt,d2
	ret
	.stabs	"this:r(0,100)=k(0,43)",64,0,5,12
	.stabn	192,0,0,LBB3-__ZN10MainScreenD2Ev
	.stabn	224,0,0,LBE3-__ZN10MainScreenD2Ev
Lscope5:
	.stabs	"_ZN10MainScreenD1Ev:F(0,6)",36,0,14,__ZN10MainScreenD1Ev
	.stabs	"this:P(0,99)",64,0,14,4
	.global	__ZN10MainScreenD1Ev

.func __ZN10MainScreenD1Ev, 1, void
	.line 14
	push rt,d2
	ld   fr,sp
	add  fr,#0x14
	ld   d0,i0
	.dlab LBB5
	.line 14
	ld   r14,#__ZTV10MainScreen+8
	ld   [i0],r14
	ld   r14,#__ZTV10MainScreen+228
	ld   [i0,72],r14
	ld   r14,#__ZTV10MainScreen+248
	ld   [i0,76],r14
	ld   r14,#__ZTV10MainScreen+272
	ld   [i0,80],r14
	.line 15
	ld   i0,[i0,112]
	ld   r14,[i0]
	ld   d2,d0
	add  d2,#0x48
	ld   d1,[r14,192]
	ld   i1,d2
	call d1 ; call non-native
	.line 16
	ld   i0,[d0,116]
	ld   r14,[i0]
	ld   d1,[r14,192]
	ld   i1,d2
	call d1 ; call non-native
	.line 17
	ld   i0,[d0,108]
	ld   r14,[i0]
	ld   d1,[r14,204]
	ld   i1,d0
	add  i1,#0x4c
	call d1 ; call non-native
	.dlab LBB6
	.line 5
	ld   i0,d0
	add  i0,#0x478
	.dlab LBB7
	ld   r14,#__ZTVN6MAUtil14HttpConnectionE+8
	ld   [i0],r14
	call &__ZN6MAUtil10ConnectionD2Ev ; call non-native
	.dlab LBE7
	.dlab LBE6
	ld   i0,d0
	call &__ZN8NativeUI6ScreenD2Ev ; call non-native
	.dlab LBE5
	.line 18
	pop  rt,d2
	ret
	.stabs	"this:r(0,100)",64,0,5,12
	.stabn	192,0,0,LBB6-__ZN10MainScreenD1Ev
	.stabn	224,0,0,LBE6-__ZN10MainScreenD1Ev
Lscope6:
	.stabs	"_ZN10MainScreenD0Ev:F(0,6)",36,0,14,__ZN10MainScreenD0Ev
	.stabs	"this:P(0,99)",64,0,14,4
	.global	__ZN10MainScreenD0Ev

.func __ZN10MainScreenD0Ev, 1, void
	.line 14
	push rt,d2
	ld   fr,sp
	add  fr,#0x14
	ld   d0,i0
	.dlab LBB8
	.line 14
	ld   r14,#__ZTV10MainScreen+8
	ld   [i0],r14
	ld   r14,#__ZTV10MainScreen+228
	ld   [i0,72],r14
	ld   r14,#__ZTV10MainScreen+248
	ld   [i0,76],r14
	ld   r14,#__ZTV10MainScreen+272
	ld   [i0,80],r14
	.line 15
	ld   i0,[i0,112]
	ld   r14,[i0]
	ld   d2,d0
	add  d2,#0x48
	ld   d1,[r14,192]
	ld   i1,d2
	call d1 ; call non-native
	.line 16
	ld   i0,[d0,116]
	ld   r14,[i0]
	ld   d1,[r14,192]
	ld   i1,d2
	call d1 ; call non-native
	.line 17
	ld   i0,[d0,108]
	ld   r14,[i0]
	ld   d1,[r14,204]
	ld   i1,d0
	add  i1,#0x4c
	call d1 ; call non-native
	.dlab LBB9
	.line 5
	ld   i0,d0
	add  i0,#0x478
	.dlab LBB10
	ld   r14,#__ZTVN6MAUtil14HttpConnectionE+8
	ld   [i0],r14
	call &__ZN6MAUtil10ConnectionD2Ev ; call non-native
	.dlab LBE10
	.dlab LBE9
	ld   i0,d0
	call &__ZN8NativeUI6ScreenD2Ev ; call non-native
	.dlab LBE8
	.line 18
	ld   i0,d0
	call &__ZdlPv ; call non-native
	pop  rt,d2
	ret
	.stabs	"this:r(0,100)",64,0,5,12
	.stabn	192,0,0,LBB9-__ZN10MainScreenD0Ev
	.stabn	224,0,0,LBE9-__ZN10MainScreenD0Ev
Lscope7:
.data
LC0:
	.ascii "Sterownik ETH\0"
LC1:
	.ascii "http://10.52.106.69/ps/Transcription/cronjobs/BMSOpdivoReg_AS3.php?env=dev\0"
LC2:
	.ascii "center\0"
LC3:
	.ascii "Przeka\305\272nik 1\0"
LC4:
	.ascii "W\305\202\304\205czony\0"
LC5:
	.ascii "Przeka\305\272nik 2\0"
.code
	.stabs	"_ZN10MainScreen8createUIEv:F(0,6)",36,0,21,__ZN10MainScreen8createUIEv
	.stabs	"this:P(0,99)",64,0,21,6
	.global	__ZN10MainScreen8createUIEv

.func __ZN10MainScreen8createUIEv, 1, void
	.line 21
	push rt,d3
	sub  sp,#0x4
	ld   fr,sp
	add  fr,#0x1c
	ld   d2,i0
	.dlab LBB11
	.line 22
	ld   i0,#0x3c
	call &__Znwm ; call non-native
	ld   d1,r14
	ld   r14,#0x0
	jc   ne,d1,r14,#L41
L31:
	ld   [d2,84],d1
	.line 24
	ld   r14,[d1]
	ld   d0,[r14,104]
	ld   i0,d1
	call d0 ; call non-native
	.line 25
	ld   i0,[d2,84]
	ld   r14,[i0]
	ld   d0,[r14,108]
	call d0 ; call non-native
	.line 27
	ld   i0,d2
	ld   i1,[d2,84]
	call &__ZN8NativeUI6Screen13setMainWidgetEPNS_6WidgetE ; call non-native
	.line 29
	ld   i0,#0x30
	call &__Znwm ; call non-native
	ld   d1,r14
	ld   r14,#0x0
	jc   ne,d1,r14,#L42
L32:
	ld   [d2,88],d1
	.line 32
	ld   r14,[d1]
	ld   d0,[r14,104]
	ld   i0,d1
	call d0 ; call non-native
	.line 33
	ld   i0,[d2,88]
	ld   r14,[i0]
	ld   d0,[r14,116]
	call d0 ; call non-native
	.line 34
	ld   d3,fr
	add  d3,#0xffffffe4
	ld   i0,d3
	ld   i1,#LC0
	call &__ZN6MAUtil11BasicStringIcEC1EPKc ; call non-native
	ld   i0,[d2,88]
	ld   r14,[i0]
	ld   d0,[r14,160]
	ld   i1,d3
	call d0 ; call non-native
	ld   i0,d3
	call &__ZN6MAUtil11BasicStringIcED1Ev ; call non-native
	.line 35
	ld   i0,[d2,84]
	ld   r14,[i0]
	ld   d0,[r14,52]
	ld   i1,[d2,88]
	call d0 ; call non-native
	.line 37
	ld   i0,#0x3c
	call &__Znwm ; call non-native
	ld   d1,r14
	ld   r14,#0x0
	jc   ne,d1,r14,#L43
L33:
	ld   [d2,108],d1
	.line 38
	ld   r14,[d1]
	ld   d0,[r14,104]
	ld   i0,d1
	call d0 ; call non-native
	.line 39
	ld   i0,[d2,108]
	ld   r14,[i0]
	ld   d0,[r14,116]
	call d0 ; call non-native
	.line 40
	ld   i0,d3
	ld   i1,#LC1
	call &__ZN6MAUtil11BasicStringIcEC1EPKc ; call non-native
	ld   i0,[d2,108]
	ld   r14,[i0]
	ld   d0,[r14,160]
	ld   i1,d3
	call d0 ; call non-native
	ld   i0,d3
	call &__ZN6MAUtil11BasicStringIcED1Ev ; call non-native
	.line 42
	ld   i0,[d2,84]
	ld   r14,[i0]
	ld   d0,[r14,52]
	ld   i1,[d2,108]
	call d0 ; call non-native
	.line 46
	ld   i0,#0x3c
	call &__Znwm ; call non-native
	ld   d1,r14
	ld   r14,#0x0
	jc   ne,d1,r14,#L44
L34:
	ld   [d2,92],d1
	.line 47
	ld   r14,[d1]
	ld   d0,[r14,104]
	ld   i0,d1
	call d0 ; call non-native
	.line 48
	ld   i0,[d2,92]
	ld   r14,[i0]
	ld   d0,[r14,116]
	call d0 ; call non-native
	.line 51
	ld   i0,#0x3c
	call &__Znwm ; call non-native
	ld   d1,r14
	ld   r14,#0x0
	jc   ne,d1,r14,#L45
L35:
	ld   [d2,112],d1
	.line 52
	ld   r14,[d1]
	ld   d0,[r14,116]
	ld   i0,d1
	call d0 ; call non-native
	.line 53
	ld   i0,d3
	ld   i1,#LC2
	call &__ZN6MAUtil11BasicStringIcEC1EPKc ; call non-native
	ld   i0,[d2,112]
	ld   r14,[i0]
	ld   d0,[r14,172]
	ld   i1,d3
	call d0 ; call non-native
	ld   i0,d3
	call &__ZN6MAUtil11BasicStringIcED1Ev ; call non-native
	.line 54
	ld   i0,d3
	ld   i1,#LC2
	call &__ZN6MAUtil11BasicStringIcEC1EPKc ; call non-native
	ld   i0,[d2,112]
	ld   r14,[i0]
	ld   d0,[r14,168]
	ld   i1,d3
	call d0 ; call non-native
	ld   i0,d3
	call &__ZN6MAUtil11BasicStringIcED1Ev ; call non-native
	.line 55
	ld   i0,d3
	ld   i1,#LC3
	call &__ZN6MAUtil11BasicStringIcEC1EPKc ; call non-native
	ld   i0,[d2,112]
	ld   r14,[i0]
	ld   d0,[r14,160]
	ld   i1,d3
	call d0 ; call non-native
	ld   i0,d3
	call &__ZN6MAUtil11BasicStringIcED1Ev ; call non-native
	.line 56
	ld   i0,[d2,92]
	ld   r14,[i0]
	ld   d0,[r14,52]
	ld   i1,[d2,112]
	call d0 ; call non-native
	.line 58
	ld   i0,#0x30
	call &__Znwm ; call non-native
	ld   d1,r14
	ld   r14,#0x0
	jc   ne,d1,r14,#L46
L36:
	ld   [d2,100],d1
	.line 60
	ld   r14,[d1]
	ld   d0,[r14,116]
	ld   i0,d1
	call d0 ; call non-native
	.line 61
	ld   i0,d3
	ld   i1,#LC4
	call &__ZN6MAUtil11BasicStringIcEC1EPKc ; call non-native
	ld   i0,[d2,100]
	ld   r14,[i0]
	ld   d0,[r14,160]
	ld   i1,d3
	call d0 ; call non-native
	ld   i0,d3
	call &__ZN6MAUtil11BasicStringIcED1Ev ; call non-native
	.line 62
	ld   i0,[d2,92]
	ld   r14,[i0]
	ld   d0,[r14,52]
	ld   i1,[d2,100]
	call d0 ; call non-native
	.line 64
	ld   i0,[d2,84]
	ld   r14,[i0]
	ld   d0,[r14,52]
	ld   i1,[d2,92]
	call d0 ; call non-native
	.line 68
	ld   i0,#0x3c
	call &__Znwm ; call non-native
	ld   d1,r14
	ld   r14,#0x0
	jc   ne,d1,r14,#L47
L37:
	ld   [d2,96],d1
	.line 69
	ld   r14,[d1]
	ld   d0,[r14,104]
	ld   i0,d1
	call d0 ; call non-native
	.line 70
	ld   i0,[d2,96]
	ld   r14,[i0]
	ld   d0,[r14,116]
	call d0 ; call non-native
	.line 73
	ld   i0,#0x3c
	call &__Znwm ; call non-native
	ld   d1,r14
	ld   r14,#0x0
	jc   ne,d1,r14,#L48
L38:
	ld   [d2,116],d1
	.line 74
	ld   r14,[d1]
	ld   d0,[r14,116]
	ld   i0,d1
	call d0 ; call non-native
	.line 75
	ld   i0,d3
	ld   i1,#LC2
	call &__ZN6MAUtil11BasicStringIcEC1EPKc ; call non-native
	ld   i0,[d2,116]
	ld   r14,[i0]
	ld   d0,[r14,172]
	ld   i1,d3
	call d0 ; call non-native
	ld   i0,d3
	call &__ZN6MAUtil11BasicStringIcED1Ev ; call non-native
	.line 76
	ld   i0,d3
	ld   i1,#LC2
	call &__ZN6MAUtil11BasicStringIcEC1EPKc ; call non-native
	ld   i0,[d2,116]
	ld   r14,[i0]
	ld   d0,[r14,168]
	ld   i1,d3
	call d0 ; call non-native
	ld   i0,d3
	call &__ZN6MAUtil11BasicStringIcED1Ev ; call non-native
	.line 77
	ld   i0,d3
	ld   i1,#LC5
	call &__ZN6MAUtil11BasicStringIcEC1EPKc ; call non-native
	ld   i0,[d2,116]
	ld   r14,[i0]
	ld   d0,[r14,160]
	ld   i1,d3
	call d0 ; call non-native
	ld   i0,d3
	call &__ZN6MAUtil11BasicStringIcED1Ev ; call non-native
	.line 78
	ld   i0,[d2,96]
	ld   r14,[i0]
	ld   d0,[r14,52]
	ld   i1,[d2,116]
	call d0 ; call non-native
	.line 80
	ld   i0,#0x30
	call &__Znwm ; call non-native
	ld   d1,r14
	ld   r14,#0x0
	jc   ne,d1,r14,#L49
L39:
	ld   [d2,104],d1
	.line 82
	ld   r14,[d1]
	ld   d0,[r14,116]
	ld   i0,d1
	call d0 ; call non-native
	.line 83
	ld   i0,d3
	ld   i1,#LC4
	call &__ZN6MAUtil11BasicStringIcEC1EPKc ; call non-native
	ld   i0,[d2,104]
	ld   r14,[i0]
	ld   d0,[r14,160]
	ld   i1,d3
	call d0 ; call non-native
	ld   i0,d3
	call &__ZN6MAUtil11BasicStringIcED1Ev ; call non-native
	.line 84
	ld   i0,[d2,96]
	ld   r14,[i0]
	ld   d0,[r14,52]
	ld   i1,[d2,104]
	call d0 ; call non-native
	.line 86
	ld   i0,[d2,84]
	ld   r14,[i0]
	ld   d0,[r14,52]
	ld   i1,[d2,96]
	call d0 ; call non-native
	.dlab LBE11
	add  sp,#0x4
	pop  rt,d3
	ret
L41:
	.dlab LBB12
	.line 22
	ld   i0,d1
	call &__ZN8NativeUI14VerticalLayoutC1Ev ; call non-native
	jp   #L31
L49:
	.line 80
	ld   i0,d1
	call &__ZN8NativeUI5LabelC1Ev ; call non-native
	jp   #L39
L48:
	.line 73
	ld   i0,d1
	call &__ZN8NativeUI6ButtonC1Ev ; call non-native
	jp   #L38
L47:
	.line 68
	ld   i0,d1
	call &__ZN8NativeUI16HorizontalLayoutC1Ev ; call non-native
	jp   #L37
L46:
	.line 58
	ld   i0,d1
	call &__ZN8NativeUI5LabelC1Ev ; call non-native
	jp   #L36
L45:
	.line 51
	ld   i0,d1
	call &__ZN8NativeUI6ButtonC1Ev ; call non-native
	jp   #L35
L44:
	.line 46
	ld   i0,d1
	call &__ZN8NativeUI16HorizontalLayoutC1Ev ; call non-native
	jp   #L34
L43:
	.line 37
	ld   i0,d1
	ld   i1,r14
	call &__ZN8NativeUI7EditBoxC1ENS_15EditBoxCategoryE ; call non-native
	jp   #L33
L42:
	.line 29
	ld   i0,d1
	call &__ZN8NativeUI5LabelC1Ev ; call non-native
	jp   #L32
	.dlab LBE12
Lscope8:
	.stabs	"_ZN10MainScreenC1Ev:F(0,6)",36,0,3,__ZN10MainScreenC1Ev
	.stabs	"this:P(0,99)",64,0,3,4
	.global	__ZN10MainScreenC1Ev

.func __ZN10MainScreenC1Ev, 1, void
	.line 3
	push rt,d3
	ld   fr,sp
	add  fr,#0x18
	ld   d0,i0
	.dlab LBB13
	.line 5
	call &__ZN8NativeUI6ScreenC2Ev ; call non-native
	.dlab LBB14
	ld   d2,d0
	add  d2,#0x48
	.dlab LBE14
	.dlab LBB15
	ld   d3,d0
	add  d3,#0x4c
	.dlab LBE15
	.dlab LBB16
	ld   i1,d0
	add  i1,#0x50
	.dlab LBE16
	ld   r14,#__ZTV10MainScreen+8
	ld   [d0],r14
	ld   r14,#__ZTV10MainScreen+228
	ld   [d2],r14
	ld   r14,#__ZTV10MainScreen+248
	ld   [d3],r14
	ld   r14,#__ZTV10MainScreen+272
	ld   [i1],r14
	ld   i0,d0
	add  i0,#0x478
	call &__ZN6MAUtil14HttpConnectionC1EPNS_22HttpConnectionListenerE ; call non-native
	.line 6
	ld   i0,d0
	call &__ZN10MainScreen8createUIEv ; call non-native
	.line 8
	ld   i0,[d0,112]
	ld   r14,[i0]
	ld   d1,[r14,188]
	ld   i1,d2
	call d1 ; call non-native
	.line 9
	ld   i0,[d0,116]
	ld   r14,[i0]
	ld   d1,[r14,188]
	ld   i1,d2
	call d1 ; call non-native
	.line 10
	ld   i0,[d0,108]
	ld   r14,[i0]
	ld   d0,[r14,200]
	ld   i1,d3
	call d0 ; call non-native
	.dlab LBE13
	pop  rt,d3
	ret
	.stabs	"this:r(61,9)",64,0,5,6
	.stabn	192,0,0,LBB14-__ZN10MainScreenC1Ev
	.stabn	224,0,0,LBE14-__ZN10MainScreenC1Ev
	.stabs	"this:r(73,14)",64,0,5,7
	.stabn	192,0,0,LBB15-__ZN10MainScreenC1Ev
	.stabn	224,0,0,LBE15-__ZN10MainScreenC1Ev
	.stabs	"this:r(0,101)=k(0,56)",64,0,5,13
	.stabn	192,0,0,LBB16-__ZN10MainScreenC1Ev
	.stabn	224,0,0,LBE16-__ZN10MainScreenC1Ev
Lscope9:
	.stabs	"_ZN10MainScreenC2Ev:F(0,6)",36,0,3,__ZN10MainScreenC2Ev
	.stabs	"this:P(0,99)",64,0,3,4
	.global	__ZN10MainScreenC2Ev

.func __ZN10MainScreenC2Ev, 1, void
	.line 3
	push rt,d3
	ld   fr,sp
	add  fr,#0x18
	ld   d0,i0
	.dlab LBB17
	.line 5
	call &__ZN8NativeUI6ScreenC2Ev ; call non-native
	.dlab LBB18
	ld   d2,d0
	add  d2,#0x48
	.dlab LBE18
	.dlab LBB19
	ld   d3,d0
	add  d3,#0x4c
	.dlab LBE19
	.dlab LBB20
	ld   i1,d0
	add  i1,#0x50
	.dlab LBE20
	ld   r14,#__ZTV10MainScreen+8
	ld   [d0],r14
	ld   r14,#__ZTV10MainScreen+228
	ld   [d2],r14
	ld   r14,#__ZTV10MainScreen+248
	ld   [d3],r14
	ld   r14,#__ZTV10MainScreen+272
	ld   [i1],r14
	ld   i0,d0
	add  i0,#0x478
	call &__ZN6MAUtil14HttpConnectionC1EPNS_22HttpConnectionListenerE ; call non-native
	.line 6
	ld   i0,d0
	call &__ZN10MainScreen8createUIEv ; call non-native
	.line 8
	ld   i0,[d0,112]
	ld   r14,[i0]
	ld   d1,[r14,188]
	ld   i1,d2
	call d1 ; call non-native
	.line 9
	ld   i0,[d0,116]
	ld   r14,[i0]
	ld   d1,[r14,188]
	ld   i1,d2
	call d1 ; call non-native
	.line 10
	ld   i0,[d0,108]
	ld   r14,[i0]
	ld   d0,[r14,200]
	ld   i1,d3
	call d0 ; call non-native
	.dlab LBE17
	pop  rt,d3
	ret
	.stabs	"this:r(61,9)",64,0,5,6
	.stabn	192,0,0,LBB18-__ZN10MainScreenC2Ev
	.stabn	224,0,0,LBE18-__ZN10MainScreenC2Ev
	.stabs	"this:r(73,14)",64,0,5,7
	.stabn	192,0,0,LBB19-__ZN10MainScreenC2Ev
	.stabn	224,0,0,LBE19-__ZN10MainScreenC2Ev
	.stabs	"this:r(0,101)",64,0,5,13
	.stabn	192,0,0,LBB20-__ZN10MainScreenC2Ev
	.stabn	224,0,0,LBE20-__ZN10MainScreenC2Ev
Lscope10:
	.set	%0=__ZN10MainScreen13editBoxReturnEPN8NativeUI7EditBoxE
	.stabs	"this:P(0,99)",64,0,107,12
	.stabs	"editBox:P(0,33)",64,0,107,13
	.global	__ZThn76_N10MainScreen13editBoxReturnEPN8NativeUI7EditBoxE

.func __ZThn76_N10MainScreen13editBoxReturnEPN8NativeUI7EditBoxE, 2, void
	.stabs	"/Users/brzeszczot/workspace/Sterownik/MainScreen.h",132,0,0,Ltext4
Ltext4:
	.line 22
	push rt,fr
	ld   fr,sp
	add  fr,#0x8
	.line 22
	add  i0,#0xffffffb4
	call &%0 ; call non-native
	pop  rt,fr
	ret
Lscope11:
	.stabs	"_ZN10MainScreen13editBoxReturnEPN8NativeUI7EditBoxE:F(0,6)",36,0,107,__ZN10MainScreen13editBoxReturnEPN8NativeUI7EditBoxE
	.stabs	"this:P(0,99)",64,0,107,12
	.stabs	"editBox:P(0,33)",64,0,107,13
	.global	__ZN10MainScreen13editBoxReturnEPN8NativeUI7EditBoxE

.func __ZN10MainScreen13editBoxReturnEPN8NativeUI7EditBoxE, 2, void
	.stabs	"/Users/brzeszczot/workspace/Sterownik/MainScreen.cpp",132,0,0,Ltext5
Ltext5:
	.line 107
	push rt,d0
	ld   fr,sp
	add  fr,#0xc
	.dlab LBB21
	.line 108
	ld   i0,[i0,108]
	ld   r14,[i0]
	ld   d0,[r14,184]
	call d0 ; call non-native
	.dlab LBE21
	pop  rt,d0
	ret
Lscope12:
.data
LC6:
	.ascii "Connecting to,\12%s...\12\0"
LC7:
	.ascii "http.create fail %i\12\0"
.code
	.stabs	"_ZN10MainScreen5startEPKc:F(0,6)",36,0,112,__ZN10MainScreen5startEPKc
	.stabs	"this:P(0,99)",64,0,112,12
	.stabs	"url:P(11,88)",64,0,112,4
	.global	__ZN10MainScreen5startEPKc

.func __ZN10MainScreen5startEPKc, 2, void
	.line 112
	push rt,d1
	sub  sp,#0x4
	ld   fr,sp
	add  fr,#0x14
	ld   d1,i0
	ld   d0,i1
	.dlab LBB22
	.dlab LBB23
	.line 113
	ld   [sp],i1
	ld   i0,#LC6
	call &_printf ; call non-native
	.line 115
	add  d1,#0x478
	ld   i0,d1
	call &__ZN6MAUtil10Connection5closeEv ; call non-native
	.line 116
	ld   i0,d1
	ld   i1,d0
	ld   i2,#0x1
	call &__ZN6MAUtil14HttpConnection6createEPKci ; call non-native
	.line 117
	ld   r0,#0x0
	jc   lt,r14,r0,#L65
	.line 123
	ld   i0,d1
	call &__ZN6MAUtil14HttpConnection6finishEv ; call non-native
	.dlab LBE23
	.dlab LBE22
	.line 125
	add  sp,#0x4
	pop  rt,d1
	ret
L65:
	.dlab LBB24
	.dlab LBB25
	.line 119
	ld   [sp],r14
	ld   i0,#LC7
	call &_printf ; call non-native
	.dlab LBE25
	.dlab LBE24
	.line 125
	add  sp,#0x4
	pop  rt,d1
	ret
	.stabs	"res:r(0,3)",64,0,116,30
	.stabn	192,0,0,LBB23-__ZN10MainScreen5startEPKc
	.stabn	224,0,0,LBE23-__ZN10MainScreen5startEPKc
	.stabs	"res:r(0,3)",64,0,116,30
	.stabn	192,0,0,LBB25-__ZN10MainScreen5startEPKc
	.stabn	224,0,0,LBE25-__ZN10MainScreen5startEPKc
Lscope13:
	.set	%1=__ZN10MainScreen13buttonClickedEPN8NativeUI6WidgetE
	.stabs	"this:P(0,99)",64,0,90,12
	.stabs	"button:P(53,73)",64,0,90,13
	.global	__ZThn72_N10MainScreen13buttonClickedEPN8NativeUI6WidgetE

.func __ZThn72_N10MainScreen13buttonClickedEPN8NativeUI6WidgetE, 2, void
	.stabs	"/Users/brzeszczot/workspace/Sterownik/MainScreen.h",132,0,0,Ltext6
Ltext6:
	.line 22
	push rt,fr
	ld   fr,sp
	add  fr,#0x8
	.line 22
	add  i0,#0xffffffb8
	call &%1 ; call non-native
	pop  rt,fr
	ret
Lscope14:
	.stabs	"_ZN10MainScreen13buttonClickedEPN8NativeUI6WidgetE:F(0,6)",36,0,90,__ZN10MainScreen13buttonClickedEPN8NativeUI6WidgetE
	.stabs	"this:P(0,99)",64,0,90,6
	.stabs	"button:P(53,73)",64,0,90,13
	.global	__ZN10MainScreen13buttonClickedEPN8NativeUI6WidgetE

.func __ZN10MainScreen13buttonClickedEPN8NativeUI6WidgetE, 2, void
	.stabs	"/Users/brzeszczot/workspace/Sterownik/MainScreen.cpp",132,0,0,Ltext7
Ltext7:
	.line 90
	push rt,d2
	sub  sp,#0x4
	ld   fr,sp
	add  fr,#0x18
	ld   d2,i0
	.dlab LBB26
	.dlab LBB27
	.dlab LBB28
	.line 91
	ld   r14,[i0,112]
	jc   eq,r14,i1,#L71
L67:
	.dlab LBE28
	.dlab LBE27
	.dlab LBE26
	.line 104
	add  sp,#0x4
	pop  rt,d2
	ret
L71:
	.dlab LBB29
	.dlab LBB30
	.dlab LBB31
	.dlab LBB32
	.line 93
	ld   d0,fr
	add  d0,#0xffffffe8
	ld   i1,[i0,108]
	ld   r14,[i1]
	ld   d1,[r14,164]
	ld   i0,d0
	call d1 ; call non-native
	.line 94
	ld   i0,d0
	call &__ZNK6MAUtil11BasicStringIcE5c_strEv ; call non-native
	ld   i0,d2
	ld   i1,r14
	call &__ZN10MainScreen5startEPKc ; call non-native
	ld   i0,d0
	call &__ZN6MAUtil11BasicStringIcED1Ev ; call non-native
	jp   #L67
	.dlab LBE32
	.dlab LBE31
	.dlab LBE30
	.dlab LBE29
	.stabs	"password:(48,1)",128,0,93,-24
	.stabn	192,0,0,LBB32-__ZN10MainScreen13buttonClickedEPN8NativeUI6WidgetE
	.stabn	224,0,0,LBE32-__ZN10MainScreen13buttonClickedEPN8NativeUI6WidgetE
Lscope15:
	.set	%2=__ZN10MainScreen12httpFinishedEPN6MAUtil14HttpConnectionEi
	.stabs	"this:P(0,99)",64,0,134,12
	.stabs	"http:P(0,43)",64,0,134,13
	.stabs	"result:P(0,3)",64,0,134,14
	.global	__ZThn80_N10MainScreen12httpFinishedEPN6MAUtil14HttpConnectionEi

.func __ZThn80_N10MainScreen12httpFinishedEPN6MAUtil14HttpConnectionEi, 3, void
	.stabs	"/Users/brzeszczot/workspace/Sterownik/MainScreen.h",132,0,0,Ltext8
Ltext8:
	.line 22
	push rt,fr
	ld   fr,sp
	add  fr,#0x8
	.line 22
	add  i0,#0xffffffb0
	call &%2 ; call non-native
	pop  rt,fr
	ret
Lscope16:
.data
LC8:
	.ascii "HTTP %i\12\0"
LC9:
	.ascii "content-length\0"
LC10:
	.ascii "content-length: %s bytes\12\0"
LC11:
	.ascii "No content-length\0"
.code
	.stabs	"_ZN10MainScreen12httpFinishedEPN6MAUtil14HttpConnectionEi:F(0,6)",36,0,134,__ZN10MainScreen12httpFinishedEPN6MAUtil14HttpConnectionEi
	.stabs	"this:P(0,99)",64,0,134,6
	.stabs	"http:P(0,43)",64,0,134,13
	.stabs	"result:P(0,3)",64,0,134,4
	.global	__ZN10MainScreen12httpFinishedEPN6MAUtil14HttpConnectionEi

.func __ZN10MainScreen12httpFinishedEPN6MAUtil14HttpConnectionEi, 3, void
	.stabs	"/Users/brzeszczot/workspace/Sterownik/MainScreen.cpp",132,0,0,Ltext9
Ltext9:
	.line 134
	push rt,d3
	sub  sp,#0xc
	ld   fr,sp
	add  fr,#0x24
	ld   d2,i0
	ld   d0,i2
	.dlab LBB33
	.dlab LBB34
	.line 135
	ld   [sp],i2
	ld   i0,#LC8
	call &_printf ; call non-native
	.line 136
	ld   r0,#0x0
	jc   le,d0,r0,#L73
	.line 140
	ld   d3,fr
	add  d3,#0xffffffe4
	ld   i0,d3
	call &__ZN6MAUtil11BasicStringIcEC1Ev ; call non-native
	.line 141
	ld   d0,d2
	add  d0,#0x478
	ld   i0,d0
	ld   i1,#LC9
	ld   i2,d3
	call &__ZN6MAUtil14HttpConnection17getResponseHeaderEPKcPNS_11BasicStringIcEE ; call non-native
	.dlab LBB35
	.line 143
	ld   r0,#0x0
	jc   le,r14,r0,#L75
	.dlab LBB36
	.line 144
	ld   i0,d3
	call &__ZNK6MAUtil11BasicStringIcE5c_strEv ; call non-native
	ld   [sp],r14
	ld   i0,#LC10
	call &_printf ; call non-native
	.line 145
	ld   i0,d3
	call &__ZNK6MAUtil11BasicStringIcE5c_strEv ; call non-native
	ld   i0,r14
	call &_atoi ; call non-native
	ld   i2,r14
	.line 146
	ld   r14,#0x3ff
	jc   le,i2,r14,#L76
	.line 148
	ld   i2,r14
L76:
	.line 150
	ld   r14,i2
	add  r14,d2
	ld   r0,#0x0
	ld.b [r14,120],r0
	.line 151
	ld   d1,d2
	add  d1,#0x78
	ld   i0,d0
	ld   i1,d1
	call &__ZN6MAUtil10Connection4readEPvi ; call non-native
L78:
	.dlab LBE36
	.line 163
	ld   d0,fr
	add  d0,#0xffffffe0
	ld   i0,d0
	ld   i1,d1
	call &__ZN6MAUtil11BasicStringIcEC1EPKc ; call non-native
	ld   i0,[d2,88]
	ld   r14,[i0]
	ld   d1,[r14,160]
	ld   i1,d0
	call d1 ; call non-native
	ld   i0,d0
	call &__ZN6MAUtil11BasicStringIcED1Ev ; call non-native
	.dlab LBE35
	ld   i0,d3
	call &__ZN6MAUtil11BasicStringIcED1Ev ; call non-native
L73:
	.dlab LBE34
	.dlab LBE33
	.line 165
	add  sp,#0xc
	pop  rt,d3
	ret
L75:
	.dlab LBB37
	.dlab LBB38
	.dlab LBB39
	.line 157
	ld   i0,#LC11
	call &_puts ; call non-native
	.line 158
	ld   d1,d2
	add  d1,#0x78
	ld   i0,d0
	ld   i1,d1
	ld   i2,#0x400
	call &__ZN6MAUtil10Connection4recvEPvi ; call non-native
	jp   #L78
	.dlab LBE39
	.dlab LBE38
	.dlab LBE37
	.stabs	"cl:(48,1)",128,0,140,-28
	.stabn	192,0,0,LBB34-__ZN10MainScreen12httpFinishedEPN6MAUtil14HttpConnectionEi
	.stabs	"len:r(0,3)",64,0,145,14
	.stabn	192,0,0,LBB36-__ZN10MainScreen12httpFinishedEPN6MAUtil14HttpConnectionEi
	.stabn	224,0,0,LBE36-__ZN10MainScreen12httpFinishedEPN6MAUtil14HttpConnectionEi
	.stabn	224,0,0,LBE34-__ZN10MainScreen12httpFinishedEPN6MAUtil14HttpConnectionEi
	.stabs	"cl:(48,1)",128,0,140,-28
	.stabn	192,0,0,LBB38-__ZN10MainScreen12httpFinishedEPN6MAUtil14HttpConnectionEi
	.stabn	224,0,0,LBE38-__ZN10MainScreen12httpFinishedEPN6MAUtil14HttpConnectionEi
Lscope17:
	.set	%3=__ZN10MainScreen16connReadFinishedEPN6MAUtil10ConnectionEi
	.stabs	"this:P(0,99)",64,0,171,12
	.stabs	"conn:P(0,45)",64,0,171,13
	.stabs	"result:P(0,3)",64,0,171,14
	.global	__ZThn80_N10MainScreen16connReadFinishedEPN6MAUtil10ConnectionEi

.func __ZThn80_N10MainScreen16connReadFinishedEPN6MAUtil10ConnectionEi, 3, void
	.stabs	"/Users/brzeszczot/workspace/Sterownik/MainScreen.h",132,0,0,Ltext10
Ltext10:
	.line 22
	push rt,fr
	ld   fr,sp
	add  fr,#0x8
	.line 22
	add  i0,#0xffffffb0
	call &%3 ; call non-native
	pop  rt,fr
	ret
Lscope18:
	.stabs	"_ZN10MainScreen16connReadFinishedEPN6MAUtil10ConnectionEi:F(0,6)",36,0,171,__ZN10MainScreen16connReadFinishedEPN6MAUtil10ConnectionEi
	.stabs	"this:P(0,99)",64,0,171,12
	.stabs	"conn:P(0,45)",64,0,171,13
	.stabs	"result:P(0,3)",64,0,171,14
	.global	__ZN10MainScreen16connReadFinishedEPN6MAUtil10ConnectionEi

.func __ZN10MainScreen16connReadFinishedEPN6MAUtil10ConnectionEi, 3, void
	.stabs	"/Users/brzeszczot/workspace/Sterownik/MainScreen.cpp",132,0,0,Ltext11
Ltext11:
	.line 171
	push fr,fr
	ld   fr,sp
	add  fr,#0x4
	.line 171
	pop  fr,fr
	ret
Lscope19:
	.set	%4=__ZN10MainScreen16connRecvFinishedEPN6MAUtil10ConnectionEi
	.stabs	"this:P(0,99)",64,0,179,12
	.stabs	"conn:P(0,45)",64,0,179,13
	.stabs	"result:P(0,3)",64,0,179,14
	.global	__ZThn80_N10MainScreen16connRecvFinishedEPN6MAUtil10ConnectionEi

.func __ZThn80_N10MainScreen16connRecvFinishedEPN6MAUtil10ConnectionEi, 3, void
	.stabs	"/Users/brzeszczot/workspace/Sterownik/MainScreen.h",132,0,0,Ltext12
Ltext12:
	.line 22
	push rt,fr
	ld   fr,sp
	add  fr,#0x8
	.line 22
	add  i0,#0xffffffb0
	call &%4 ; call non-native
	pop  rt,fr
	ret
Lscope20:
	.stabs	"_ZN10MainScreen16connRecvFinishedEPN6MAUtil10ConnectionEi:F(0,6)",36,0,179,__ZN10MainScreen16connRecvFinishedEPN6MAUtil10ConnectionEi
	.stabs	"this:P(0,99)",64,0,179,12
	.stabs	"conn:P(0,45)",64,0,179,13
	.stabs	"result:P(0,3)",64,0,179,14
	.global	__ZN10MainScreen16connRecvFinishedEPN6MAUtil10ConnectionEi

.func __ZN10MainScreen16connRecvFinishedEPN6MAUtil10ConnectionEi, 3, void
	.stabs	"/Users/brzeszczot/workspace/Sterownik/MainScreen.cpp",132,0,0,Ltext13
Ltext13:
	.line 179
	push fr,fr
	ld   fr,sp
	add  fr,#0x4
	.line 179
	pop  fr,fr
	ret
Lscope21:
.data
LC12:
	.ascii "TEST_EMULATOR\0"
.code
	.stabs	"_Z41__static_initialization_and_destruction_0ii:f(0,6)",36,0,181,__Z41__static_initialization_and_destruction_0ii
	.stabs	"__initialize_p:P(0,3)",64,0,181,12
	.stabs	"__priority:P(0,3)",64,0,181,13

.func __Z41__static_initialization_and_destruction_0ii, 2, void
	.line 181
	push rt,fr
	ld   fr,sp
	add  fr,#0x8
	.stabs	"/Applications/MoSync/include/Ads/Banner.h",132,0,0,Ltext14
Ltext14:
	.line 99
	ld   r14,#0xffff
	jc   eq,i1,r14,#L87
L83:
	.stabs	"/Users/brzeszczot/workspace/Sterownik/MainScreen.cpp",132,0,0,Ltext15
Ltext15:
	.line 181
	pop  rt,fr
	ret
L87:
	.stabs	"/Applications/MoSync/include/Ads/Banner.h",132,0,0,Ltext16
Ltext16:
	.line 99
	ld   r14,#0x1
	jc   eq,i0,r14,#L88
	ld   r14,#0x0
	jc   ne,i0,r14,#L83
	ld   i0,#__ZN3Ads13TEST_EMULATORE
	call &__ZN6MAUtil11BasicStringIcED1Ev ; call non-native
	.stabs	"/Users/brzeszczot/workspace/Sterownik/MainScreen.cpp",132,0,0,Ltext17
Ltext17:
	.line 181
	pop  rt,fr
	ret
L88:
	.stabs	"/Applications/MoSync/include/Ads/Banner.h",132,0,0,Ltext18
Ltext18:
	.line 99
	ld   i0,#__ZN3Ads13TEST_EMULATORE
	ld   i1,#LC12
	call &__ZN6MAUtil11BasicStringIcEC1EPKc ; call non-native
	.stabs	"/Users/brzeszczot/workspace/Sterownik/MainScreen.cpp",132,0,0,Ltext19
Ltext19:
	.line 181
	pop  rt,fr
	ret
Lscope22:
	.stabs	"_GLOBAL__I__ZN10MainScreenC2Ev:f(0,6)",36,0,182,__GLOBAL__I__ZN10MainScreenC2Ev

.func __GLOBAL__I__ZN10MainScreenC2Ev, 0, void
	.line 182
	push rt,fr
	ld   fr,sp
	add  fr,#0x8
	.line 182
	ld   i0,#0x1
	ld   i1,#0xffff
	call &__Z41__static_initialization_and_destruction_0ii ; call non-native
	pop  rt,fr
	ret
Lscope23:
	.stabs	"_GLOBAL__D__ZN10MainScreenC2Ev:f(0,6)",36,0,183,__GLOBAL__D__ZN10MainScreenC2Ev

.func __GLOBAL__D__ZN10MainScreenC2Ev, 0, void
	.line 183
	push rt,fr
	ld   fr,sp
	add  fr,#0x8
	.line 183
	ld   i0,#0x0
	ld   i1,#0xffff
	call &__Z41__static_initialization_and_destruction_0ii ; call non-native
	pop  rt,fr
	ret
Lscope24:
	.stabs	"_ZN3Ads13TEST_EMULATORE:S(53,35)",40,0,99,__ZN3Ads13TEST_EMULATORE
	.text
	.stabs "",100,0,0,Letext
Letext:
