.model full
	.sourcedir '/Users/brzeszczot/workspace/Sterownik/'
	.sourcefile '/Users/brzeszczot/workspace/Sterownik/main.cpp'
	.stabs	"gcc2_compiled.",60,0,0,0
	.stabs	"__vtbl_ptr_type:t(0,1)=*(0,2)=f(0,3)=r(0,3);-2147483648;2147483647;",128,0,0,0
	.stabs	"bool:t(0,4)=@s8;-16;",128,0,0,0
	.stabs	"wchar_t:t(0,5)=@s16;r(0,5);0;65535;",128,0,0,0
	.stabs	"void:t(0,6)=(0,6)",128,0,0,0
	.stabs	"long double:t(0,7)=r(0,3);8;0;",128,0,0,0
	.stabs	"double:t(0,8)=r(0,3);8;0;",128,0,0,0
	.stabs	"float:t(0,9)=r(0,3);4;0;",128,0,0,0
	.stabs	"unsigned char:t(0,10)=@s8;r(0,10);0;255;",128,0,0,0
	.stabs	"signed char:t(0,11)=@s8;r(0,11);-128;127;",128,0,0,0
	.stabs	"short unsigned int:t(0,12)=@s16;r(0,12);0;65535;",128,0,0,0
	.stabs	"short int:t(0,13)=@s16;r(0,13);-32768;32767;",128,0,0,0
	.stabs	"long long unsigned int:t(0,14)=@s64;r(0,14);0000000000000;01777777777777777777777;",128,0,0,0
	.stabs	"long long int:t(0,15)=@s64;r(0,15);01000000000000000000000;0777777777777777777777;",128,0,0,0
	.stabs	"long unsigned int:t(0,16)=r(0,16);0000000000000;0037777777777;",128,0,0,0
	.stabs	"unsigned int:t(0,17)=r(0,17);0000000000000;0037777777777;",128,0,0,0
	.stabs	"long int:t(0,18)=r(0,18);-2147483648;2147483647;",128,0,0,0
	.stabs	"int:t(0,3)",128,0,0,0
	.stabs	"char:t(0,19)=r(0,19);0;127;",128,0,0,0
	.stabs	"__builtin_va_list:t(0,20)=*(0,6)",128,0,0,0
	.stabs	"complex long double:t(0,21)=R3;16;0;",128,0,0,0
	.stabs	"complex double:t(0,22)=R3;16;0;",128,0,0,0
	.stabs	"complex float:t(0,23)=R3;8;0;",128,0,0,0
	.stabs	"complex int:t(0,24)=s8real:(0,3),0,32;imag:(0,3),32,32;;",128,0,0,0
	.stabs	"/Applications/MoSync/include/ma.h",130,0,0,0
	.stabs	"/Applications/MoSync/include/maapi.h",130,0,0,0
	.stabs	"/Applications/MoSync/include/maapi_defs.h",130,0,0,0
	.stabs	"MA_DV:Tt(3,1)=u8:(3,2)=s8hi:(0,3),0,32;lo:(0,3),32,32;;,0,64;ll:(0,15),0,64;d:(0,8),0,64;operator=::(3,3)=#(3,1),(3,4)=&(3,1),(3,5)=*(3,1),(3,6)=&(3,7)=k(3,1),(0,6);:_ZN5MA_DVaSERKS_;2A.;__base_ctor::(3,8)=#(3,1),(0,6),(3,5),(3,6),(0,6);:_ZN5MA_DVC2ERKS_;2A.;__comp_ctor::(3,8):_ZN5MA_DVC1ERKS_;2A.;__base_ctor::(3,9)=#(3,1),(0,6),(3,5),(0,6);:_ZN5MA_DVC2Ev;2A.;__comp_ctor::(3,9):_ZN5MA_DVC1Ev;2A.;;",128,0,60,0
	.stabs	"MA_DV:t(3,10)=(3,1)",128,0,75,0
	.stabs	"MA_FV:Tt(3,11)=u4f:(0,9),0,32;i:(0,3),0,32;operator=::(3,12)=#(3,11),(3,13)=&(3,11),(3,14)=*(3,11),(3,15)=&(3,16)=k(3,11),(0,6);:_ZN5MA_FVaSERKS_;2A.;__base_ctor::(3,17)=#(3,11),(0,6),(3,14),(3,15),(0,6);:_ZN5MA_FVC2ERKS_;2A.;__comp_ctor::(3,17):_ZN5MA_FVC1ERKS_;2A.;__base_ctor::(3,18)=#(3,11),(0,6),(3,14),(0,6);:_ZN5MA_FVC2Ev;2A.;__comp_ctor::(3,18):_ZN5MA_FVC1Ev;2A.;;",128,0,78,0
	.stabs	"MA_FV:t(3,19)=(3,11)",128,0,81,0
	.stabn	162,0,0,0
	.stabs	"wchar:t(2,1)=(0,5)",128,0,668,0
	.stabs	"ushort:t(2,2)=(0,12)",128,0,680,0
	.stabs	"uint:t(2,3)=(0,17)",128,0,681,0
	.stabs	"MAString:t(2,4)=(2,5)=*(0,19)",128,0,684,0
	.stabs	"MAWString:t(2,6)=(2,7)=*(2,1)",128,0,685,0
	.stabs	"MAAddress:t(2,8)=(2,9)=*(0,6)",128,0,686,0
	.stabs	"MAHandle:t(2,10)=(0,3)",128,0,687,0
	.stabs	"MAExtent:t(2,11)=(0,3)",128,0,688,0
	.stabs	"byte:t(2,12)=(0,10)",128,0,689,0
	.stabs	"ulong:t(2,13)=(0,16)",128,0,690,0
	.stabs	"longlong:t(2,14)=(0,15)",128,0,691,0
	.stabs	"MAExtensionModule:t(2,15)=(0,3)",128,0,692,0
	.stabs	"MAExtensionFunction:t(2,16)=(0,3)",128,0,693,0
	.stabs	"MAAudioData:t(2,17)=(0,3)",128,0,695,0
	.stabs	"MAAudioInstance:t(2,18)=(0,3)",128,0,697,0
	.stabs	"MAPoint2d:Tt(2,19)=s8x:(0,3),0,32;y:(0,3),32,32;operator=::(2,20)=#(2,19),(2,21)=&(2,19),(2,22)=*(2,19),(2,23)=&(2,24)=k(2,19),(0,6);:_ZN9MAPoint2daSERKS_;2A.;__base_ctor::(2,25)=#(2,19),(0,6),(2,22),(2,23),(0,6);:_ZN9MAPoint2dC2ERKS_;2A.;__comp_ctor::(2,25):_ZN9MAPoint2dC1ERKS_;2A.;__base_ctor::(2,26)=#(2,19),(0,6),(2,22),(0,6);:_ZN9MAPoint2dC2Ev;2A.;__comp_ctor::(2,26):_ZN9MAPoint2dC1Ev;2A.;;",128,0,3633,0
	.stabs	"MAPoint2d:t(2,27)=(2,19)",128,0,3636,0
	.stabs	"MARect:Tt(2,28)=s16left:(0,3),0,32;top:(0,3),32,32;width:(0,3),64,32;height:(0,3),96,32;operator=::(2,29)=#(2,28),(2,30)=&(2,28),(2,31)=*(2,28),(2,32)=&(2,33)=k(2,28),(0,6);:_ZN6MARectaSERKS_;2A.;__base_ctor::(2,34)=#(2,28),(0,6),(2,31),(2,32),(0,6);:_ZN6MARectC2ERKS_;2A.;__comp_ctor::(2,34):_ZN6MARectC1ERKS_;2A.;__base_ctor::(2,35)=#(2,28),(0,6),(2,31),(0,6);:_ZN6MARectC2Ev;2A.;__comp_ctor::(2,35):_ZN6MARectC1Ev;2A.;;",128,0,3655,0
	.stabs	"MARect:t(2,36)=(2,28)",128,0,3660,0
	.stabs	"MACopyData:Tt(2,37)=s20dst:(2,10),0,32;dstOffset:(0,3),32,32;src:(2,10),64,32;srcOffset:(0,3),96,32;size:(0,3),128,32;operator=::(2,38)=#(2,37),(2,39)=&(2,37),(2,40)=*(2,37),(2,41)=&(2,42)=k(2,37),(0,6);:_ZN10MACopyDataaSERKS_;2A.;__base_ctor::(2,43)=#(2,37),(0,6),(2,40),(2,41),(0,6);:_ZN10MACopyDataC2ERKS_;2A.;__comp_ctor::(2,43):_ZN10MACopyDataC1ERKS_;2A.;__base_ctor::(2,44)=#(2,37),(0,6),(2,40),(0,6);:_ZN10MACopyDataC2Ev;2A.;__comp_ctor::(2,44):_ZN10MACopyDataC1Ev;2A.;;",128,0,3676,0
	.stabs	"MACopyData:t(2,45)=(2,37)",128,0,3682,0
	.stabs	"MAConnAddrInet4:Tt(2,46)=s8addr:(0,3),0,32;port:(0,3),32,32;operator=::(2,47)=#(2,46),(2,48)=&(2,46),(2,49)=*(2,46),(2,50)=&(2,51)=k(2,46),(0,6);:_ZN15MAConnAddrInet4aSERKS_;2A.;__base_ctor::(2,52)=#(2,46),(0,6),(2,49),(2,50),(0,6);:_ZN15MAConnAddrInet4C2ERKS_;2A.;__comp_ctor::(2,52):_ZN15MAConnAddrInet4C1ERKS_;2A.;__base_ctor::(2,53)=#(2,46),(0,6),(2,49),(0,6);:_ZN15MAConnAddrInet4C2Ev;2A.;__comp_ctor::(2,53):_ZN15MAConnAddrInet4C1Ev;2A.;;",128,0,3698,0
	.stabs	"MAConnAddrInet4:t(2,54)=(2,46)",128,0,3701,0
	.stabs	"MAConnAddrInet6:Tt(2,55)=s20port:(0,3),0,32;addr:(2,56)=ar(2,57)=r(2,57);0000000000000;0037777777777;;0;15;(2,12),32,128;operator=::(2,58)=#(2,55),(2,59)=&(2,55),(2,60)=*(2,55),(2,61)=&(2,62)=k(2,55),(0,6);:_ZN15MAConnAddrInet6aSERKS_;2A.;__base_ctor::(2,63)=#(2,55),(0,6),(2,60),(2,61),(0,6);:_ZN15MAConnAddrInet6C2ERKS_;2A.;__comp_ctor::(2,63):_ZN15MAConnAddrInet6C1ERKS_;2A.;__base_ctor::(2,64)=#(2,55),(0,6),(2,60),(0,6);:_ZN15MAConnAddrInet6C2Ev;2A.;__comp_ctor::(2,64):_ZN15MAConnAddrInet6C1Ev;2A.;;",128,0,3717,0
	.stabs	"MAConnAddrInet6:t(2,65)=(2,55)",128,0,3720,0
	.stabs	"MABtAddr:Tt(2,66)=s8a:(2,67)=ar(2,57);0;5;(2,12),0,48;operator=::(2,68)=#(2,66),(2,69)=&(2,66),(2,70)=*(2,66),(2,71)=&(2,72)=k(2,66),(0,6);:_ZN8MABtAddraSERKS_;2A.;__base_ctor::(2,73)=#(2,66),(0,6),(2,70),(2,71),(0,6);:_ZN8MABtAddrC2ERKS_;2A.;__comp_ctor::(2,73):_ZN8MABtAddrC1ERKS_;2A.;__base_ctor::(2,74)=#(2,66),(0,6),(2,70),(0,6);:_ZN8MABtAddrC2Ev;2A.;__comp_ctor::(2,74):_ZN8MABtAddrC1Ev;2A.;;",128,0,3736,0
	.stabs	"MABtAddr:t(2,75)=(2,66)",128,0,3738,0
	.stabs	"MAConnAddrBt:Tt(2,76)=s12port:(0,3),0,32;addr:(2,75),32,64;operator=::(2,77)=#(2,76),(2,78)=&(2,76),(2,79)=*(2,76),(2,80)=&(2,81)=k(2,76),(0,6);:_ZN12MAConnAddrBtaSERKS_;2A.;__base_ctor::(2,82)=#(2,76),(0,6),(2,79),(2,80),(0,6);:_ZN12MAConnAddrBtC2ERKS_;2A.;__comp_ctor::(2,82):_ZN12MAConnAddrBtC1ERKS_;2A.;__base_ctor::(2,83)=#(2,76),(0,6),(2,79),(0,6);:_ZN12MAConnAddrBtC2Ev;2A.;__comp_ctor::(2,83):_ZN12MAConnAddrBtC1Ev;2A.;;",128,0,3754,0
	.stabs	"MAConnAddrBt:t(2,84)=(2,76)",128,0,3757,0
	.stabs	"MAConnAddr:Tt(2,85)=s24family:(0,3),0,32;:(2,86)=u20inet4:(2,54),0,64;bt:(2,84),0,96;inet6:(2,65),0,160;;,32,160;operator=::(2,87)=#(2,85),(2,88)=&(2,85),(2,89)=*(2,85),(2,90)=&(2,91)=k(2,85),(0,6);:_ZN10MAConnAddraSERKS_;2A.;__base_ctor::(2,92)=#(2,85),(0,6),(2,89),(2,90),(0,6);:_ZN10MAConnAddrC2ERKS_;2A.;__comp_ctor::(2,92):_ZN10MAConnAddrC1ERKS_;2A.;__base_ctor::(2,93)=#(2,85),(0,6),(2,89),(0,6);:_ZN10MAConnAddrC2Ev;2A.;__comp_ctor::(2,93):_ZN10MAConnAddrC1Ev;2A.;;",128,0,3773,0
	.stabs	"MAConnAddr:t(2,94)=(2,85)",128,0,3784,0
	.stabs	"MAConnEventData:Tt(2,95)=s12handle:(2,10),0,32;opType:(0,3),32,32;result:(0,3),64,32;operator=::(2,96)=#(2,95),(2,97)=&(2,95),(2,98)=*(2,95),(2,99)=&(2,100)=k(2,95),(0,6);:_ZN15MAConnEventDataaSERKS_;2A.;__base_ctor::(2,101)=#(2,95),(0,6),(2,98),(2,99),(0,6);:_ZN15MAConnEventDataC2ERKS_;2A.;__comp_ctor::(2,101):_ZN15MAConnEventDataC1ERKS_;2A.;__base_ctor::(2,102)=#(2,95),(0,6),(2,98),(0,6);:_ZN15MAConnEventDataC2Ev;2A.;__comp_ctor::(2,102):_ZN15MAConnEventDataC1Ev;2A.;;",128,0,3800,0
	.stabs	"MAConnEventData:t(2,103)=(2,95)",128,0,3809,0
	.stabs	"MASensor:Tt(2,104)=s16type:(0,3),0,32;values:(2,105)=ar(2,57);0;2;(0,9),32,96;operator=::(2,106)=#(2,104),(2,107)=&(2,104),(2,108)=*(2,104),(2,109)=&(2,110)=k(2,104),(0,6);:_ZN8MASensoraSERKS_;2A.;__base_ctor::(2,111)=#(2,104),(0,6),(2,108),(2,109),(0,6);:_ZN8MASensorC2ERKS_;2A.;__comp_ctor::(2,111):_ZN8MASensorC1ERKS_;2A.;__base_ctor::(2,112)=#(2,104),(0,6),(2,108),(0,6);:_ZN8MASensorC2Ev;2A.;__comp_ctor::(2,112):_ZN8MASensorC1Ev;2A.;;",128,0,3825,0
	.stabs	"MASensor:t(2,113)=(2,104)",128,0,3828,0
	.stabs	"MANFCEventData:Tt(2,114)=s12handle:(2,10),0,32;result:(0,3),32,32;dstId:(0,3),64,32;operator=::(2,115)=#(2,114),(2,116)=&(2,114),(2,117)=*(2,114),(2,118)=&(2,119)=k(2,114),(0,6);:_ZN14MANFCEventDataaSERKS_;2A.;__base_ctor::(2,120)=#(2,114),(0,6),(2,117),(2,118),(0,6);:_ZN14MANFCEventDataC2ERKS_;2A.;__comp_ctor::(2,120):_ZN14MANFCEventDataC1ERKS_;2A.;__base_ctor::(2,121)=#(2,114),(0,6),(2,117),(0,6);:_ZN14MANFCEventDataC2Ev;2A.;__comp_ctor::(2,121):_ZN14MANFCEventDataC1Ev;2A.;;",128,0,3844,0
	.stabs	"MANFCEventData:t(2,122)=(2,114)",128,0,3855,0
	.stabs	"MAAdsEventData:Tt(2,123)=s12bannerHandle:(2,10),0,32;bannerEventType:(0,3),32,32;bannerErrorCode:(0,3),64,32;operator=::(2,124)=#(2,123),(2,125)=&(2,123),(2,126)=*(2,123),(2,127)=&(2,128)=k(2,123),(0,6);:_ZN14MAAdsEventDataaSERKS_;2A.;__base_ctor::(2,129)=#(2,123),(0,6),(2,126),(2,127),(0,6);:_ZN14MAAdsEventDataC2ERKS_;2A.;__comp_ctor::(2,129):_ZN14MAAdsEventDataC1ERKS_;2A.;__base_ctor::(2,130)=#(2,123),(0,6),(2,126),(0,6);:_ZN14MAAdsEventDataC2Ev;2A.;__comp_ctor::(2,130):_ZN14MAAdsEventDataC1Ev;2A.;;",128,0,3871,0
	.stabs	"MAAdsEventData:t(2,131)=(2,123)",128,0,3882,0
	.stabs	"MACaptureEventData:Tt(2,132)=s8type:(0,3),0,32;handle:(2,10),32,32;operator=::(2,133)=#(2,132),(2,134)=&(2,132),(2,135)=*(2,132),(2,136)=&(2,137)=k(2,132),(0,6);:_ZN18MACaptureEventDataaSERKS_;2A.;__base_ctor::(2,138)=#(2,132),(0,6),(2,135),(2,136),(0,6);:_ZN18MACaptureEventDataC2ERKS_;2A.;__comp_ctor::(2,138):_ZN18MACaptureEventDataC1ERKS_;2A.;__base_ctor::(2,139)=#(2,132),(0,6),(2,135),(0,6);:_ZN18MACaptureEventDataC2Ev;2A.;__comp_ctor::(2,139):_ZN18MACaptureEventDataC1Ev;2A.;;",128,0,3898,0
	.stabs	"MACaptureEventData:t(2,140)=(2,132)",128,0,3905,0
	.stabs	"MAPurchaseEventData:Tt(2,141)=s16type:(0,3),0,32;state:(0,3),32,32;productHandle:(2,10),64,32;errorCode:(0,3),96,32;operator=::(2,142)=#(2,141),(2,143)=&(2,141),(2,144)=*(2,141),(2,145)=&(2,146)=k(2,141),(0,6);:_ZN19MAPurchaseEventDataaSERKS_;2A.;__base_ctor::(2,147)=#(2,141),(0,6),(2,144),(2,145),(0,6);:_ZN19MAPurchaseEventDataC2ERKS_;2A.;__comp_ctor::(2,147):_ZN19MAPurchaseEventDataC1ERKS_;2A.;__base_ctor::(2,148)=#(2,141),(0,6),(2,144),(0,6);:_ZN19MAPurchaseEventDataC2Ev;2A.;__comp_ctor::(2,148):_ZN19MAPurchaseEventDataC1Ev;2A.;;",128,0,3923,0
	.stabs	"MAPurchaseEventData:t(2,149)=(2,141)",128,0,3948,0
	.stabs	"MAEvent:Tt(2,150)=s20type:(0,3),0,32;:(2,151)=u16:(2,152)=s8key:(0,3),0,32;nativeKey:(0,3),32,32;;,0,64;character:(2,3),0,32;:(2,153)=s12point:(2,27),0,64;touchId:(0,3),64,32;;,0,96;state:(0,3),0,32;conn:(2,103),0,96;:(2,154)=s8textboxResult:(0,3),0,32;textboxLength:(0,3),32,32;;,0,64;:(2,155)=s12imagePickerState:(0,3),0,32;imagePickerItem:(2,10),32,32;imagePickerEncodingType:(0,3),64,32;;,0,96;:(2,156)=s16snapshotImageDataHandle:(2,10),0,32;snapshotSize:(0,3),32,32;snapshotImageDataRepresentation:(0,3),64,32;snapshotReturnCode:(0,3),96,32;;,0,128;:(2,157)=s12mediaType:(0,3),0,32;mediaHandle:(2,10),32,32;operationResultCode:(0,3),64,32;;,0,96;optionsBoxButtonIndex:(0,3),0,32;alertButtonIndex:(0,3),0,32;status:(0,3),0,32;sensor:(2,113),0,128;nfc:(2,122),0,96;adsData:(2,131),0,96;localNotificationHandle:(2,10),0,32;pushNotificationHandle:(2,10),0,32;captureData:(2,140),0,64;data:(2,9),0,32;audioInstance:(2,18),0,32;purchaseData:(2,149),0,128;orientation:(0,3),0,32;;,32,128;operator=::(2,158)=#(2,150),(2,159)=&(2,150),(2,160)=*(2,150),(2,161)=&(2,162)=k(2,150),(0,6);:_ZN7MAEventaSERKS_;2A.;__base_ctor::(2,163)=#(2,150),(0,6),(2,160),(2,161),(0,6);:_ZN7MAEventC2ERKS_;2A.;__comp_ctor::(2,163):_ZN7MAEventC1ERKS_;2A.;__base_ctor::(2,164)=#(2,150),(0,6),(2,160),(0,6);:_ZN7MAEventC2Ev;2A.;__comp_ctor::(2,164):_ZN7MAEventC1Ev;2A.;;",128,0,3964,0
	.stabs	"MAEvent:t(2,165)=(2,150)",128,0,4176,0
	.stabs	"MAPanicReport:Tt(2,166)=s24runtimeId:(0,3),0,32;reportType:(0,3),32,32;time:(0,3),64,32;ip:(0,3),96,32;code:(0,3),128,32;string:(2,167)=ar(2,57);0;0;(0,19),160,8;operator=::(2,168)=#(2,166),(2,169)=&(2,166),(2,170)=*(2,166),(2,171)=&(2,172)=k(2,166),(0,6);:_ZN13MAPanicReportaSERKS_;2A.;__base_ctor::(2,173)=#(2,166),(0,6),(2,170),(2,171),(0,6);:_ZN13MAPanicReportC2ERKS_;2A.;__comp_ctor::(2,173):_ZN13MAPanicReportC1ERKS_;2A.;__base_ctor::(2,174)=#(2,166),(0,6),(2,170),(0,6);:_ZN13MAPanicReportC2Ev;2A.;__comp_ctor::(2,174):_ZN13MAPanicReportC1Ev;2A.;;",128,0,4208,0
	.stabs	"MAPanicReport:t(2,175)=(2,166)",128,0,4230,0
	.stabs	"MABtDevice:Tt(2,176)=s20name:(2,5),0,32;nameBufSize:(0,3),32,32;actualNameLength:(0,3),64,32;address:(2,75),96,64;operator=::(2,177)=#(2,176),(2,178)=&(2,176),(2,179)=*(2,176),(2,180)=&(2,181)=k(2,176),(0,6);:_ZN10MABtDeviceaSERKS_;2A.;__base_ctor::(2,182)=#(2,176),(0,6),(2,179),(2,180),(0,6);:_ZN10MABtDeviceC2ERKS_;2A.;__comp_ctor::(2,182):_ZN10MABtDeviceC1ERKS_;2A.;__base_ctor::(2,183)=#(2,176),(0,6),(2,179),(0,6);:_ZN10MABtDeviceC2Ev;2A.;__comp_ctor::(2,183):_ZN10MABtDeviceC1Ev;2A.;;",128,0,4246,0
	.stabs	"MABtDevice:t(2,184)=(2,176)",128,0,4258,0
	.stabs	"MAUUID:Tt(2,185)=s16i:(2,186)=ar(2,57);0;3;(0,3),0,128;operator=::(2,187)=#(2,185),(2,188)=&(2,185),(2,189)=*(2,185),(2,190)=&(2,191)=k(2,185),(0,6);:_ZN6MAUUIDaSERKS_;2A.;__base_ctor::(2,192)=#(2,185),(0,6),(2,189),(2,190),(0,6);:_ZN6MAUUIDC2ERKS_;2A.;__comp_ctor::(2,192):_ZN6MAUUIDC1ERKS_;2A.;__base_ctor::(2,193)=#(2,185),(0,6),(2,189),(0,6);:_ZN6MAUUIDC2Ev;2A.;__comp_ctor::(2,193):_ZN6MAUUIDC1Ev;2A.;;",128,0,4276,0
	.stabs	"MAUUID:t(2,194)=(2,185)",128,0,4278,0
	.stabs	"MABtServiceSize:Tt(2,195)=s8nameBufSize:(0,3),0,32;nUuids:(0,3),32,32;operator=::(2,196)=#(2,195),(2,197)=&(2,195),(2,198)=*(2,195),(2,199)=&(2,200)=k(2,195),(0,6);:_ZN15MABtServiceSizeaSERKS_;2A.;__base_ctor::(2,201)=#(2,195),(0,6),(2,198),(2,199),(0,6);:_ZN15MABtServiceSizeC2ERKS_;2A.;__comp_ctor::(2,201):_ZN15MABtServiceSizeC1ERKS_;2A.;__base_ctor::(2,202)=#(2,195),(0,6),(2,198),(0,6);:_ZN15MABtServiceSizeC2Ev;2A.;__comp_ctor::(2,202):_ZN15MABtServiceSizeC1Ev;2A.;;",128,0,4294,0
	.stabs	"MABtServiceSize:t(2,203)=(2,195)",128,0,4305,0
	.stabs	"MABtService:Tt(2,204)=s16port:(0,3),0,32;name:(2,5),32,32;nameBufSize:(0,3),64,32;uuids:(2,205)=*(2,194),96,32;operator=::(2,206)=#(2,204),(2,207)=&(2,204),(2,208)=*(2,204),(2,209)=&(2,210)=k(2,204),(0,6);:_ZN11MABtServiceaSERKS_;2A.;__base_ctor::(2,211)=#(2,204),(0,6),(2,208),(2,209),(0,6);:_ZN11MABtServiceC2ERKS_;2A.;__comp_ctor::(2,211):_ZN11MABtServiceC1ERKS_;2A.;__base_ctor::(2,212)=#(2,204),(0,6),(2,208),(0,6);:_ZN11MABtServiceC2Ev;2A.;__comp_ctor::(2,212):_ZN11MABtServiceC1Ev;2A.;;",128,0,4321,0
	.stabs	"MABtService:t(2,213)=(2,204)",128,0,4344,0
	.stabs	"MALocation:Tt(2,214)=s40state:(0,3),0,32;lat:(0,8),32,64;lon:(0,8),96,64;horzAcc:(0,8),160,64;vertAcc:(0,8),224,64;alt:(0,9),288,32;operator=::(2,215)=#(2,214),(2,216)=&(2,214),(2,217)=*(2,214),(2,218)=&(2,219)=k(2,214),(0,6);:_ZN10MALocationaSERKS_;2A.;__base_ctor::(2,220)=#(2,214),(0,6),(2,217),(2,218),(0,6);:_ZN10MALocationC2ERKS_;2A.;__comp_ctor::(2,220):_ZN10MALocationC1ERKS_;2A.;__base_ctor::(2,221)=#(2,214),(0,6),(2,217),(0,6);:_ZN10MALocationC2Ev;2A.;__comp_ctor::(2,221):_ZN10MALocationC1Ev;2A.;;",128,0,4375,0
	.stabs	"MALocation:t(2,222)=(2,214)",128,0,4391,0
	.stabs	"MAFrameBufferInfo:Tt(2,223)=s64sizeInBytes:(0,3),0,32;bytesPerPixel:(0,3),32,32;bitsPerPixel:(0,3),64,32;redMask:(0,3),96,32;redShift:(0,3),128,32;redBits:(0,3),160,32;greenMask:(0,3),192,32;greenShift:(0,3),224,32;greenBits:(0,3),256,32;blueMask:(0,3),288,32;blueShift:(0,3),320,32;blueBits:(0,3),352,32;width:(0,3),384,32;height:(0,3),416,32;pitch:(0,3),448,32;supportsGfxSyscalls:(0,3),480,32;operator=::(2,224)=#(2,223),(2,225)=&(2,223),(2,226)=*(2,223),(2,227)=&(2,228)=k(2,223),(0,6);:_ZN17MAFrameBufferInfoaSERKS_;2A.;__base_ctor::(2,229)=#(2,223),(0,6),(2,226),(2,227),(0,6);:_ZN17MAFrameBufferInfoC2ERKS_;2A.;__comp_ctor::(2,229):_ZN17MAFrameBufferInfoC1ERKS_;2A.;__base_ctor::(2,230)=#(2,223),(0,6),(2,226),(0,6);:_ZN17MAFrameBufferInfoC2Ev;2A.;__comp_ctor::(2,230):_ZN17MAFrameBufferInfoC1Ev;2A.;;",128,0,4409,0
	.stabs	"MAFrameBufferInfo:t(2,231)=(2,223)",128,0,4426,0
	.stabs	"MA_CAMERA_FORMAT:Tt(2,232)=s8width:(0,3),0,32;height:(0,3),32,32;operator=::(2,233)=#(2,232),(2,234)=&(2,232),(2,235)=*(2,232),(2,236)=&(2,237)=k(2,232),(0,6);:_ZN16MA_CAMERA_FORMATaSERKS_;2A.;__base_ctor::(2,238)=#(2,232),(0,6),(2,235),(2,236),(0,6);:_ZN16MA_CAMERA_FORMATC2ERKS_;2A.;__comp_ctor::(2,238):_ZN16MA_CAMERA_FORMATC1ERKS_;2A.;__base_ctor::(2,239)=#(2,232),(0,6),(2,235),(0,6);:_ZN16MA_CAMERA_FORMATC2Ev;2A.;__comp_ctor::(2,239):_ZN16MA_CAMERA_FORMATC1Ev;2A.;;",128,0,4443,0
	.stabs	"MA_CAMERA_FORMAT:t(2,240)=(2,232)",128,0,4446,0
	.stabs	"MADBBlob:Tt(2,241)=s8data:(2,8),0,32;size:(0,3),32,32;operator=::(2,242)=#(2,241),(2,243)=&(2,241),(2,244)=*(2,241),(2,245)=&(2,246)=k(2,241),(0,6);:_ZN8MADBBlobaSERKS_;2A.;__base_ctor::(2,247)=#(2,241),(0,6),(2,244),(2,245),(0,6);:_ZN8MADBBlobC2ERKS_;2A.;__comp_ctor::(2,247):_ZN8MADBBlobC1ERKS_;2A.;__base_ctor::(2,248)=#(2,241),(0,6),(2,244),(0,6);:_ZN8MADBBlobC2Ev;2A.;__comp_ctor::(2,248):_ZN8MADBBlobC1Ev;2A.;;",128,0,4460,0
	.stabs	"MADBBlob:t(2,249)=(2,241)",128,0,4463,0
	.stabs	"MADBText:Tt(2,250)=s8addr:(2,4),0,32;length:(0,3),32,32;operator=::(2,251)=#(2,250),(2,252)=&(2,250),(2,253)=*(2,250),(2,254)=&(2,255)=k(2,250),(0,6);:_ZN8MADBTextaSERKS_;2A.;__base_ctor::(2,256)=#(2,250),(0,6),(2,253),(2,254),(0,6);:_ZN8MADBTextC2ERKS_;2A.;__comp_ctor::(2,256):_ZN8MADBTextC1ERKS_;2A.;__base_ctor::(2,257)=#(2,250),(0,6),(2,253),(0,6);:_ZN8MADBTextC2Ev;2A.;__comp_ctor::(2,257):_ZN8MADBTextC1Ev;2A.;;",128,0,4477,0
	.stabs	"MADBText:t(2,258)=(2,250)",128,0,4482,0
	.stabs	"MADBValue:Tt(2,259)=s12:(2,260)=u8i:(0,3),0,32;d:(0,8),0,64;blob:(2,249),0,64;dataHandle:(2,10),0,32;text:(2,258),0,64;i64:(2,14),0,64;;,0,64;type:(0,3),64,32;operator=::(2,261)=#(2,259),(2,262)=&(2,259),(2,263)=*(2,259),(2,264)=&(2,265)=k(2,259),(0,6);:_ZN9MADBValueaSERKS_;2A.;__base_ctor::(2,266)=#(2,259),(0,6),(2,263),(2,264),(0,6);:_ZN9MADBValueC2ERKS_;2A.;__comp_ctor::(2,266):_ZN9MADBValueC1ERKS_;2A.;__base_ctor::(2,267)=#(2,259),(0,6),(2,263),(0,6);:_ZN9MADBValueC2Ev;2A.;__comp_ctor::(2,267):_ZN9MADBValueC1Ev;2A.;;",128,0,4497,0
	.stabs	"MADBValue:t(2,268)=(2,259)",128,0,4508,0
	.stabs	"MAPushNotificationData:Tt(2,269)=s24type:(0,3),0,32;alertMessage:(2,4),32,32;alertMessageSize:(0,3),64,32;soundFileName:(2,4),96,32;soundFileNameSize:(0,3),128,32;badgeIcon:(0,3),160,32;operator=::(2,270)=#(2,269),(2,271)=&(2,269),(2,272)=*(2,269),(2,273)=&(2,274)=k(2,269),(0,6);:_ZN22MAPushNotificationDataaSERKS_;2A.;__base_ctor::(2,275)=#(2,269),(0,6),(2,272),(2,273),(0,6);:_ZN22MAPushNotificationDataC2ERKS_;2A.;__comp_ctor::(2,275):_ZN22MAPushNotificationDataC1ERKS_;2A.;__base_ctor::(2,276)=#(2,269),(0,6),(2,272),(0,6);:_ZN22MAPushNotificationDataC2Ev;2A.;__comp_ctor::(2,276):_ZN22MAPushNotificationDataC1Ev;2A.;;",128,0,4525,0
	.stabs	"MAPushNotificationData:t(2,277)=(2,269)",128,0,4554,0
	.stabn	162,0,0,0
	.stabs	"size_t:t(1,1)=(0,16)",128,0,32,0
	.stabn	162,0,0,0
	.stabs	"/Applications/MoSync/include/MAUtil/String.h",130,0,0,0
	.stabs	"/Applications/MoSync/include/MAUtil/RefCounted.h",130,0,0,0
	.stabn	162,0,0,0
	.stabs	"String:t(4,1)=(4,2)=xsBasicString<char>:",128,0,279,0
	.stabs	"WString:t(4,3)=(4,4)=xsBasicString<wchar_t>:",128,0,280,0
	.stabn	162,0,0,0
	.stabs	"/Applications/MoSync/include/MAUtil/Moblet.h",130,0,0,0
	.stabs	"/Applications/MoSync/include/MAUtil/Environment.h",130,0,0,0
	.stabs	"PLATFORM_TYPE:t(7,1)=eOS_IOS:0,OS_ANDROID:1,OS_WIN:2,OS_UNKNOWN:3,;",128,0,48,0
	.stabs	"Environment::TimerEventInstance:Tt(7,2)=s20e:(7,3)=*(7,4)=xsTimerListener:,0,32;addTime:(0,3),32,32;period:(0,3),64,32;numTimes:(0,3),96,32;nextInvoke:(0,3),128,32;__base_ctor::(7,5)=#(7,2),(0,6),(7,6)=*(7,2),(7,3),(0,3),(0,3),(0,6);:_ZN6MAUtil11Environment18TimerEventInstanceC2EPNS_13TimerListenerEii;2A.;__comp_ctor::(7,5):_ZN6MAUtil11Environment18TimerEventInstanceC1EPNS_13TimerListenerEii;2A.;operator=::(7,7)=#(7,2),(7,8)=&(7,2),(7,6),(7,9)=&(7,10)=k(7,2),(0,6);:_ZN6MAUtil11Environment18TimerEventInstanceaSERKS1_;2A.;__base_ctor::(7,11)=#(7,2),(0,6),(7,6),(7,9),(0,6);:_ZN6MAUtil11Environment18TimerEventInstanceC2ERKS1_;2A.;__comp_ctor::(7,11):_ZN6MAUtil11Environment18TimerEventInstanceC1ERKS1_;2A.;;",128,0,546,0
	.stabs	"Vector<MAUtil::ListenerSet<MAUtil::KeyListener>::Combo>:Tt(7,12)=s12mSize:/1(0,3),0,32;mCapacity:/1(0,3),32,32;mData:/1(7,13)=*(7,14)=xsCombo:,64,32;__base_ctor::(7,15)=#(7,12),(0,6),(7,16)=*(7,12),(0,3),(0,6);:_ZN6MAUtil6VectorINS_11ListenerSetINS_11KeyListenerEE5ComboEEC2Ei;2A.;__comp_ctor::(7,15):_ZN6MAUtil6VectorINS_11ListenerSetINS_11KeyListenerEE5ComboEEC1Ei;2A.;__base_ctor::(7,17)=#(7,12),(0,6),(7,16),(7,18)=*(7,19)=k(7,14),(0,3),(0,6);:_ZN6MAUtil6VectorINS_11ListenerSetINS_11KeyListenerEE5ComboEEC2EPKS4_i;2A.;__comp_ctor::(7,17):_ZN6MAUtil6VectorINS_11ListenerSetINS_11KeyListenerEE5ComboEEC1EPKS4_i;2A.;__base_ctor::(7,20)=#(7,12),(0,6),(7,16),(7,21)=&(7,22)=k(7,12),(0,6);:_ZN6MAUtil6VectorINS_11ListenerSetINS_11KeyListenerEE5ComboEEC2ERKS5_;2A.;__comp_ctor::(7,20):_ZN6MAUtil6VectorINS_11ListenerSetINS_11KeyListenerEE5ComboEEC1ERKS5_;2A.;__base_dtor::(7,23)=#(7,12),(0,6),(7,16),(0,6);:_ZN6MAUtil6VectorINS_11ListenerSetINS_11KeyListenerEE5ComboEED2Ev;2A.;__comp_dtor::(7,23):_ZN6MAUtil6VectorINS_11ListenerSetINS_11KeyListenerEE5ComboEED1Ev;2A.;operator=::(7,24)=#(7,12),(7,25)=&(7,12),(7,16),(7,21),(0,6);:_ZN6MAUtil6VectorINS_11ListenerSetINS_11KeyListenerEE5ComboEEaSERKS5_;2A.;add::(7,26)=#(7,12),(0,6),(7,16),(7,27)=&(7,19),(0,6);:_ZN6MAUtil6VectorINS_11ListenerSetINS_11KeyListenerEE5ComboEE3addERKS4_;2A.(7,17):_ZN6MAUtil6VectorINS_11ListenerSetINS_11KeyListenerEE5ComboEE3addEPKS4_i;2A.;remove::(7,28)=#(7,12),(0,6),(7,16),(7,13),(0,6);:_ZN6MAUtil6VectorINS_11ListenerSetINS_11KeyListenerEE5ComboEE6removeEPS4_;2A.(7,29)=#(7,12),(0,6),(7,16),(0,3),(0,6);:_ZN6MAUtil6VectorINS_11ListenerSetINS_11KeyListenerEE5ComboEE6removeEi;2A.(7,30)=#(7,12),(0,6),(7,16),(0,3),(0,3),(0,6);:_ZN6MAUtil6VectorINS_11ListenerSetINS_11KeyListenerEE5ComboEE6removeEii;2A.;insert::(7,31)=#(7,12),(0,6),(7,16),(0,3),(7,14),(0,6);:_ZN6MAUtil6VectorINS_11ListenerSetINS_11KeyListenerEE5ComboEE6insertEiS4_;2A.;size::(7,32)=#(7,12),(0,3),(7,33)=*(7,22),(0,6);:_ZNK6MAUtil6VectorINS_11ListenerSetINS_11KeyListenerEE5ComboEE4sizeEv;2B.;resize::(7,29):_ZN6MAUtil6VectorINS_11ListenerSetINS_11KeyListenerEE5ComboEE6resizeEi;2A.;reserve::(7,29):_ZN6MAUtil6VectorINS_11ListenerSetINS_11KeyListenerEE5ComboEE7reserveEi;2A.;clear::(7,23):_ZN6MAUtil6VectorINS_11ListenerSetINS_11KeyListenerEE5ComboEE5clearEv;2A.;empty::(7,34)=#(7,12),(0,4),(7,33),(0,6);:_ZNK6MAUtil6VectorINS_11ListenerSetINS_11KeyListenerEE5ComboEE5emptyEv;2B.;capacity::(7,32):_ZNK6MAUtil6VectorINS_11ListenerSetINS_11KeyListenerEE5ComboEE8capacityEv;2B.;begin::(7,35)=#(7,12),(7,13),(7,16),(0,6);:_ZN6MAUtil6VectorINS_11ListenerSetINS_11KeyListenerEE5ComboEE5beginEv;2A.;end::(7,35):_ZN6MAUtil6VectorINS_11ListenerSetINS_11KeyListenerEE5ComboEE3endEv;2A.;begin::(7,36)=#(7,12),(7,18),(7,33),(0,6);:_ZNK6MAUtil6VectorINS_11ListenerSetINS_11KeyListenerEE5ComboEE5beginEv;2B.;end::(7,36):_ZNK6MAUtil6VectorINS_11ListenerSetINS_11KeyListenerEE5ComboEE3endEv;2B.;operator[]::(7,37)=#(7,12),(7,38)=&(7,14),(7,16),(0,3),(0,6);:_ZN6MAUtil6VectorINS_11ListenerSetINS_11KeyListenerEE5ComboEEixEi;2A.(7,39)=#(7,12),(7,27),(7,33),(0,3),(0,6);:_ZNK6MAUtil6VectorINS_11ListenerSetINS_11KeyListenerEE5ComboEEixEi;2B.;pointer::(7,36):_ZNK6MAUtil6VectorINS_11ListenerSetINS_11KeyListenerEE5ComboEE7pointerEv;2B.(7,35):_ZN6MAUtil6VectorINS_11ListenerSetINS_11KeyListenerEE5ComboEE7pointerEv;2A.;;",128,0,95,0
	.stabs	"ListenerSet<MAUtil::KeyListener>:Tt(7,40)=s16mRunning:/0(0,4),0,8;mUpdateRequired:/0(0,4),8,8;mShouldDelete:/0(0,4),16,8;mVec:/0(7,12),32,96;__base_ctor::(7,41)=#(7,40),(0,6),(7,42)=*(7,40),(0,4),(0,6);:_ZN6MAUtil11ListenerSetINS_11KeyListenerEEC2Eb;2A.;__comp_ctor::(7,41):_ZN6MAUtil11ListenerSetINS_11KeyListenerEEC1Eb;2A.;begin::(7,43)=#(7,40),(7,44)=xsiterator:,(7,42),(0,6);:_ZN6MAUtil11ListenerSetINS_11KeyListenerEE5beginEv;2A.;add::(7,45)=#(7,40),(0,6),(7,42),(7,46)=*(7,47)=xsKeyListener:,(0,6);:_ZN6MAUtil11ListenerSetINS_11KeyListenerEE3addEPS1_;2A.;remove::(7,45):_ZN6MAUtil11ListenerSetINS_11KeyListenerEE6removeEPS1_;2A.;contains::(7,48)=#(7,40),(0,4),(7,42),(7,46),(0,6);:_ZN6MAUtil11ListenerSetINS_11KeyListenerEE8containsEPS1_;2A.;setRunning::(7,49)=#(7,40),(0,6),(7,42),(0,4),(0,6);:_ZN6MAUtil11ListenerSetINS_11KeyListenerEE10setRunningEb;2A.;size::(7,50)=#(7,40),(0,3),(7,51)=*(7,52)=k(7,40),(0,6);:_ZNK6MAUtil11ListenerSetINS_11KeyListenerEE4sizeEv;2B.;operator=::(7,53)=#(7,40),(7,54)=&(7,40),(7,42),(7,55)=&(7,52),(0,6);:_ZN6MAUtil11ListenerSetINS_11KeyListenerEEaSERKS2_;2A.;__base_ctor::(7,56)=#(7,40),(0,6),(7,42),(7,55),(0,6);:_ZN6MAUtil11ListenerSetINS_11KeyListenerEEC2ERKS2_;2A.;__comp_ctor::(7,56):_ZN6MAUtil11ListenerSetINS_11KeyListenerEEC1ERKS2_;2A.;__base_dtor::(7,57)=#(7,40),(0,6),(7,42),(0,6);:_ZN6MAUtil11ListenerSetINS_11KeyListenerEED2Ev;2A.;__comp_dtor::(7,57):_ZN6MAUtil11ListenerSetINS_11KeyListenerEED1Ev;2A.;;",128,0,46,0
	.stabs	"Vector<MAUtil::ListenerSet<MAUtil::PointerListener>::Combo>:Tt(7,58)=s12mSize:/1(0,3),0,32;mCapacity:/1(0,3),32,32;mData:/1(7,59)=*(7,60)=xsCombo:,64,32;__base_ctor::(7,61)=#(7,58),(0,6),(7,62)=*(7,58),(0,3),(0,6);:_ZN6MAUtil6VectorINS_11ListenerSetINS_15PointerListenerEE5ComboEEC2Ei;2A.;__comp_ctor::(7,61):_ZN6MAUtil6VectorINS_11ListenerSetINS_15PointerListenerEE5ComboEEC1Ei;2A.;__base_ctor::(7,63)=#(7,58),(0,6),(7,62),(7,64)=*(7,65)=k(7,60),(0,3),(0,6);:_ZN6MAUtil6VectorINS_11ListenerSetINS_15PointerListenerEE5ComboEEC2EPKS4_i;2A.;__comp_ctor::(7,63):_ZN6MAUtil6VectorINS_11ListenerSetINS_15PointerListenerEE5ComboEEC1EPKS4_i;2A.;__base_ctor::(7,66)=#(7,58),(0,6),(7,62),(7,67)=&(7,68)=k(7,58),(0,6);:_ZN6MAUtil6VectorINS_11ListenerSetINS_15PointerListenerEE5ComboEEC2ERKS5_;2A.;__comp_ctor::(7,66):_ZN6MAUtil6VectorINS_11ListenerSetINS_15PointerListenerEE5ComboEEC1ERKS5_;2A.;__base_dtor::(7,69)=#(7,58),(0,6),(7,62),(0,6);:_ZN6MAUtil6VectorINS_11ListenerSetINS_15PointerListenerEE5ComboEED2Ev;2A.;__comp_dtor::(7,69):_ZN6MAUtil6VectorINS_11ListenerSetINS_15PointerListenerEE5ComboEED1Ev;2A.;operator=::(7,70)=#(7,58),(7,71)=&(7,58),(7,62),(7,67),(0,6);:_ZN6MAUtil6VectorINS_11ListenerSetINS_15PointerListenerEE5ComboEEaSERKS5_;2A.;add::(7,72)=#(7,58),(0,6),(7,62),(7,73)=&(7,65),(0,6);:_ZN6MAUtil6VectorINS_11ListenerSetINS_15PointerListenerEE5ComboEE3addERKS4_;2A.(7,63):_ZN6MAUtil6VectorINS_11ListenerSetINS_15PointerListenerEE5ComboEE3addEPKS4_i;2A.;remove::(7,74)=#(7,58),(0,6),(7,62),(7,59),(0,6);:_ZN6MAUtil6VectorINS_11ListenerSetINS_15PointerListenerEE5ComboEE6removeEPS4_;2A.(7,75)=#(7,58),(0,6),(7,62),(0,3),(0,6);:_ZN6MAUtil6VectorINS_11ListenerSetINS_15PointerListenerEE5ComboEE6removeEi;2A.(7,76)=#(7,58),(0,6),(7,62),(0,3),(0,3),(0,6);:_ZN6MAUtil6VectorINS_11ListenerSetINS_15PointerListenerEE5ComboEE6removeEii;2A.;insert::(7,77)=#(7,58),(0,6),(7,62),(0,3),(7,60),(0,6);:_ZN6MAUtil6VectorINS_11ListenerSetINS_15PointerListenerEE5ComboEE6insertEiS4_;2A.;size::(7,78)=#(7,58),(0,3),(7,79)=*(7,68),(0,6);:_ZNK6MAUtil6VectorINS_11ListenerSetINS_15PointerListenerEE5ComboEE4sizeEv;2B.;resize::(7,75):_ZN6MAUtil6VectorINS_11ListenerSetINS_15PointerListenerEE5ComboEE6resizeEi;2A.;reserve::(7,75):_ZN6MAUtil6VectorINS_11ListenerSetINS_15PointerListenerEE5ComboEE7reserveEi;2A.;clear::(7,69):_ZN6MAUtil6VectorINS_11ListenerSetINS_15PointerListenerEE5ComboEE5clearEv;2A.;empty::(7,80)=#(7,58),(0,4),(7,79),(0,6);:_ZNK6MAUtil6VectorINS_11ListenerSetINS_15PointerListenerEE5ComboEE5emptyEv;2B.;capacity::(7,78):_ZNK6MAUtil6VectorINS_11ListenerSetINS_15PointerListenerEE5ComboEE8capacityEv;2B.;begin::(7,81)=#(7,58),(7,59),(7,62),(0,6);:_ZN6MAUtil6VectorINS_11ListenerSetINS_15PointerListenerEE5ComboEE5beginEv;2A.;end::(7,81):_ZN6MAUtil6VectorINS_11ListenerSetINS_15PointerListenerEE5ComboEE3endEv;2A.;begin::(7,82)=#(7,58),(7,64),(7,79),(0,6);:_ZNK6MAUtil6VectorINS_11ListenerSetINS_15PointerListenerEE5ComboEE5beginEv;2B.;end::(7,82):_ZNK6MAUtil6VectorINS_11ListenerSetINS_15PointerListenerEE5ComboEE3endEv;2B.;operator[]::(7,83)=#(7,58),(7,84)=&(7,60),(7,62),(0,3),(0,6);:_ZN6MAUtil6VectorINS_11ListenerSetINS_15PointerListenerEE5ComboEEixEi;2A.(7,85)=#(7,58),(7,73),(7,79),(0,3),(0,6);:_ZNK6MAUtil6VectorINS_11ListenerSetINS_15PointerListenerEE5ComboEEixEi;2B.;pointer::(7,82):_ZNK6MAUtil6VectorINS_11ListenerSetINS_15PointerListenerEE5ComboEE7pointerEv;2B.(7,81):_ZN6MAUtil6VectorINS_11ListenerSetINS_15PointerListenerEE5ComboEE7pointerEv;2A.;;",128,0,95,0
	.stabs	"ListenerSet<MAUtil::PointerListener>:Tt(7,86)=s16mRunning:/0(0,4),0,8;mUpdateRequired:/0(0,4),8,8;mShouldDelete:/0(0,4),16,8;mVec:/0(7,58),32,96;__base_ctor::(7,87)=#(7,86),(0,6),(7,88)=*(7,86),(0,4),(0,6);:_ZN6MAUtil11ListenerSetINS_15PointerListenerEEC2Eb;2A.;__comp_ctor::(7,87):_ZN6MAUtil11ListenerSetINS_15PointerListenerEEC1Eb;2A.;begin::(7,89)=#(7,86),(7,90)=xsiterator:,(7,88),(0,6);:_ZN6MAUtil11ListenerSetINS_15PointerListenerEE5beginEv;2A.;add::(7,91)=#(7,86),(0,6),(7,88),(7,92)=*(7,93)=xsPointerListener:,(0,6);:_ZN6MAUtil11ListenerSetINS_15PointerListenerEE3addEPS1_;2A.;remove::(7,91):_ZN6MAUtil11ListenerSetINS_15PointerListenerEE6removeEPS1_;2A.;contains::(7,94)=#(7,86),(0,4),(7,88),(7,92),(0,6);:_ZN6MAUtil11ListenerSetINS_15PointerListenerEE8containsEPS1_;2A.;setRunning::(7,95)=#(7,86),(0,6),(7,88),(0,4),(0,6);:_ZN6MAUtil11ListenerSetINS_15PointerListenerEE10setRunningEb;2A.;size::(7,96)=#(7,86),(0,3),(7,97)=*(7,98)=k(7,86),(0,6);:_ZNK6MAUtil11ListenerSetINS_15PointerListenerEE4sizeEv;2B.;operator=::(7,99)=#(7,86),(7,100)=&(7,86),(7,88),(7,101)=&(7,98),(0,6);:_ZN6MAUtil11ListenerSetINS_15PointerListenerEEaSERKS2_;2A.;__base_ctor::(7,102)=#(7,86),(0,6),(7,88),(7,101),(0,6);:_ZN6MAUtil11ListenerSetINS_15PointerListenerEEC2ERKS2_;2A.;__comp_ctor::(7,102):_ZN6MAUtil11ListenerSetINS_15PointerListenerEEC1ERKS2_;2A.;__base_dtor::(7,103)=#(7,86),(0,6),(7,88),(0,6);:_ZN6MAUtil11ListenerSetINS_15PointerListenerEED2Ev;2A.;__comp_dtor::(7,103):_ZN6MAUtil11ListenerSetINS_15PointerListenerEED1Ev;2A.;;",128,0,46,0
	.stabs	"Vector<MAUtil::CloseListener*>:Tt(7,104)=s12mSize:/1(0,3),0,32;mCapacity:/1(0,3),32,32;mData:/1(7,105)=*(7,106)=*(7,107)=xsCloseListener:,64,32;__base_ctor::(7,108)=#(7,104),(0,6),(7,109)=*(7,104),(0,3),(0,6);:_ZN6MAUtil6VectorIPNS_13CloseListenerEEC2Ei;2A.;__comp_ctor::(7,108):_ZN6MAUtil6VectorIPNS_13CloseListenerEEC1Ei;2A.;__base_ctor::(7,110)=#(7,104),(0,6),(7,109),(7,111)=*(7,112)=k(7,106),(0,3),(0,6);:_ZN6MAUtil6VectorIPNS_13CloseListenerEEC2EPKS2_i;2A.;__comp_ctor::(7,110):_ZN6MAUtil6VectorIPNS_13CloseListenerEEC1EPKS2_i;2A.;__base_ctor::(7,113)=#(7,104),(0,6),(7,109),(7,114)=&(7,115)=k(7,104),(0,6);:_ZN6MAUtil6VectorIPNS_13CloseListenerEEC2ERKS3_;2A.;__comp_ctor::(7,113):_ZN6MAUtil6VectorIPNS_13CloseListenerEEC1ERKS3_;2A.;__base_dtor::(7,116)=#(7,104),(0,6),(7,109),(0,6);:_ZN6MAUtil6VectorIPNS_13CloseListenerEED2Ev;2A.;__comp_dtor::(7,116):_ZN6MAUtil6VectorIPNS_13CloseListenerEED1Ev;2A.;operator=::(7,117)=#(7,104),(7,118)=&(7,104),(7,109),(7,114),(0,6);:_ZN6MAUtil6VectorIPNS_13CloseListenerEEaSERKS3_;2A.;add::(7,119)=#(7,104),(0,6),(7,109),(7,120)=&(7,112),(0,6);:_ZN6MAUtil6VectorIPNS_13CloseListenerEE3addERKS2_;2A.(7,110):_ZN6MAUtil6VectorIPNS_13CloseListenerEE3addEPKS2_i;2A.;remove::(7,121)=#(7,104),(0,6),(7,109),(7,105),(0,6);:_ZN6MAUtil6VectorIPNS_13CloseListenerEE6removeEPS2_;2A.(7,122)=#(7,104),(0,6),(7,109),(0,3),(0,6);:_ZN6MAUtil6VectorIPNS_13CloseListenerEE6removeEi;2A.(7,123)=#(7,104),(0,6),(7,109),(0,3),(0,3),(0,6);:_ZN6MAUtil6VectorIPNS_13CloseListenerEE6removeEii;2A.;insert::(7,124)=#(7,104),(0,6),(7,109),(0,3),(7,106),(0,6);:_ZN6MAUtil6VectorIPNS_13CloseListenerEE6insertEiS2_;2A.;size::(7,125)=#(7,104),(0,3),(7,126)=*(7,115),(0,6);:_ZNK6MAUtil6VectorIPNS_13CloseListenerEE4sizeEv;2B.;resize::(7,122):_ZN6MAUtil6VectorIPNS_13CloseListenerEE6resizeEi;2A.;reserve::(7,122):_ZN6MAUtil6VectorIPNS_13CloseListenerEE7reserveEi;2A.;clear::(7,116):_ZN6MAUtil6VectorIPNS_13CloseListenerEE5clearEv;2A.;empty::(7,127)=#(7,104),(0,4),(7,126),(0,6);:_ZNK6MAUtil6VectorIPNS_13CloseListenerEE5emptyEv;2B.;capacity::(7,125):_ZNK6MAUtil6VectorIPNS_13CloseListenerEE8capacityEv;2B.;begin::(7,128)=#(7,104),(7,105),(7,109),(0,6);:_ZN6MAUtil6VectorIPNS_13CloseListenerEE5beginEv;2A.;end::(7,128):_ZN6MAUtil6VectorIPNS_13CloseListenerEE3endEv;2A.;begin::(7,129)=#(7,104),(7,111),(7,126),(0,6);:_ZNK6MAUtil6VectorIPNS_13CloseListenerEE5beginEv;2B.;end::(7,129):_ZNK6MAUtil6VectorIPNS_13CloseListenerEE3endEv;2B.;operator[]::(7,130)=#(7,104),(7,131)=&(7,106),(7,109),(0,3),(0,6);:_ZN6MAUtil6VectorIPNS_13CloseListenerEEixEi;2A.(7,132)=#(7,104),(7,120),(7,126),(0,3),(0,6);:_ZNK6MAUtil6VectorIPNS_13CloseListenerEEixEi;2B.;pointer::(7,129):_ZNK6MAUtil6VectorIPNS_13CloseListenerEE7pointerEv;2B.(7,128):_ZN6MAUtil6VectorIPNS_13CloseListenerEE7pointerEv;2A.;;",128,0,95,0
	.stabs	"Vector<MAUtil::ListenerSet<MAUtil::ConnListener>::Combo>:Tt(7,133)=s12mSize:/1(0,3),0,32;mCapacity:/1(0,3),32,32;mData:/1(7,134)=*(7,135)=xsCombo:,64,32;__base_ctor::(7,136)=#(7,133),(0,6),(7,137)=*(7,133),(0,3),(0,6);:_ZN6MAUtil6VectorINS_11ListenerSetINS_12ConnListenerEE5ComboEEC2Ei;2A.;__comp_ctor::(7,136):_ZN6MAUtil6VectorINS_11ListenerSetINS_12ConnListenerEE5ComboEEC1Ei;2A.;__base_ctor::(7,138)=#(7,133),(0,6),(7,137),(7,139)=*(7,140)=k(7,135),(0,3),(0,6);:_ZN6MAUtil6VectorINS_11ListenerSetINS_12ConnListenerEE5ComboEEC2EPKS4_i;2A.;__comp_ctor::(7,138):_ZN6MAUtil6VectorINS_11ListenerSetINS_12ConnListenerEE5ComboEEC1EPKS4_i;2A.;__base_ctor::(7,141)=#(7,133),(0,6),(7,137),(7,142)=&(7,143)=k(7,133),(0,6);:_ZN6MAUtil6VectorINS_11ListenerSetINS_12ConnListenerEE5ComboEEC2ERKS5_;2A.;__comp_ctor::(7,141):_ZN6MAUtil6VectorINS_11ListenerSetINS_12ConnListenerEE5ComboEEC1ERKS5_;2A.;__base_dtor::(7,144)=#(7,133),(0,6),(7,137),(0,6);:_ZN6MAUtil6VectorINS_11ListenerSetINS_12ConnListenerEE5ComboEED2Ev;2A.;__comp_dtor::(7,144):_ZN6MAUtil6VectorINS_11ListenerSetINS_12ConnListenerEE5ComboEED1Ev;2A.;operator=::(7,145)=#(7,133),(7,146)=&(7,133),(7,137),(7,142),(0,6);:_ZN6MAUtil6VectorINS_11ListenerSetINS_12ConnListenerEE5ComboEEaSERKS5_;2A.;add::(7,147)=#(7,133),(0,6),(7,137),(7,148)=&(7,140),(0,6);:_ZN6MAUtil6VectorINS_11ListenerSetINS_12ConnListenerEE5ComboEE3addERKS4_;2A.(7,138):_ZN6MAUtil6VectorINS_11ListenerSetINS_12ConnListenerEE5ComboEE3addEPKS4_i;2A.;remove::(7,149)=#(7,133),(0,6),(7,137),(7,134),(0,6);:_ZN6MAUtil6VectorINS_11ListenerSetINS_12ConnListenerEE5ComboEE6removeEPS4_;2A.(7,150)=#(7,133),(0,6),(7,137),(0,3),(0,6);:_ZN6MAUtil6VectorINS_11ListenerSetINS_12ConnListenerEE5ComboEE6removeEi;2A.(7,151)=#(7,133),(0,6),(7,137),(0,3),(0,3),(0,6);:_ZN6MAUtil6VectorINS_11ListenerSetINS_12ConnListenerEE5ComboEE6removeEii;2A.;insert::(7,152)=#(7,133),(0,6),(7,137),(0,3),(7,135),(0,6);:_ZN6MAUtil6VectorINS_11ListenerSetINS_12ConnListenerEE5ComboEE6insertEiS4_;2A.;size::(7,153)=#(7,133),(0,3),(7,154)=*(7,143),(0,6);:_ZNK6MAUtil6VectorINS_11ListenerSetINS_12ConnListenerEE5ComboEE4sizeEv;2B.;resize::(7,150):_ZN6MAUtil6VectorINS_11ListenerSetINS_12ConnListenerEE5ComboEE6resizeEi;2A.;reserve::(7,150):_ZN6MAUtil6VectorINS_11ListenerSetINS_12ConnListenerEE5ComboEE7reserveEi;2A.;clear::(7,144):_ZN6MAUtil6VectorINS_11ListenerSetINS_12ConnListenerEE5ComboEE5clearEv;2A.;empty::(7,155)=#(7,133),(0,4),(7,154),(0,6);:_ZNK6MAUtil6VectorINS_11ListenerSetINS_12ConnListenerEE5ComboEE5emptyEv;2B.;capacity::(7,153):_ZNK6MAUtil6VectorINS_11ListenerSetINS_12ConnListenerEE5ComboEE8capacityEv;2B.;begin::(7,156)=#(7,133),(7,134),(7,137),(0,6);:_ZN6MAUtil6VectorINS_11ListenerSetINS_12ConnListenerEE5ComboEE5beginEv;2A.;end::(7,156):_ZN6MAUtil6VectorINS_11ListenerSetINS_12ConnListenerEE5ComboEE3endEv;2A.;begin::(7,157)=#(7,133),(7,139),(7,154),(0,6);:_ZNK6MAUtil6VectorINS_11ListenerSetINS_12ConnListenerEE5ComboEE5beginEv;2B.;end::(7,157):_ZNK6MAUtil6VectorINS_11ListenerSetINS_12ConnListenerEE5ComboEE3endEv;2B.;operator[]::(7,158)=#(7,133),(7,159)=&(7,135),(7,137),(0,3),(0,6);:_ZN6MAUtil6VectorINS_11ListenerSetINS_12ConnListenerEE5ComboEEixEi;2A.(7,160)=#(7,133),(7,148),(7,154),(0,3),(0,6);:_ZNK6MAUtil6VectorINS_11ListenerSetINS_12ConnListenerEE5ComboEEixEi;2B.;pointer::(7,157):_ZNK6MAUtil6VectorINS_11ListenerSetINS_12ConnListenerEE5ComboEE7pointerEv;2B.(7,156):_ZN6MAUtil6VectorINS_11ListenerSetINS_12ConnListenerEE5ComboEE7pointerEv;2A.;;",128,0,95,0
	.stabs	"ListenerSet<MAUtil::ConnListener>:Tt(7,161)=s16mRunning:/0(0,4),0,8;mUpdateRequired:/0(0,4),8,8;mShouldDelete:/0(0,4),16,8;mVec:/0(7,133),32,96;__base_ctor::(7,162)=#(7,161),(0,6),(7,163)=*(7,161),(0,4),(0,6);:_ZN6MAUtil11ListenerSetINS_12ConnListenerEEC2Eb;2A.;__comp_ctor::(7,162):_ZN6MAUtil11ListenerSetINS_12ConnListenerEEC1Eb;2A.;begin::(7,164)=#(7,161),(7,165)=xsiterator:,(7,163),(0,6);:_ZN6MAUtil11ListenerSetINS_12ConnListenerEE5beginEv;2A.;add::(7,166)=#(7,161),(0,6),(7,163),(7,167)=*(7,168)=xsConnListener:,(0,6);:_ZN6MAUtil11ListenerSetINS_12ConnListenerEE3addEPS1_;2A.;remove::(7,166):_ZN6MAUtil11ListenerSetINS_12ConnListenerEE6removeEPS1_;2A.;contains::(7,169)=#(7,161),(0,4),(7,163),(7,167),(0,6);:_ZN6MAUtil11ListenerSetINS_12ConnListenerEE8containsEPS1_;2A.;setRunning::(7,170)=#(7,161),(0,6),(7,163),(0,4),(0,6);:_ZN6MAUtil11ListenerSetINS_12ConnListenerEE10setRunningEb;2A.;size::(7,171)=#(7,161),(0,3),(7,172)=*(7,173)=k(7,161),(0,6);:_ZNK6MAUtil11ListenerSetINS_12ConnListenerEE4sizeEv;2B.;operator=::(7,174)=#(7,161),(7,175)=&(7,161),(7,163),(7,176)=&(7,173),(0,6);:_ZN6MAUtil11ListenerSetINS_12ConnListenerEEaSERKS2_;2A.;__base_ctor::(7,177)=#(7,161),(0,6),(7,163),(7,176),(0,6);:_ZN6MAUtil11ListenerSetINS_12ConnListenerEEC2ERKS2_;2A.;__comp_ctor::(7,177):_ZN6MAUtil11ListenerSetINS_12ConnListenerEEC1ERKS2_;2A.;__base_dtor::(7,178)=#(7,161),(0,6),(7,163),(0,6);:_ZN6MAUtil11ListenerSetINS_12ConnListenerEED2Ev;2A.;__comp_dtor::(7,178):_ZN6MAUtil11ListenerSetINS_12ConnListenerEED1Ev;2A.;;",128,0,46,0
	.stabs	"Vector<MAUtil::ListenerSet<MAUtil::IdleListener>::Combo>:Tt(7,179)=s12mSize:/1(0,3),0,32;mCapacity:/1(0,3),32,32;mData:/1(7,180)=*(7,181)=xsCombo:,64,32;__base_ctor::(7,182)=#(7,179),(0,6),(7,183)=*(7,179),(0,3),(0,6);:_ZN6MAUtil6VectorINS_11ListenerSetINS_12IdleListenerEE5ComboEEC2Ei;2A.;__comp_ctor::(7,182):_ZN6MAUtil6VectorINS_11ListenerSetINS_12IdleListenerEE5ComboEEC1Ei;2A.;__base_ctor::(7,184)=#(7,179),(0,6),(7,183),(7,185)=*(7,186)=k(7,181),(0,3),(0,6);:_ZN6MAUtil6VectorINS_11ListenerSetINS_12IdleListenerEE5ComboEEC2EPKS4_i;2A.;__comp_ctor::(7,184):_ZN6MAUtil6VectorINS_11ListenerSetINS_12IdleListenerEE5ComboEEC1EPKS4_i;2A.;__base_ctor::(7,187)=#(7,179),(0,6),(7,183),(7,188)=&(7,189)=k(7,179),(0,6);:_ZN6MAUtil6VectorINS_11ListenerSetINS_12IdleListenerEE5ComboEEC2ERKS5_;2A.;__comp_ctor::(7,187):_ZN6MAUtil6VectorINS_11ListenerSetINS_12IdleListenerEE5ComboEEC1ERKS5_;2A.;__base_dtor::(7,190)=#(7,179),(0,6),(7,183),(0,6);:_ZN6MAUtil6VectorINS_11ListenerSetINS_12IdleListenerEE5ComboEED2Ev;2A.;__comp_dtor::(7,190):_ZN6MAUtil6VectorINS_11ListenerSetINS_12IdleListenerEE5ComboEED1Ev;2A.;operator=::(7,191)=#(7,179),(7,192)=&(7,179),(7,183),(7,188),(0,6);:_ZN6MAUtil6VectorINS_11ListenerSetINS_12IdleListenerEE5ComboEEaSERKS5_;2A.;add::(7,193)=#(7,179),(0,6),(7,183),(7,194)=&(7,186),(0,6);:_ZN6MAUtil6VectorINS_11ListenerSetINS_12IdleListenerEE5ComboEE3addERKS4_;2A.(7,184):_ZN6MAUtil6VectorINS_11ListenerSetINS_12IdleListenerEE5ComboEE3addEPKS4_i;2A.;remove::(7,195)=#(7,179),(0,6),(7,183),(7,180),(0,6);:_ZN6MAUtil6VectorINS_11ListenerSetINS_12IdleListenerEE5ComboEE6removeEPS4_;2A.(7,196)=#(7,179),(0,6),(7,183),(0,3),(0,6);:_ZN6MAUtil6VectorINS_11ListenerSetINS_12IdleListenerEE5ComboEE6removeEi;2A.(7,197)=#(7,179),(0,6),(7,183),(0,3),(0,3),(0,6);:_ZN6MAUtil6VectorINS_11ListenerSetINS_12IdleListenerEE5ComboEE6removeEii;2A.;insert::(7,198)=#(7,179),(0,6),(7,183),(0,3),(7,181),(0,6);:_ZN6MAUtil6VectorINS_11ListenerSetINS_12IdleListenerEE5ComboEE6insertEiS4_;2A.;size::(7,199)=#(7,179),(0,3),(7,200)=*(7,189),(0,6);:_ZNK6MAUtil6VectorINS_11ListenerSetINS_12IdleListenerEE5ComboEE4sizeEv;2B.;resize::(7,196):_ZN6MAUtil6VectorINS_11ListenerSetINS_12IdleListenerEE5ComboEE6resizeEi;2A.;reserve::(7,196):_ZN6MAUtil6VectorINS_11ListenerSetINS_12IdleListenerEE5ComboEE7reserveEi;2A.;clear::(7,190):_ZN6MAUtil6VectorINS_11ListenerSetINS_12IdleListenerEE5ComboEE5clearEv;2A.;empty::(7,201)=#(7,179),(0,4),(7,200),(0,6);:_ZNK6MAUtil6VectorINS_11ListenerSetINS_12IdleListenerEE5ComboEE5emptyEv;2B.;capacity::(7,199):_ZNK6MAUtil6VectorINS_11ListenerSetINS_12IdleListenerEE5ComboEE8capacityEv;2B.;begin::(7,202)=#(7,179),(7,180),(7,183),(0,6);:_ZN6MAUtil6VectorINS_11ListenerSetINS_12IdleListenerEE5ComboEE5beginEv;2A.;end::(7,202):_ZN6MAUtil6VectorINS_11ListenerSetINS_12IdleListenerEE5ComboEE3endEv;2A.;begin::(7,203)=#(7,179),(7,185),(7,200),(0,6);:_ZNK6MAUtil6VectorINS_11ListenerSetINS_12IdleListenerEE5ComboEE5beginEv;2B.;end::(7,203):_ZNK6MAUtil6VectorINS_11ListenerSetINS_12IdleListenerEE5ComboEE3endEv;2B.;operator[]::(7,204)=#(7,179),(7,205)=&(7,181),(7,183),(0,3),(0,6);:_ZN6MAUtil6VectorINS_11ListenerSetINS_12IdleListenerEE5ComboEEixEi;2A.(7,206)=#(7,179),(7,194),(7,200),(0,3),(0,6);:_ZNK6MAUtil6VectorINS_11ListenerSetINS_12IdleListenerEE5ComboEEixEi;2B.;pointer::(7,203):_ZNK6MAUtil6VectorINS_11ListenerSetINS_12IdleListenerEE5ComboEE7pointerEv;2B.(7,202):_ZN6MAUtil6VectorINS_11ListenerSetINS_12IdleListenerEE5ComboEE7pointerEv;2A.;;",128,0,95,0
	.stabs	"ListenerSet<MAUtil::IdleListener>:Tt(7,207)=s16mRunning:/0(0,4),0,8;mUpdateRequired:/0(0,4),8,8;mShouldDelete:/0(0,4),16,8;mVec:/0(7,179),32,96;__base_ctor::(7,208)=#(7,207),(0,6),(7,209)=*(7,207),(0,4),(0,6);:_ZN6MAUtil11ListenerSetINS_12IdleListenerEEC2Eb;2A.;__comp_ctor::(7,208):_ZN6MAUtil11ListenerSetINS_12IdleListenerEEC1Eb;2A.;begin::(7,210)=#(7,207),(7,211)=xsiterator:,(7,209),(0,6);:_ZN6MAUtil11ListenerSetINS_12IdleListenerEE5beginEv;2A.;add::(7,212)=#(7,207),(0,6),(7,209),(7,213)=*(7,214)=xsIdleListener:,(0,6);:_ZN6MAUtil11ListenerSetINS_12IdleListenerEE3addEPS1_;2A.;remove::(7,212):_ZN6MAUtil11ListenerSetINS_12IdleListenerEE6removeEPS1_;2A.;contains::(7,215)=#(7,207),(0,4),(7,209),(7,213),(0,6);:_ZN6MAUtil11ListenerSetINS_12IdleListenerEE8containsEPS1_;2A.;setRunning::(7,216)=#(7,207),(0,6),(7,209),(0,4),(0,6);:_ZN6MAUtil11ListenerSetINS_12IdleListenerEE10setRunningEb;2A.;size::(7,217)=#(7,207),(0,3),(7,218)=*(7,219)=k(7,207),(0,6);:_ZNK6MAUtil11ListenerSetINS_12IdleListenerEE4sizeEv;2B.;operator=::(7,220)=#(7,207),(7,221)=&(7,207),(7,209),(7,222)=&(7,219),(0,6);:_ZN6MAUtil11ListenerSetINS_12IdleListenerEEaSERKS2_;2A.;__base_ctor::(7,223)=#(7,207),(0,6),(7,209),(7,222),(0,6);:_ZN6MAUtil11ListenerSetINS_12IdleListenerEEC2ERKS2_;2A.;__comp_ctor::(7,223):_ZN6MAUtil11ListenerSetINS_12IdleListenerEEC1ERKS2_;2A.;__base_dtor::(7,224)=#(7,207),(0,6),(7,209),(0,6);:_ZN6MAUtil11ListenerSetINS_12IdleListenerEED2Ev;2A.;__comp_dtor::(7,224):_ZN6MAUtil11ListenerSetINS_12IdleListenerEED1Ev;2A.;;",128,0,46,0
	.stabs	"Vector<MAUtil::ListenerSet<MAUtil::Environment::TimerEventInstance>::Combo>:Tt(7,225)=s12mSize:/1(0,3),0,32;mCapacity:/1(0,3),32,32;mData:/1(7,226)=*(7,227)=xsCombo:,64,32;__base_ctor::(7,228)=#(7,225),(0,6),(7,229)=*(7,225),(0,3),(0,6);:_ZN6MAUtil6VectorINS_11ListenerSetINS_11Environment18TimerEventInstanceEE5ComboEEC2Ei;2A.;__comp_ctor::(7,228):_ZN6MAUtil6VectorINS_11ListenerSetINS_11Environment18TimerEventInstanceEE5ComboEEC1Ei;2A.;__base_ctor::(7,230)=#(7,225),(0,6),(7,229),(7,231)=*(7,232)=k(7,227),(0,3),(0,6);:_ZN6MAUtil6VectorINS_11ListenerSetINS_11Environment18TimerEventInstanceEE5ComboEEC2EPKS5_i;2A.;__comp_ctor::(7,230):_ZN6MAUtil6VectorINS_11ListenerSetINS_11Environment18TimerEventInstanceEE5ComboEEC1EPKS5_i;2A.;__base_ctor::(7,233)=#(7,225),(0,6),(7,229),(7,234)=&(7,235)=k(7,225),(0,6);:_ZN6MAUtil6VectorINS_11ListenerSetINS_11Environment18TimerEventInstanceEE5ComboEEC2ERKS6_;2A.;__comp_ctor::(7,233):_ZN6MAUtil6VectorINS_11ListenerSetINS_11Environment18TimerEventInstanceEE5ComboEEC1ERKS6_;2A.;__base_dtor::(7,236)=#(7,225),(0,6),(7,229),(0,6);:_ZN6MAUtil6VectorINS_11ListenerSetINS_11Environment18TimerEventInstanceEE5ComboEED2Ev;2A.;__comp_dtor::(7,236):_ZN6MAUtil6VectorINS_11ListenerSetINS_11Environment18TimerEventInstanceEE5ComboEED1Ev;2A.;operator=::(7,237)=#(7,225),(7,238)=&(7,225),(7,229),(7,234),(0,6);:_ZN6MAUtil6VectorINS_11ListenerSetINS_11Environment18TimerEventInstanceEE5ComboEEaSERKS6_;2A.;add::(7,239)=#(7,225),(0,6),(7,229),(7,240)=&(7,232),(0,6);:_ZN6MAUtil6VectorINS_11ListenerSetINS_11Environment18TimerEventInstanceEE5ComboEE3addERKS5_;2A.(7,230):_ZN6MAUtil6VectorINS_11ListenerSetINS_11Environment18TimerEventInstanceEE5ComboEE3addEPKS5_i;2A.;remove::(7,241)=#(7,225),(0,6),(7,229),(7,226),(0,6);:_ZN6MAUtil6VectorINS_11ListenerSetINS_11Environment18TimerEventInstanceEE5ComboEE6removeEPS5_;2A.(7,242)=#(7,225),(0,6),(7,229),(0,3),(0,6);:_ZN6MAUtil6VectorINS_11ListenerSetINS_11Environment18TimerEventInstanceEE5ComboEE6removeEi;2A.(7,243)=#(7,225),(0,6),(7,229),(0,3),(0,3),(0,6);:_ZN6MAUtil6VectorINS_11ListenerSetINS_11Environment18TimerEventInstanceEE5ComboEE6removeEii;2A.;insert::(7,244)=#(7,225),(0,6),(7,229),(0,3),(7,227),(0,6);:_ZN6MAUtil6VectorINS_11ListenerSetINS_11Environment18TimerEventInstanceEE5ComboEE6insertEiS5_;2A.;size::(7,245)=#(7,225),(0,3),(7,246)=*(7,235),(0,6);:_ZNK6MAUtil6VectorINS_11ListenerSetINS_11Environment18TimerEventInstanceEE5ComboEE4sizeEv;2B.;resize::(7,242):_ZN6MAUtil6VectorINS_11ListenerSetINS_11Environment18TimerEventInstanceEE5ComboEE6resizeEi;2A.;reserve::(7,242):_ZN6MAUtil6VectorINS_11ListenerSetINS_11Environment18TimerEventInstanceEE5ComboEE7reserveEi;2A.;clear::(7,236):_ZN6MAUtil6VectorINS_11ListenerSetINS_11Environment18TimerEventInstanceEE5ComboEE5clearEv;2A.;empty::(7,247)=#(7,225),(0,4),(7,246),(0,6);:_ZNK6MAUtil6VectorINS_11ListenerSetINS_11Environment18TimerEventInstanceEE5ComboEE5emptyEv;2B.;capacity::(7,245):_ZNK6MAUtil6VectorINS_11ListenerSetINS_11Environment18TimerEventInstanceEE5ComboEE8capacityEv;2B.;begin::(7,248)=#(7,225),(7,226),(7,229),(0,6);:_ZN6MAUtil6VectorINS_11ListenerSetINS_11Environment18TimerEventInstanceEE5ComboEE5beginEv;2A.;end::(7,248):_ZN6MAUtil6VectorINS_11ListenerSetINS_11Environment18TimerEventInstanceEE5ComboEE3endEv;2A.;begin::(7,249)=#(7,225),(7,231),(7,246),(0,6);:_ZNK6MAUtil6VectorINS_11ListenerSetINS_11Environment18TimerEventInstanceEE5ComboEE5beginEv;2B.;end::(7,249):_ZNK6MAUtil6VectorINS_11ListenerSetINS_11Environment18TimerEventInstanceEE5ComboEE3endEv;2B.;operator[]::(7,250)=#(7,225),(7,251)=&(7,227),(7,229),(0,3),(0,6);:_ZN6MAUtil6VectorINS_11ListenerSetINS_11Environment18TimerEventInstanceEE5ComboEEixEi;2A.(7,252)=#(7,225),(7,240),(7,246),(0,3),(0,6);:_ZNK6MAUtil6VectorINS_11ListenerSetINS_11Environment18TimerEventInstanceEE5ComboEEixEi;2B.;pointer::(7,249):_ZNK6MAUtil6VectorINS_11ListenerSetINS_11Environment18TimerEventInstanceEE5ComboEE7pointerEv;2B.(7,248):_ZN6MAUtil6VectorINS_11ListenerSetINS_11Environment18TimerEventInstanceEE5ComboEE7pointerEv;2A.;;",128,0,95,0
	.stabs	"ListenerSet<MAUtil::Environment::TimerEventInstance>:Tt(7,253)=s16mRunning:/0(0,4),0,8;mUpdateRequired:/0(0,4),8,8;mShouldDelete:/0(0,4),16,8;mVec:/0(7,225),32,96;__base_ctor::(7,254)=#(7,253),(0,6),(7,255)=*(7,253),(0,4),(0,6);:_ZN6MAUtil11ListenerSetINS_11Environment18TimerEventInstanceEEC2Eb;2A.;__comp_ctor::(7,254):_ZN6MAUtil11ListenerSetINS_11Environment18TimerEventInstanceEEC1Eb;2A.;begin::(7,256)=#(7,253),(7,257)=xsiterator:,(7,255),(0,6);:_ZN6MAUtil11ListenerSetINS_11Environment18TimerEventInstanceEE5beginEv;2A.;add::(7,258)=#(7,253),(0,6),(7,255),(7,6),(0,6);:_ZN6MAUtil11ListenerSetINS_11Environment18TimerEventInstanceEE3addEPS2_;2A.;remove::(7,258):_ZN6MAUtil11ListenerSetINS_11Environment18TimerEventInstanceEE6removeEPS2_;2A.;contains::(7,259)=#(7,253),(0,4),(7,255),(7,6),(0,6);:_ZN6MAUtil11ListenerSetINS_11Environment18TimerEventInstanceEE8containsEPS2_;2A.;setRunning::(7,260)=#(7,253),(0,6),(7,255),(0,4),(0,6);:_ZN6MAUtil11ListenerSetINS_11Environment18TimerEventInstanceEE10setRunningEb;2A.;size::(7,261)=#(7,253),(0,3),(7,262)=*(7,263)=k(7,253),(0,6);:_ZNK6MAUtil11ListenerSetINS_11Environment18TimerEventInstanceEE4sizeEv;2B.;operator=::(7,264)=#(7,253),(7,265)=&(7,253),(7,255),(7,266)=&(7,263),(0,6);:_ZN6MAUtil11ListenerSetINS_11Environment18TimerEventInstanceEEaSERKS3_;2A.;__base_ctor::(7,267)=#(7,253),(0,6),(7,255),(7,266),(0,6);:_ZN6MAUtil11ListenerSetINS_11Environment18TimerEventInstanceEEC2ERKS3_;2A.;__comp_ctor::(7,267):_ZN6MAUtil11ListenerSetINS_11Environment18TimerEventInstanceEEC1ERKS3_;2A.;__base_dtor::(7,268)=#(7,253),(0,6),(7,255),(0,6);:_ZN6MAUtil11ListenerSetINS_11Environment18TimerEventInstanceEED2Ev;2A.;__comp_dtor::(7,268):_ZN6MAUtil11ListenerSetINS_11Environment18TimerEventInstanceEED1Ev;2A.;;",128,0,46,0
	.stabs	"Vector<MAUtil::ListenerSet<MAUtil::FocusListener>::Combo>:Tt(7,269)=s12mSize:/1(0,3),0,32;mCapacity:/1(0,3),32,32;mData:/1(7,270)=*(7,271)=xsCombo:,64,32;__base_ctor::(7,272)=#(7,269),(0,6),(7,273)=*(7,269),(0,3),(0,6);:_ZN6MAUtil6VectorINS_11ListenerSetINS_13FocusListenerEE5ComboEEC2Ei;2A.;__comp_ctor::(7,272):_ZN6MAUtil6VectorINS_11ListenerSetINS_13FocusListenerEE5ComboEEC1Ei;2A.;__base_ctor::(7,274)=#(7,269),(0,6),(7,273),(7,275)=*(7,276)=k(7,271),(0,3),(0,6);:_ZN6MAUtil6VectorINS_11ListenerSetINS_13FocusListenerEE5ComboEEC2EPKS4_i;2A.;__comp_ctor::(7,274):_ZN6MAUtil6VectorINS_11ListenerSetINS_13FocusListenerEE5ComboEEC1EPKS4_i;2A.;__base_ctor::(7,277)=#(7,269),(0,6),(7,273),(7,278)=&(7,279)=k(7,269),(0,6);:_ZN6MAUtil6VectorINS_11ListenerSetINS_13FocusListenerEE5ComboEEC2ERKS5_;2A.;__comp_ctor::(7,277):_ZN6MAUtil6VectorINS_11ListenerSetINS_13FocusListenerEE5ComboEEC1ERKS5_;2A.;__base_dtor::(7,280)=#(7,269),(0,6),(7,273),(0,6);:_ZN6MAUtil6VectorINS_11ListenerSetINS_13FocusListenerEE5ComboEED2Ev;2A.;__comp_dtor::(7,280):_ZN6MAUtil6VectorINS_11ListenerSetINS_13FocusListenerEE5ComboEED1Ev;2A.;operator=::(7,281)=#(7,269),(7,282)=&(7,269),(7,273),(7,278),(0,6);:_ZN6MAUtil6VectorINS_11ListenerSetINS_13FocusListenerEE5ComboEEaSERKS5_;2A.;add::(7,283)=#(7,269),(0,6),(7,273),(7,284)=&(7,276),(0,6);:_ZN6MAUtil6VectorINS_11ListenerSetINS_13FocusListenerEE5ComboEE3addERKS4_;2A.(7,274):_ZN6MAUtil6VectorINS_11ListenerSetINS_13FocusListenerEE5ComboEE3addEPKS4_i;2A.;remove::(7,285)=#(7,269),(0,6),(7,273),(7,270),(0,6);:_ZN6MAUtil6VectorINS_11ListenerSetINS_13FocusListenerEE5ComboEE6removeEPS4_;2A.(7,286)=#(7,269),(0,6),(7,273),(0,3),(0,6);:_ZN6MAUtil6VectorINS_11ListenerSetINS_13FocusListenerEE5ComboEE6removeEi;2A.(7,287)=#(7,269),(0,6),(7,273),(0,3),(0,3),(0,6);:_ZN6MAUtil6VectorINS_11ListenerSetINS_13FocusListenerEE5ComboEE6removeEii;2A.;insert::(7,288)=#(7,269),(0,6),(7,273),(0,3),(7,271),(0,6);:_ZN6MAUtil6VectorINS_11ListenerSetINS_13FocusListenerEE5ComboEE6insertEiS4_;2A.;size::(7,289)=#(7,269),(0,3),(7,290)=*(7,279),(0,6);:_ZNK6MAUtil6VectorINS_11ListenerSetINS_13FocusListenerEE5ComboEE4sizeEv;2B.;resize::(7,286):_ZN6MAUtil6VectorINS_11ListenerSetINS_13FocusListenerEE5ComboEE6resizeEi;2A.;reserve::(7,286):_ZN6MAUtil6VectorINS_11ListenerSetINS_13FocusListenerEE5ComboEE7reserveEi;2A.;clear::(7,280):_ZN6MAUtil6VectorINS_11ListenerSetINS_13FocusListenerEE5ComboEE5clearEv;2A.;empty::(7,291)=#(7,269),(0,4),(7,290),(0,6);:_ZNK6MAUtil6VectorINS_11ListenerSetINS_13FocusListenerEE5ComboEE5emptyEv;2B.;capacity::(7,289):_ZNK6MAUtil6VectorINS_11ListenerSetINS_13FocusListenerEE5ComboEE8capacityEv;2B.;begin::(7,292)=#(7,269),(7,270),(7,273),(0,6);:_ZN6MAUtil6VectorINS_11ListenerSetINS_13FocusListenerEE5ComboEE5beginEv;2A.;end::(7,292):_ZN6MAUtil6VectorINS_11ListenerSetINS_13FocusListenerEE5ComboEE3endEv;2A.;begin::(7,293)=#(7,269),(7,275),(7,290),(0,6);:_ZNK6MAUtil6VectorINS_11ListenerSetINS_13FocusListenerEE5ComboEE5beginEv;2B.;end::(7,293):_ZNK6MAUtil6VectorINS_11ListenerSetINS_13FocusListenerEE5ComboEE3endEv;2B.;operator[]::(7,294)=#(7,269),(7,295)=&(7,271),(7,273),(0,3),(0,6);:_ZN6MAUtil6VectorINS_11ListenerSetINS_13FocusListenerEE5ComboEEixEi;2A.(7,296)=#(7,269),(7,284),(7,290),(0,3),(0,6);:_ZNK6MAUtil6VectorINS_11ListenerSetINS_13FocusListenerEE5ComboEEixEi;2B.;pointer::(7,293):_ZNK6MAUtil6VectorINS_11ListenerSetINS_13FocusListenerEE5ComboEE7pointerEv;2B.(7,292):_ZN6MAUtil6VectorINS_11ListenerSetINS_13FocusListenerEE5ComboEE7pointerEv;2A.;;",128,0,95,0
	.stabs	"ListenerSet<MAUtil::FocusListener>:Tt(7,297)=s16mRunning:/0(0,4),0,8;mUpdateRequired:/0(0,4),8,8;mShouldDelete:/0(0,4),16,8;mVec:/0(7,269),32,96;__base_ctor::(7,298)=#(7,297),(0,6),(7,299)=*(7,297),(0,4),(0,6);:_ZN6MAUtil11ListenerSetINS_13FocusListenerEEC2Eb;2A.;__comp_ctor::(7,298):_ZN6MAUtil11ListenerSetINS_13FocusListenerEEC1Eb;2A.;begin::(7,300)=#(7,297),(7,301)=xsiterator:,(7,299),(0,6);:_ZN6MAUtil11ListenerSetINS_13FocusListenerEE5beginEv;2A.;add::(7,302)=#(7,297),(0,6),(7,299),(7,303)=*(7,304)=xsFocusListener:,(0,6);:_ZN6MAUtil11ListenerSetINS_13FocusListenerEE3addEPS1_;2A.;remove::(7,302):_ZN6MAUtil11ListenerSetINS_13FocusListenerEE6removeEPS1_;2A.;contains::(7,305)=#(7,297),(0,4),(7,299),(7,303),(0,6);:_ZN6MAUtil11ListenerSetINS_13FocusListenerEE8containsEPS1_;2A.;setRunning::(7,306)=#(7,297),(0,6),(7,299),(0,4),(0,6);:_ZN6MAUtil11ListenerSetINS_13FocusListenerEE10setRunningEb;2A.;size::(7,307)=#(7,297),(0,3),(7,308)=*(7,309)=k(7,297),(0,6);:_ZNK6MAUtil11ListenerSetINS_13FocusListenerEE4sizeEv;2B.;operator=::(7,310)=#(7,297),(7,311)=&(7,297),(7,299),(7,312)=&(7,309),(0,6);:_ZN6MAUtil11ListenerSetINS_13FocusListenerEEaSERKS2_;2A.;__base_ctor::(7,313)=#(7,297),(0,6),(7,299),(7,312),(0,6);:_ZN6MAUtil11ListenerSetINS_13FocusListenerEEC2ERKS2_;2A.;__comp_ctor::(7,313):_ZN6MAUtil11ListenerSetINS_13FocusListenerEEC1ERKS2_;2A.;__base_dtor::(7,314)=#(7,297),(0,6),(7,299),(0,6);:_ZN6MAUtil11ListenerSetINS_13FocusListenerEED2Ev;2A.;__comp_dtor::(7,314):_ZN6MAUtil11ListenerSetINS_13FocusListenerEED1Ev;2A.;;",128,0,46,0
	.stabs	"Vector<MAUtil::ListenerSet<MAUtil::CustomEventListener>::Combo>:Tt(7,315)=s12mSize:/1(0,3),0,32;mCapacity:/1(0,3),32,32;mData:/1(7,316)=*(7,317)=xsCombo:,64,32;__base_ctor::(7,318)=#(7,315),(0,6),(7,319)=*(7,315),(0,3),(0,6);:_ZN6MAUtil6VectorINS_11ListenerSetINS_19CustomEventListenerEE5ComboEEC2Ei;2A.;__comp_ctor::(7,318):_ZN6MAUtil6VectorINS_11ListenerSetINS_19CustomEventListenerEE5ComboEEC1Ei;2A.;__base_ctor::(7,320)=#(7,315),(0,6),(7,319),(7,321)=*(7,322)=k(7,317),(0,3),(0,6);:_ZN6MAUtil6VectorINS_11ListenerSetINS_19CustomEventListenerEE5ComboEEC2EPKS4_i;2A.;__comp_ctor::(7,320):_ZN6MAUtil6VectorINS_11ListenerSetINS_19CustomEventListenerEE5ComboEEC1EPKS4_i;2A.;__base_ctor::(7,323)=#(7,315),(0,6),(7,319),(7,324)=&(7,325)=k(7,315),(0,6);:_ZN6MAUtil6VectorINS_11ListenerSetINS_19CustomEventListenerEE5ComboEEC2ERKS5_;2A.;__comp_ctor::(7,323):_ZN6MAUtil6VectorINS_11ListenerSetINS_19CustomEventListenerEE5ComboEEC1ERKS5_;2A.;__base_dtor::(7,326)=#(7,315),(0,6),(7,319),(0,6);:_ZN6MAUtil6VectorINS_11ListenerSetINS_19CustomEventListenerEE5ComboEED2Ev;2A.;__comp_dtor::(7,326):_ZN6MAUtil6VectorINS_11ListenerSetINS_19CustomEventListenerEE5ComboEED1Ev;2A.;operator=::(7,327)=#(7,315),(7,328)=&(7,315),(7,319),(7,324),(0,6);:_ZN6MAUtil6VectorINS_11ListenerSetINS_19CustomEventListenerEE5ComboEEaSERKS5_;2A.;add::(7,329)=#(7,315),(0,6),(7,319),(7,330)=&(7,322),(0,6);:_ZN6MAUtil6VectorINS_11ListenerSetINS_19CustomEventListenerEE5ComboEE3addERKS4_;2A.(7,320):_ZN6MAUtil6VectorINS_11ListenerSetINS_19CustomEventListenerEE5ComboEE3addEPKS4_i;2A.;remove::(7,331)=#(7,315),(0,6),(7,319),(7,316),(0,6);:_ZN6MAUtil6VectorINS_11ListenerSetINS_19CustomEventListenerEE5ComboEE6removeEPS4_;2A.(7,332)=#(7,315),(0,6),(7,319),(0,3),(0,6);:_ZN6MAUtil6VectorINS_11ListenerSetINS_19CustomEventListenerEE5ComboEE6removeEi;2A.(7,333)=#(7,315),(0,6),(7,319),(0,3),(0,3),(0,6);:_ZN6MAUtil6VectorINS_11ListenerSetINS_19CustomEventListenerEE5ComboEE6removeEii;2A.;insert::(7,334)=#(7,315),(0,6),(7,319),(0,3),(7,317),(0,6);:_ZN6MAUtil6VectorINS_11ListenerSetINS_19CustomEventListenerEE5ComboEE6insertEiS4_;2A.;size::(7,335)=#(7,315),(0,3),(7,336)=*(7,325),(0,6);:_ZNK6MAUtil6VectorINS_11ListenerSetINS_19CustomEventListenerEE5ComboEE4sizeEv;2B.;resize::(7,332):_ZN6MAUtil6VectorINS_11ListenerSetINS_19CustomEventListenerEE5ComboEE6resizeEi;2A.;reserve::(7,332):_ZN6MAUtil6VectorINS_11ListenerSetINS_19CustomEventListenerEE5ComboEE7reserveEi;2A.;clear::(7,326):_ZN6MAUtil6VectorINS_11ListenerSetINS_19CustomEventListenerEE5ComboEE5clearEv;2A.;empty::(7,337)=#(7,315),(0,4),(7,336),(0,6);:_ZNK6MAUtil6VectorINS_11ListenerSetINS_19CustomEventListenerEE5ComboEE5emptyEv;2B.;capacity::(7,335):_ZNK6MAUtil6VectorINS_11ListenerSetINS_19CustomEventListenerEE5ComboEE8capacityEv;2B.;begin::(7,338)=#(7,315),(7,316),(7,319),(0,6);:_ZN6MAUtil6VectorINS_11ListenerSetINS_19CustomEventListenerEE5ComboEE5beginEv;2A.;end::(7,338):_ZN6MAUtil6VectorINS_11ListenerSetINS_19CustomEventListenerEE5ComboEE3endEv;2A.;begin::(7,339)=#(7,315),(7,321),(7,336),(0,6);:_ZNK6MAUtil6VectorINS_11ListenerSetINS_19CustomEventListenerEE5ComboEE5beginEv;2B.;end::(7,339):_ZNK6MAUtil6VectorINS_11ListenerSetINS_19CustomEventListenerEE5ComboEE3endEv;2B.;operator[]::(7,340)=#(7,315),(7,341)=&(7,317),(7,319),(0,3),(0,6);:_ZN6MAUtil6VectorINS_11ListenerSetINS_19CustomEventListenerEE5ComboEEixEi;2A.(7,342)=#(7,315),(7,330),(7,336),(0,3),(0,6);:_ZNK6MAUtil6VectorINS_11ListenerSetINS_19CustomEventListenerEE5ComboEEixEi;2B.;pointer::(7,339):_ZNK6MAUtil6VectorINS_11ListenerSetINS_19CustomEventListenerEE5ComboEE7pointerEv;2B.(7,338):_ZN6MAUtil6VectorINS_11ListenerSetINS_19CustomEventListenerEE5ComboEE7pointerEv;2A.;;",128,0,95,0
	.stabs	"ListenerSet<MAUtil::CustomEventListener>:Tt(7,343)=s16mRunning:/0(0,4),0,8;mUpdateRequired:/0(0,4),8,8;mShouldDelete:/0(0,4),16,8;mVec:/0(7,315),32,96;__base_ctor::(7,344)=#(7,343),(0,6),(7,345)=*(7,343),(0,4),(0,6);:_ZN6MAUtil11ListenerSetINS_19CustomEventListenerEEC2Eb;2A.;__comp_ctor::(7,344):_ZN6MAUtil11ListenerSetINS_19CustomEventListenerEEC1Eb;2A.;begin::(7,346)=#(7,343),(7,347)=xsiterator:,(7,345),(0,6);:_ZN6MAUtil11ListenerSetINS_19CustomEventListenerEE5beginEv;2A.;add::(7,348)=#(7,343),(0,6),(7,345),(7,349)=*(7,350)=xsCustomEventListener:,(0,6);:_ZN6MAUtil11ListenerSetINS_19CustomEventListenerEE3addEPS1_;2A.;remove::(7,348):_ZN6MAUtil11ListenerSetINS_19CustomEventListenerEE6removeEPS1_;2A.;contains::(7,351)=#(7,343),(0,4),(7,345),(7,349),(0,6);:_ZN6MAUtil11ListenerSetINS_19CustomEventListenerEE8containsEPS1_;2A.;setRunning::(7,352)=#(7,343),(0,6),(7,345),(0,4),(0,6);:_ZN6MAUtil11ListenerSetINS_19CustomEventListenerEE10setRunningEb;2A.;size::(7,353)=#(7,343),(0,3),(7,354)=*(7,355)=k(7,343),(0,6);:_ZNK6MAUtil11ListenerSetINS_19CustomEventListenerEE4sizeEv;2B.;operator=::(7,356)=#(7,343),(7,357)=&(7,343),(7,345),(7,358)=&(7,355),(0,6);:_ZN6MAUtil11ListenerSetINS_19CustomEventListenerEEaSERKS2_;2A.;__base_ctor::(7,359)=#(7,343),(0,6),(7,345),(7,358),(0,6);:_ZN6MAUtil11ListenerSetINS_19CustomEventListenerEEC2ERKS2_;2A.;__comp_ctor::(7,359):_ZN6MAUtil11ListenerSetINS_19CustomEventListenerEEC1ERKS2_;2A.;__base_dtor::(7,360)=#(7,343),(0,6),(7,345),(0,6);:_ZN6MAUtil11ListenerSetINS_19CustomEventListenerEED2Ev;2A.;__comp_dtor::(7,360):_ZN6MAUtil11ListenerSetINS_19CustomEventListenerEED1Ev;2A.;;",128,0,46,0
	.stabs	"Vector<MAUtil::ListenerSet<MAUtil::TextBoxListener>::Combo>:Tt(7,361)=s12mSize:/1(0,3),0,32;mCapacity:/1(0,3),32,32;mData:/1(7,362)=*(7,363)=xsCombo:,64,32;__base_ctor::(7,364)=#(7,361),(0,6),(7,365)=*(7,361),(0,3),(0,6);:_ZN6MAUtil6VectorINS_11ListenerSetINS_15TextBoxListenerEE5ComboEEC2Ei;2A.;__comp_ctor::(7,364):_ZN6MAUtil6VectorINS_11ListenerSetINS_15TextBoxListenerEE5ComboEEC1Ei;2A.;__base_ctor::(7,366)=#(7,361),(0,6),(7,365),(7,367)=*(7,368)=k(7,363),(0,3),(0,6);:_ZN6MAUtil6VectorINS_11ListenerSetINS_15TextBoxListenerEE5ComboEEC2EPKS4_i;2A.;__comp_ctor::(7,366):_ZN6MAUtil6VectorINS_11ListenerSetINS_15TextBoxListenerEE5ComboEEC1EPKS4_i;2A.;__base_ctor::(7,369)=#(7,361),(0,6),(7,365),(7,370)=&(7,371)=k(7,361),(0,6);:_ZN6MAUtil6VectorINS_11ListenerSetINS_15TextBoxListenerEE5ComboEEC2ERKS5_;2A.;__comp_ctor::(7,369):_ZN6MAUtil6VectorINS_11ListenerSetINS_15TextBoxListenerEE5ComboEEC1ERKS5_;2A.;__base_dtor::(7,372)=#(7,361),(0,6),(7,365),(0,6);:_ZN6MAUtil6VectorINS_11ListenerSetINS_15TextBoxListenerEE5ComboEED2Ev;2A.;__comp_dtor::(7,372):_ZN6MAUtil6VectorINS_11ListenerSetINS_15TextBoxListenerEE5ComboEED1Ev;2A.;operator=::(7,373)=#(7,361),(7,374)=&(7,361),(7,365),(7,370),(0,6);:_ZN6MAUtil6VectorINS_11ListenerSetINS_15TextBoxListenerEE5ComboEEaSERKS5_;2A.;add::(7,375)=#(7,361),(0,6),(7,365),(7,376)=&(7,368),(0,6);:_ZN6MAUtil6VectorINS_11ListenerSetINS_15TextBoxListenerEE5ComboEE3addERKS4_;2A.(7,366):_ZN6MAUtil6VectorINS_11ListenerSetINS_15TextBoxListenerEE5ComboEE3addEPKS4_i;2A.;remove::(7,377)=#(7,361),(0,6),(7,365),(7,362),(0,6);:_ZN6MAUtil6VectorINS_11ListenerSetINS_15TextBoxListenerEE5ComboEE6removeEPS4_;2A.(7,378)=#(7,361),(0,6),(7,365),(0,3),(0,6);:_ZN6MAUtil6VectorINS_11ListenerSetINS_15TextBoxListenerEE5ComboEE6removeEi;2A.(7,379)=#(7,361),(0,6),(7,365),(0,3),(0,3),(0,6);:_ZN6MAUtil6VectorINS_11ListenerSetINS_15TextBoxListenerEE5ComboEE6removeEii;2A.;insert::(7,380)=#(7,361),(0,6),(7,365),(0,3),(7,363),(0,6);:_ZN6MAUtil6VectorINS_11ListenerSetINS_15TextBoxListenerEE5ComboEE6insertEiS4_;2A.;size::(7,381)=#(7,361),(0,3),(7,382)=*(7,371),(0,6);:_ZNK6MAUtil6VectorINS_11ListenerSetINS_15TextBoxListenerEE5ComboEE4sizeEv;2B.;resize::(7,378):_ZN6MAUtil6VectorINS_11ListenerSetINS_15TextBoxListenerEE5ComboEE6resizeEi;2A.;reserve::(7,378):_ZN6MAUtil6VectorINS_11ListenerSetINS_15TextBoxListenerEE5ComboEE7reserveEi;2A.;clear::(7,372):_ZN6MAUtil6VectorINS_11ListenerSetINS_15TextBoxListenerEE5ComboEE5clearEv;2A.;empty::(7,383)=#(7,361),(0,4),(7,382),(0,6);:_ZNK6MAUtil6VectorINS_11ListenerSetINS_15TextBoxListenerEE5ComboEE5emptyEv;2B.;capacity::(7,381):_ZNK6MAUtil6VectorINS_11ListenerSetINS_15TextBoxListenerEE5ComboEE8capacityEv;2B.;begin::(7,384)=#(7,361),(7,362),(7,365),(0,6);:_ZN6MAUtil6VectorINS_11ListenerSetINS_15TextBoxListenerEE5ComboEE5beginEv;2A.;end::(7,384):_ZN6MAUtil6VectorINS_11ListenerSetINS_15TextBoxListenerEE5ComboEE3endEv;2A.;begin::(7,385)=#(7,361),(7,367),(7,382),(0,6);:_ZNK6MAUtil6VectorINS_11ListenerSetINS_15TextBoxListenerEE5ComboEE5beginEv;2B.;end::(7,385):_ZNK6MAUtil6VectorINS_11ListenerSetINS_15TextBoxListenerEE5ComboEE3endEv;2B.;operator[]::(7,386)=#(7,361),(7,387)=&(7,363),(7,365),(0,3),(0,6);:_ZN6MAUtil6VectorINS_11ListenerSetINS_15TextBoxListenerEE5ComboEEixEi;2A.(7,388)=#(7,361),(7,376),(7,382),(0,3),(0,6);:_ZNK6MAUtil6VectorINS_11ListenerSetINS_15TextBoxListenerEE5ComboEEixEi;2B.;pointer::(7,385):_ZNK6MAUtil6VectorINS_11ListenerSetINS_15TextBoxListenerEE5ComboEE7pointerEv;2B.(7,384):_ZN6MAUtil6VectorINS_11ListenerSetINS_15TextBoxListenerEE5ComboEE7pointerEv;2A.;;",128,0,95,0
	.stabs	"ListenerSet<MAUtil::TextBoxListener>:Tt(7,389)=s16mRunning:/0(0,4),0,8;mUpdateRequired:/0(0,4),8,8;mShouldDelete:/0(0,4),16,8;mVec:/0(7,361),32,96;__base_ctor::(7,390)=#(7,389),(0,6),(7,391)=*(7,389),(0,4),(0,6);:_ZN6MAUtil11ListenerSetINS_15TextBoxListenerEEC2Eb;2A.;__comp_ctor::(7,390):_ZN6MAUtil11ListenerSetINS_15TextBoxListenerEEC1Eb;2A.;begin::(7,392)=#(7,389),(7,393)=xsiterator:,(7,391),(0,6);:_ZN6MAUtil11ListenerSetINS_15TextBoxListenerEE5beginEv;2A.;add::(7,394)=#(7,389),(0,6),(7,391),(7,395)=*(7,396)=xsTextBoxListener:,(0,6);:_ZN6MAUtil11ListenerSetINS_15TextBoxListenerEE3addEPS1_;2A.;remove::(7,394):_ZN6MAUtil11ListenerSetINS_15TextBoxListenerEE6removeEPS1_;2A.;contains::(7,397)=#(7,389),(0,4),(7,391),(7,395),(0,6);:_ZN6MAUtil11ListenerSetINS_15TextBoxListenerEE8containsEPS1_;2A.;setRunning::(7,398)=#(7,389),(0,6),(7,391),(0,4),(0,6);:_ZN6MAUtil11ListenerSetINS_15TextBoxListenerEE10setRunningEb;2A.;size::(7,399)=#(7,389),(0,3),(7,400)=*(7,401)=k(7,389),(0,6);:_ZNK6MAUtil11ListenerSetINS_15TextBoxListenerEE4sizeEv;2B.;operator=::(7,402)=#(7,389),(7,403)=&(7,389),(7,391),(7,404)=&(7,401),(0,6);:_ZN6MAUtil11ListenerSetINS_15TextBoxListenerEEaSERKS2_;2A.;__base_ctor::(7,405)=#(7,389),(0,6),(7,391),(7,404),(0,6);:_ZN6MAUtil11ListenerSetINS_15TextBoxListenerEEC2ERKS2_;2A.;__comp_ctor::(7,405):_ZN6MAUtil11ListenerSetINS_15TextBoxListenerEEC1ERKS2_;2A.;__base_dtor::(7,406)=#(7,389),(0,6),(7,391),(0,6);:_ZN6MAUtil11ListenerSetINS_15TextBoxListenerEED2Ev;2A.;__comp_dtor::(7,406):_ZN6MAUtil11ListenerSetINS_15TextBoxListenerEED1Ev;2A.;;",128,0,46,0
	.stabs	"Vector<MAUtil::ListenerSet<MAUtil::SensorListener>::Combo>:Tt(7,407)=s12mSize:/1(0,3),0,32;mCapacity:/1(0,3),32,32;mData:/1(7,408)=*(7,409)=xsCombo:,64,32;__base_ctor::(7,410)=#(7,407),(0,6),(7,411)=*(7,407),(0,3),(0,6);:_ZN6MAUtil6VectorINS_11ListenerSetINS_14SensorListenerEE5ComboEEC2Ei;2A.;__comp_ctor::(7,410):_ZN6MAUtil6VectorINS_11ListenerSetINS_14SensorListenerEE5ComboEEC1Ei;2A.;__base_ctor::(7,412)=#(7,407),(0,6),(7,411),(7,413)=*(7,414)=k(7,409),(0,3),(0,6);:_ZN6MAUtil6VectorINS_11ListenerSetINS_14SensorListenerEE5ComboEEC2EPKS4_i;2A.;__comp_ctor::(7,412):_ZN6MAUtil6VectorINS_11ListenerSetINS_14SensorListenerEE5ComboEEC1EPKS4_i;2A.;__base_ctor::(7,415)=#(7,407),(0,6),(7,411),(7,416)=&(7,417)=k(7,407),(0,6);:_ZN6MAUtil6VectorINS_11ListenerSetINS_14SensorListenerEE5ComboEEC2ERKS5_;2A.;__comp_ctor::(7,415):_ZN6MAUtil6VectorINS_11ListenerSetINS_14SensorListenerEE5ComboEEC1ERKS5_;2A.;__base_dtor::(7,418)=#(7,407),(0,6),(7,411),(0,6);:_ZN6MAUtil6VectorINS_11ListenerSetINS_14SensorListenerEE5ComboEED2Ev;2A.;__comp_dtor::(7,418):_ZN6MAUtil6VectorINS_11ListenerSetINS_14SensorListenerEE5ComboEED1Ev;2A.;operator=::(7,419)=#(7,407),(7,420)=&(7,407),(7,411),(7,416),(0,6);:_ZN6MAUtil6VectorINS_11ListenerSetINS_14SensorListenerEE5ComboEEaSERKS5_;2A.;add::(7,421)=#(7,407),(0,6),(7,411),(7,422)=&(7,414),(0,6);:_ZN6MAUtil6VectorINS_11ListenerSetINS_14SensorListenerEE5ComboEE3addERKS4_;2A.(7,412):_ZN6MAUtil6VectorINS_11ListenerSetINS_14SensorListenerEE5ComboEE3addEPKS4_i;2A.;remove::(7,423)=#(7,407),(0,6),(7,411),(7,408),(0,6);:_ZN6MAUtil6VectorINS_11ListenerSetINS_14SensorListenerEE5ComboEE6removeEPS4_;2A.(7,424)=#(7,407),(0,6),(7,411),(0,3),(0,6);:_ZN6MAUtil6VectorINS_11ListenerSetINS_14SensorListenerEE5ComboEE6removeEi;2A.(7,425)=#(7,407),(0,6),(7,411),(0,3),(0,3),(0,6);:_ZN6MAUtil6VectorINS_11ListenerSetINS_14SensorListenerEE5ComboEE6removeEii;2A.;insert::(7,426)=#(7,407),(0,6),(7,411),(0,3),(7,409),(0,6);:_ZN6MAUtil6VectorINS_11ListenerSetINS_14SensorListenerEE5ComboEE6insertEiS4_;2A.;size::(7,427)=#(7,407),(0,3),(7,428)=*(7,417),(0,6);:_ZNK6MAUtil6VectorINS_11ListenerSetINS_14SensorListenerEE5ComboEE4sizeEv;2B.;resize::(7,424):_ZN6MAUtil6VectorINS_11ListenerSetINS_14SensorListenerEE5ComboEE6resizeEi;2A.;reserve::(7,424):_ZN6MAUtil6VectorINS_11ListenerSetINS_14SensorListenerEE5ComboEE7reserveEi;2A.;clear::(7,418):_ZN6MAUtil6VectorINS_11ListenerSetINS_14SensorListenerEE5ComboEE5clearEv;2A.;empty::(7,429)=#(7,407),(0,4),(7,428),(0,6);:_ZNK6MAUtil6VectorINS_11ListenerSetINS_14SensorListenerEE5ComboEE5emptyEv;2B.;capacity::(7,427):_ZNK6MAUtil6VectorINS_11ListenerSetINS_14SensorListenerEE5ComboEE8capacityEv;2B.;begin::(7,430)=#(7,407),(7,408),(7,411),(0,6);:_ZN6MAUtil6VectorINS_11ListenerSetINS_14SensorListenerEE5ComboEE5beginEv;2A.;end::(7,430):_ZN6MAUtil6VectorINS_11ListenerSetINS_14SensorListenerEE5ComboEE3endEv;2A.;begin::(7,431)=#(7,407),(7,413),(7,428),(0,6);:_ZNK6MAUtil6VectorINS_11ListenerSetINS_14SensorListenerEE5ComboEE5beginEv;2B.;end::(7,431):_ZNK6MAUtil6VectorINS_11ListenerSetINS_14SensorListenerEE5ComboEE3endEv;2B.;operator[]::(7,432)=#(7,407),(7,433)=&(7,409),(7,411),(0,3),(0,6);:_ZN6MAUtil6VectorINS_11ListenerSetINS_14SensorListenerEE5ComboEEixEi;2A.(7,434)=#(7,407),(7,422),(7,428),(0,3),(0,6);:_ZNK6MAUtil6VectorINS_11ListenerSetINS_14SensorListenerEE5ComboEEixEi;2B.;pointer::(7,431):_ZNK6MAUtil6VectorINS_11ListenerSetINS_14SensorListenerEE5ComboEE7pointerEv;2B.(7,430):_ZN6MAUtil6VectorINS_11ListenerSetINS_14SensorListenerEE5ComboEE7pointerEv;2A.;;",128,0,95,0
	.stabs	"ListenerSet<MAUtil::SensorListener>:Tt(7,435)=s16mRunning:/0(0,4),0,8;mUpdateRequired:/0(0,4),8,8;mShouldDelete:/0(0,4),16,8;mVec:/0(7,407),32,96;__base_ctor::(7,436)=#(7,435),(0,6),(7,437)=*(7,435),(0,4),(0,6);:_ZN6MAUtil11ListenerSetINS_14SensorListenerEEC2Eb;2A.;__comp_ctor::(7,436):_ZN6MAUtil11ListenerSetINS_14SensorListenerEEC1Eb;2A.;begin::(7,438)=#(7,435),(7,439)=xsiterator:,(7,437),(0,6);:_ZN6MAUtil11ListenerSetINS_14SensorListenerEE5beginEv;2A.;add::(7,440)=#(7,435),(0,6),(7,437),(7,441)=*(7,442)=xsSensorListener:,(0,6);:_ZN6MAUtil11ListenerSetINS_14SensorListenerEE3addEPS1_;2A.;remove::(7,440):_ZN6MAUtil11ListenerSetINS_14SensorListenerEE6removeEPS1_;2A.;contains::(7,443)=#(7,435),(0,4),(7,437),(7,441),(0,6);:_ZN6MAUtil11ListenerSetINS_14SensorListenerEE8containsEPS1_;2A.;setRunning::(7,444)=#(7,435),(0,6),(7,437),(0,4),(0,6);:_ZN6MAUtil11ListenerSetINS_14SensorListenerEE10setRunningEb;2A.;size::(7,445)=#(7,435),(0,3),(7,446)=*(7,447)=k(7,435),(0,6);:_ZNK6MAUtil11ListenerSetINS_14SensorListenerEE4sizeEv;2B.;operator=::(7,448)=#(7,435),(7,449)=&(7,435),(7,437),(7,450)=&(7,447),(0,6);:_ZN6MAUtil11ListenerSetINS_14SensorListenerEEaSERKS2_;2A.;__base_ctor::(7,451)=#(7,435),(0,6),(7,437),(7,450),(0,6);:_ZN6MAUtil11ListenerSetINS_14SensorListenerEEC2ERKS2_;2A.;__comp_ctor::(7,451):_ZN6MAUtil11ListenerSetINS_14SensorListenerEEC1ERKS2_;2A.;__base_dtor::(7,452)=#(7,435),(0,6),(7,437),(0,6);:_ZN6MAUtil11ListenerSetINS_14SensorListenerEED2Ev;2A.;__comp_dtor::(7,452):_ZN6MAUtil11ListenerSetINS_14SensorListenerEED1Ev;2A.;;",128,0,46,0
	.stabs	"Vector<MAUtil::ListenerSet<MAUtil::OrientationListener>::Combo>:Tt(7,453)=s12mSize:/1(0,3),0,32;mCapacity:/1(0,3),32,32;mData:/1(7,454)=*(7,455)=xsCombo:,64,32;__base_ctor::(7,456)=#(7,453),(0,6),(7,457)=*(7,453),(0,3),(0,6);:_ZN6MAUtil6VectorINS_11ListenerSetINS_19OrientationListenerEE5ComboEEC2Ei;2A.;__comp_ctor::(7,456):_ZN6MAUtil6VectorINS_11ListenerSetINS_19OrientationListenerEE5ComboEEC1Ei;2A.;__base_ctor::(7,458)=#(7,453),(0,6),(7,457),(7,459)=*(7,460)=k(7,455),(0,3),(0,6);:_ZN6MAUtil6VectorINS_11ListenerSetINS_19OrientationListenerEE5ComboEEC2EPKS4_i;2A.;__comp_ctor::(7,458):_ZN6MAUtil6VectorINS_11ListenerSetINS_19OrientationListenerEE5ComboEEC1EPKS4_i;2A.;__base_ctor::(7,461)=#(7,453),(0,6),(7,457),(7,462)=&(7,463)=k(7,453),(0,6);:_ZN6MAUtil6VectorINS_11ListenerSetINS_19OrientationListenerEE5ComboEEC2ERKS5_;2A.;__comp_ctor::(7,461):_ZN6MAUtil6VectorINS_11ListenerSetINS_19OrientationListenerEE5ComboEEC1ERKS5_;2A.;__base_dtor::(7,464)=#(7,453),(0,6),(7,457),(0,6);:_ZN6MAUtil6VectorINS_11ListenerSetINS_19OrientationListenerEE5ComboEED2Ev;2A.;__comp_dtor::(7,464):_ZN6MAUtil6VectorINS_11ListenerSetINS_19OrientationListenerEE5ComboEED1Ev;2A.;operator=::(7,465)=#(7,453),(7,466)=&(7,453),(7,457),(7,462),(0,6);:_ZN6MAUtil6VectorINS_11ListenerSetINS_19OrientationListenerEE5ComboEEaSERKS5_;2A.;add::(7,467)=#(7,453),(0,6),(7,457),(7,468)=&(7,460),(0,6);:_ZN6MAUtil6VectorINS_11ListenerSetINS_19OrientationListenerEE5ComboEE3addERKS4_;2A.(7,458):_ZN6MAUtil6VectorINS_11ListenerSetINS_19OrientationListenerEE5ComboEE3addEPKS4_i;2A.;remove::(7,469)=#(7,453),(0,6),(7,457),(7,454),(0,6);:_ZN6MAUtil6VectorINS_11ListenerSetINS_19OrientationListenerEE5ComboEE6removeEPS4_;2A.(7,470)=#(7,453),(0,6),(7,457),(0,3),(0,6);:_ZN6MAUtil6VectorINS_11ListenerSetINS_19OrientationListenerEE5ComboEE6removeEi;2A.(7,471)=#(7,453),(0,6),(7,457),(0,3),(0,3),(0,6);:_ZN6MAUtil6VectorINS_11ListenerSetINS_19OrientationListenerEE5ComboEE6removeEii;2A.;insert::(7,472)=#(7,453),(0,6),(7,457),(0,3),(7,455),(0,6);:_ZN6MAUtil6VectorINS_11ListenerSetINS_19OrientationListenerEE5ComboEE6insertEiS4_;2A.;size::(7,473)=#(7,453),(0,3),(7,474)=*(7,463),(0,6);:_ZNK6MAUtil6VectorINS_11ListenerSetINS_19OrientationListenerEE5ComboEE4sizeEv;2B.;resize::(7,470):_ZN6MAUtil6VectorINS_11ListenerSetINS_19OrientationListenerEE5ComboEE6resizeEi;2A.;reserve::(7,470):_ZN6MAUtil6VectorINS_11ListenerSetINS_19OrientationListenerEE5ComboEE7reserveEi;2A.;clear::(7,464):_ZN6MAUtil6VectorINS_11ListenerSetINS_19OrientationListenerEE5ComboEE5clearEv;2A.;empty::(7,475)=#(7,453),(0,4),(7,474),(0,6);:_ZNK6MAUtil6VectorINS_11ListenerSetINS_19OrientationListenerEE5ComboEE5emptyEv;2B.;capacity::(7,473):_ZNK6MAUtil6VectorINS_11ListenerSetINS_19OrientationListenerEE5ComboEE8capacityEv;2B.;begin::(7,476)=#(7,453),(7,454),(7,457),(0,6);:_ZN6MAUtil6VectorINS_11ListenerSetINS_19OrientationListenerEE5ComboEE5beginEv;2A.;end::(7,476):_ZN6MAUtil6VectorINS_11ListenerSetINS_19OrientationListenerEE5ComboEE3endEv;2A.;begin::(7,477)=#(7,453),(7,459),(7,474),(0,6);:_ZNK6MAUtil6VectorINS_11ListenerSetINS_19OrientationListenerEE5ComboEE5beginEv;2B.;end::(7,477):_ZNK6MAUtil6VectorINS_11ListenerSetINS_19OrientationListenerEE5ComboEE3endEv;2B.;operator[]::(7,478)=#(7,453),(7,479)=&(7,455),(7,457),(0,3),(0,6);:_ZN6MAUtil6VectorINS_11ListenerSetINS_19OrientationListenerEE5ComboEEixEi;2A.(7,480)=#(7,453),(7,468),(7,474),(0,3),(0,6);:_ZNK6MAUtil6VectorINS_11ListenerSetINS_19OrientationListenerEE5ComboEEixEi;2B.;pointer::(7,477):_ZNK6MAUtil6VectorINS_11ListenerSetINS_19OrientationListenerEE5ComboEE7pointerEv;2B.(7,476):_ZN6MAUtil6VectorINS_11ListenerSetINS_19OrientationListenerEE5ComboEE7pointerEv;2A.;;",128,0,95,0
	.stabs	"ListenerSet<MAUtil::OrientationListener>:Tt(7,481)=s16mRunning:/0(0,4),0,8;mUpdateRequired:/0(0,4),8,8;mShouldDelete:/0(0,4),16,8;mVec:/0(7,453),32,96;__base_ctor::(7,482)=#(7,481),(0,6),(7,483)=*(7,481),(0,4),(0,6);:_ZN6MAUtil11ListenerSetINS_19OrientationListenerEEC2Eb;2A.;__comp_ctor::(7,482):_ZN6MAUtil11ListenerSetINS_19OrientationListenerEEC1Eb;2A.;begin::(7,484)=#(7,481),(7,485)=xsiterator:,(7,483),(0,6);:_ZN6MAUtil11ListenerSetINS_19OrientationListenerEE5beginEv;2A.;add::(7,486)=#(7,481),(0,6),(7,483),(7,487)=*(7,488)=xsOrientationListener:,(0,6);:_ZN6MAUtil11ListenerSetINS_19OrientationListenerEE3addEPS1_;2A.;remove::(7,486):_ZN6MAUtil11ListenerSetINS_19OrientationListenerEE6removeEPS1_;2A.;contains::(7,489)=#(7,481),(0,4),(7,483),(7,487),(0,6);:_ZN6MAUtil11ListenerSetINS_19OrientationListenerEE8containsEPS1_;2A.;setRunning::(7,490)=#(7,481),(0,6),(7,483),(0,4),(0,6);:_ZN6MAUtil11ListenerSetINS_19OrientationListenerEE10setRunningEb;2A.;size::(7,491)=#(7,481),(0,3),(7,492)=*(7,493)=k(7,481),(0,6);:_ZNK6MAUtil11ListenerSetINS_19OrientationListenerEE4sizeEv;2B.;operator=::(7,494)=#(7,481),(7,495)=&(7,481),(7,483),(7,496)=&(7,493),(0,6);:_ZN6MAUtil11ListenerSetINS_19OrientationListenerEEaSERKS2_;2A.;__base_ctor::(7,497)=#(7,481),(0,6),(7,483),(7,496),(0,6);:_ZN6MAUtil11ListenerSetINS_19OrientationListenerEEC2ERKS2_;2A.;__comp_ctor::(7,497):_ZN6MAUtil11ListenerSetINS_19OrientationListenerEEC1ERKS2_;2A.;__base_dtor::(7,498)=#(7,481),(0,6),(7,483),(0,6);:_ZN6MAUtil11ListenerSetINS_19OrientationListenerEED2Ev;2A.;__comp_dtor::(7,498):_ZN6MAUtil11ListenerSetINS_19OrientationListenerEED1Ev;2A.;;",128,0,46,0
	.stabs	"Vector<MAUtil::ListenerSet<MAUtil::CameraListener>::Combo>:Tt(7,499)=s12mSize:/1(0,3),0,32;mCapacity:/1(0,3),32,32;mData:/1(7,500)=*(7,501)=xsCombo:,64,32;__base_ctor::(7,502)=#(7,499),(0,6),(7,503)=*(7,499),(0,3),(0,6);:_ZN6MAUtil6VectorINS_11ListenerSetINS_14CameraListenerEE5ComboEEC2Ei;2A.;__comp_ctor::(7,502):_ZN6MAUtil6VectorINS_11ListenerSetINS_14CameraListenerEE5ComboEEC1Ei;2A.;__base_ctor::(7,504)=#(7,499),(0,6),(7,503),(7,505)=*(7,506)=k(7,501),(0,3),(0,6);:_ZN6MAUtil6VectorINS_11ListenerSetINS_14CameraListenerEE5ComboEEC2EPKS4_i;2A.;__comp_ctor::(7,504):_ZN6MAUtil6VectorINS_11ListenerSetINS_14CameraListenerEE5ComboEEC1EPKS4_i;2A.;__base_ctor::(7,507)=#(7,499),(0,6),(7,503),(7,508)=&(7,509)=k(7,499),(0,6);:_ZN6MAUtil6VectorINS_11ListenerSetINS_14CameraListenerEE5ComboEEC2ERKS5_;2A.;__comp_ctor::(7,507):_ZN6MAUtil6VectorINS_11ListenerSetINS_14CameraListenerEE5ComboEEC1ERKS5_;2A.;__base_dtor::(7,510)=#(7,499),(0,6),(7,503),(0,6);:_ZN6MAUtil6VectorINS_11ListenerSetINS_14CameraListenerEE5ComboEED2Ev;2A.;__comp_dtor::(7,510):_ZN6MAUtil6VectorINS_11ListenerSetINS_14CameraListenerEE5ComboEED1Ev;2A.;operator=::(7,511)=#(7,499),(7,512)=&(7,499),(7,503),(7,508),(0,6);:_ZN6MAUtil6VectorINS_11ListenerSetINS_14CameraListenerEE5ComboEEaSERKS5_;2A.;add::(7,513)=#(7,499),(0,6),(7,503),(7,514)=&(7,506),(0,6);:_ZN6MAUtil6VectorINS_11ListenerSetINS_14CameraListenerEE5ComboEE3addERKS4_;2A.(7,504):_ZN6MAUtil6VectorINS_11ListenerSetINS_14CameraListenerEE5ComboEE3addEPKS4_i;2A.;remove::(7,515)=#(7,499),(0,6),(7,503),(7,500),(0,6);:_ZN6MAUtil6VectorINS_11ListenerSetINS_14CameraListenerEE5ComboEE6removeEPS4_;2A.(7,516)=#(7,499),(0,6),(7,503),(0,3),(0,6);:_ZN6MAUtil6VectorINS_11ListenerSetINS_14CameraListenerEE5ComboEE6removeEi;2A.(7,517)=#(7,499),(0,6),(7,503),(0,3),(0,3),(0,6);:_ZN6MAUtil6VectorINS_11ListenerSetINS_14CameraListenerEE5ComboEE6removeEii;2A.;insert::(7,518)=#(7,499),(0,6),(7,503),(0,3),(7,501),(0,6);:_ZN6MAUtil6VectorINS_11ListenerSetINS_14CameraListenerEE5ComboEE6insertEiS4_;2A.;size::(7,519)=#(7,499),(0,3),(7,520)=*(7,509),(0,6);:_ZNK6MAUtil6VectorINS_11ListenerSetINS_14CameraListenerEE5ComboEE4sizeEv;2B.;resize::(7,516):_ZN6MAUtil6VectorINS_11ListenerSetINS_14CameraListenerEE5ComboEE6resizeEi;2A.;reserve::(7,516):_ZN6MAUtil6VectorINS_11ListenerSetINS_14CameraListenerEE5ComboEE7reserveEi;2A.;clear::(7,510):_ZN6MAUtil6VectorINS_11ListenerSetINS_14CameraListenerEE5ComboEE5clearEv;2A.;empty::(7,521)=#(7,499),(0,4),(7,520),(0,6);:_ZNK6MAUtil6VectorINS_11ListenerSetINS_14CameraListenerEE5ComboEE5emptyEv;2B.;capacity::(7,519):_ZNK6MAUtil6VectorINS_11ListenerSetINS_14CameraListenerEE5ComboEE8capacityEv;2B.;begin::(7,522)=#(7,499),(7,500),(7,503),(0,6);:_ZN6MAUtil6VectorINS_11ListenerSetINS_14CameraListenerEE5ComboEE5beginEv;2A.;end::(7,522):_ZN6MAUtil6VectorINS_11ListenerSetINS_14CameraListenerEE5ComboEE3endEv;2A.;begin::(7,523)=#(7,499),(7,505),(7,520),(0,6);:_ZNK6MAUtil6VectorINS_11ListenerSetINS_14CameraListenerEE5ComboEE5beginEv;2B.;end::(7,523):_ZNK6MAUtil6VectorINS_11ListenerSetINS_14CameraListenerEE5ComboEE3endEv;2B.;operator[]::(7,524)=#(7,499),(7,525)=&(7,501),(7,503),(0,3),(0,6);:_ZN6MAUtil6VectorINS_11ListenerSetINS_14CameraListenerEE5ComboEEixEi;2A.(7,526)=#(7,499),(7,514),(7,520),(0,3),(0,6);:_ZNK6MAUtil6VectorINS_11ListenerSetINS_14CameraListenerEE5ComboEEixEi;2B.;pointer::(7,523):_ZNK6MAUtil6VectorINS_11ListenerSetINS_14CameraListenerEE5ComboEE7pointerEv;2B.(7,522):_ZN6MAUtil6VectorINS_11ListenerSetINS_14CameraListenerEE5ComboEE7pointerEv;2A.;;",128,0,95,0
	.stabs	"ListenerSet<MAUtil::CameraListener>:Tt(7,527)=s16mRunning:/0(0,4),0,8;mUpdateRequired:/0(0,4),8,8;mShouldDelete:/0(0,4),16,8;mVec:/0(7,499),32,96;__base_ctor::(7,528)=#(7,527),(0,6),(7,529)=*(7,527),(0,4),(0,6);:_ZN6MAUtil11ListenerSetINS_14CameraListenerEEC2Eb;2A.;__comp_ctor::(7,528):_ZN6MAUtil11ListenerSetINS_14CameraListenerEEC1Eb;2A.;begin::(7,530)=#(7,527),(7,531)=xsiterator:,(7,529),(0,6);:_ZN6MAUtil11ListenerSetINS_14CameraListenerEE5beginEv;2A.;add::(7,532)=#(7,527),(0,6),(7,529),(7,533)=*(7,534)=xsCameraListener:,(0,6);:_ZN6MAUtil11ListenerSetINS_14CameraListenerEE3addEPS1_;2A.;remove::(7,532):_ZN6MAUtil11ListenerSetINS_14CameraListenerEE6removeEPS1_;2A.;contains::(7,535)=#(7,527),(0,4),(7,529),(7,533),(0,6);:_ZN6MAUtil11ListenerSetINS_14CameraListenerEE8containsEPS1_;2A.;setRunning::(7,536)=#(7,527),(0,6),(7,529),(0,4),(0,6);:_ZN6MAUtil11ListenerSetINS_14CameraListenerEE10setRunningEb;2A.;size::(7,537)=#(7,527),(0,3),(7,538)=*(7,539)=k(7,527),(0,6);:_ZNK6MAUtil11ListenerSetINS_14CameraListenerEE4sizeEv;2B.;operator=::(7,540)=#(7,527),(7,541)=&(7,527),(7,529),(7,542)=&(7,539),(0,6);:_ZN6MAUtil11ListenerSetINS_14CameraListenerEEaSERKS2_;2A.;__base_ctor::(7,543)=#(7,527),(0,6),(7,529),(7,542),(0,6);:_ZN6MAUtil11ListenerSetINS_14CameraListenerEEC2ERKS2_;2A.;__comp_ctor::(7,543):_ZN6MAUtil11ListenerSetINS_14CameraListenerEEC1ERKS2_;2A.;__base_dtor::(7,544)=#(7,527),(0,6),(7,529),(0,6);:_ZN6MAUtil11ListenerSetINS_14CameraListenerEED2Ev;2A.;__comp_dtor::(7,544):_ZN6MAUtil11ListenerSetINS_14CameraListenerEED1Ev;2A.;;",128,0,46,0
	.stabs	"Vector<MAUtil::ListenerSet<MAUtil::MediaExportListener>::Combo>:Tt(7,545)=s12mSize:/1(0,3),0,32;mCapacity:/1(0,3),32,32;mData:/1(7,546)=*(7,547)=xsCombo:,64,32;__base_ctor::(7,548)=#(7,545),(0,6),(7,549)=*(7,545),(0,3),(0,6);:_ZN6MAUtil6VectorINS_11ListenerSetINS_19MediaExportListenerEE5ComboEEC2Ei;2A.;__comp_ctor::(7,548):_ZN6MAUtil6VectorINS_11ListenerSetINS_19MediaExportListenerEE5ComboEEC1Ei;2A.;__base_ctor::(7,550)=#(7,545),(0,6),(7,549),(7,551)=*(7,552)=k(7,547),(0,3),(0,6);:_ZN6MAUtil6VectorINS_11ListenerSetINS_19MediaExportListenerEE5ComboEEC2EPKS4_i;2A.;__comp_ctor::(7,550):_ZN6MAUtil6VectorINS_11ListenerSetINS_19MediaExportListenerEE5ComboEEC1EPKS4_i;2A.;__base_ctor::(7,553)=#(7,545),(0,6),(7,549),(7,554)=&(7,555)=k(7,545),(0,6);:_ZN6MAUtil6VectorINS_11ListenerSetINS_19MediaExportListenerEE5ComboEEC2ERKS5_;2A.;__comp_ctor::(7,553):_ZN6MAUtil6VectorINS_11ListenerSetINS_19MediaExportListenerEE5ComboEEC1ERKS5_;2A.;__base_dtor::(7,556)=#(7,545),(0,6),(7,549),(0,6);:_ZN6MAUtil6VectorINS_11ListenerSetINS_19MediaExportListenerEE5ComboEED2Ev;2A.;__comp_dtor::(7,556):_ZN6MAUtil6VectorINS_11ListenerSetINS_19MediaExportListenerEE5ComboEED1Ev;2A.;operator=::(7,557)=#(7,545),(7,558)=&(7,545),(7,549),(7,554),(0,6);:_ZN6MAUtil6VectorINS_11ListenerSetINS_19MediaExportListenerEE5ComboEEaSERKS5_;2A.;add::(7,559)=#(7,545),(0,6),(7,549),(7,560)=&(7,552),(0,6);:_ZN6MAUtil6VectorINS_11ListenerSetINS_19MediaExportListenerEE5ComboEE3addERKS4_;2A.(7,550):_ZN6MAUtil6VectorINS_11ListenerSetINS_19MediaExportListenerEE5ComboEE3addEPKS4_i;2A.;remove::(7,561)=#(7,545),(0,6),(7,549),(7,546),(0,6);:_ZN6MAUtil6VectorINS_11ListenerSetINS_19MediaExportListenerEE5ComboEE6removeEPS4_;2A.(7,562)=#(7,545),(0,6),(7,549),(0,3),(0,6);:_ZN6MAUtil6VectorINS_11ListenerSetINS_19MediaExportListenerEE5ComboEE6removeEi;2A.(7,563)=#(7,545),(0,6),(7,549),(0,3),(0,3),(0,6);:_ZN6MAUtil6VectorINS_11ListenerSetINS_19MediaExportListenerEE5ComboEE6removeEii;2A.;insert::(7,564)=#(7,545),(0,6),(7,549),(0,3),(7,547),(0,6);:_ZN6MAUtil6VectorINS_11ListenerSetINS_19MediaExportListenerEE5ComboEE6insertEiS4_;2A.;size::(7,565)=#(7,545),(0,3),(7,566)=*(7,555),(0,6);:_ZNK6MAUtil6VectorINS_11ListenerSetINS_19MediaExportListenerEE5ComboEE4sizeEv;2B.;resize::(7,562):_ZN6MAUtil6VectorINS_11ListenerSetINS_19MediaExportListenerEE5ComboEE6resizeEi;2A.;reserve::(7,562):_ZN6MAUtil6VectorINS_11ListenerSetINS_19MediaExportListenerEE5ComboEE7reserveEi;2A.;clear::(7,556):_ZN6MAUtil6VectorINS_11ListenerSetINS_19MediaExportListenerEE5ComboEE5clearEv;2A.;empty::(7,567)=#(7,545),(0,4),(7,566),(0,6);:_ZNK6MAUtil6VectorINS_11ListenerSetINS_19MediaExportListenerEE5ComboEE5emptyEv;2B.;capacity::(7,565):_ZNK6MAUtil6VectorINS_11ListenerSetINS_19MediaExportListenerEE5ComboEE8capacityEv;2B.;begin::(7,568)=#(7,545),(7,546),(7,549),(0,6);:_ZN6MAUtil6VectorINS_11ListenerSetINS_19MediaExportListenerEE5ComboEE5beginEv;2A.;end::(7,568):_ZN6MAUtil6VectorINS_11ListenerSetINS_19MediaExportListenerEE5ComboEE3endEv;2A.;begin::(7,569)=#(7,545),(7,551),(7,566),(0,6);:_ZNK6MAUtil6VectorINS_11ListenerSetINS_19MediaExportListenerEE5ComboEE5beginEv;2B.;end::(7,569):_ZNK6MAUtil6VectorINS_11ListenerSetINS_19MediaExportListenerEE5ComboEE3endEv;2B.;operator[]::(7,570)=#(7,545),(7,571)=&(7,547),(7,549),(0,3),(0,6);:_ZN6MAUtil6VectorINS_11ListenerSetINS_19MediaExportListenerEE5ComboEEixEi;2A.(7,572)=#(7,545),(7,560),(7,566),(0,3),(0,6);:_ZNK6MAUtil6VectorINS_11ListenerSetINS_19MediaExportListenerEE5ComboEEixEi;2B.;pointer::(7,569):_ZNK6MAUtil6VectorINS_11ListenerSetINS_19MediaExportListenerEE5ComboEE7pointerEv;2B.(7,568):_ZN6MAUtil6VectorINS_11ListenerSetINS_19MediaExportListenerEE5ComboEE7pointerEv;2A.;;",128,0,95,0
	.stabs	"ListenerSet<MAUtil::MediaExportListener>:Tt(7,573)=s16mRunning:/0(0,4),0,8;mUpdateRequired:/0(0,4),8,8;mShouldDelete:/0(0,4),16,8;mVec:/0(7,545),32,96;__base_ctor::(7,574)=#(7,573),(0,6),(7,575)=*(7,573),(0,4),(0,6);:_ZN6MAUtil11ListenerSetINS_19MediaExportListenerEEC2Eb;2A.;__comp_ctor::(7,574):_ZN6MAUtil11ListenerSetINS_19MediaExportListenerEEC1Eb;2A.;begin::(7,576)=#(7,573),(7,577)=xsiterator:,(7,575),(0,6);:_ZN6MAUtil11ListenerSetINS_19MediaExportListenerEE5beginEv;2A.;add::(7,578)=#(7,573),(0,6),(7,575),(7,579)=*(7,580)=xsMediaExportListener:,(0,6);:_ZN6MAUtil11ListenerSetINS_19MediaExportListenerEE3addEPS1_;2A.;remove::(7,578):_ZN6MAUtil11ListenerSetINS_19MediaExportListenerEE6removeEPS1_;2A.;contains::(7,581)=#(7,573),(0,4),(7,575),(7,579),(0,6);:_ZN6MAUtil11ListenerSetINS_19MediaExportListenerEE8containsEPS1_;2A.;setRunning::(7,582)=#(7,573),(0,6),(7,575),(0,4),(0,6);:_ZN6MAUtil11ListenerSetINS_19MediaExportListenerEE10setRunningEb;2A.;size::(7,583)=#(7,573),(0,3),(7,584)=*(7,585)=k(7,573),(0,6);:_ZNK6MAUtil11ListenerSetINS_19MediaExportListenerEE4sizeEv;2B.;operator=::(7,586)=#(7,573),(7,587)=&(7,573),(7,575),(7,588)=&(7,585),(0,6);:_ZN6MAUtil11ListenerSetINS_19MediaExportListenerEEaSERKS2_;2A.;__base_ctor::(7,589)=#(7,573),(0,6),(7,575),(7,588),(0,6);:_ZN6MAUtil11ListenerSetINS_19MediaExportListenerEEC2ERKS2_;2A.;__comp_ctor::(7,589):_ZN6MAUtil11ListenerSetINS_19MediaExportListenerEEC1ERKS2_;2A.;__base_dtor::(7,590)=#(7,573),(0,6),(7,575),(0,6);:_ZN6MAUtil11ListenerSetINS_19MediaExportListenerEED2Ev;2A.;__comp_dtor::(7,590):_ZN6MAUtil11ListenerSetINS_19MediaExportListenerEED1Ev;2A.;;",128,0,46,0
	.stabn	162,0,0,0
	.stabn	162,0,0,0
	.stabs	"/Applications/MoSync/include/conprint.h",130,0,0,0
	.stabs	"/Applications/MoSync/include/maarg.h",130,0,0,0
	.stabs	"__gnuc_va_list:t(9,1)=(0,20)",128,0,34,0
	.stabs	"va_list:t(9,2)=(9,1)",128,0,35,0
	.stabn	162,0,0,0
	.stabn	162,0,0,0
	.stabs	"/Applications/MoSync/include/NativeUI/Widgets.h",130,0,0,0
	.stabs	"/Applications/MoSync/include/NativeUI/ActivityIndicator.h",130,0,0,0
	.stabs	"/Applications/MoSync/include/NativeUI/Widget.h",130,0,0,0
	.stabs	"/Applications/MoSync/include/MAUtil/Map.h",130,0,0,0
	.stabs	"/Applications/MoSync/include/MAUtil/Dictionary.h",130,0,0,0
	.stabs	"/Applications/MoSync/include/kazlib/dict.h",130,0,0,0
	.stabs	"dictcount_t:t(15,1)=(0,16)",128,0,39,0
	.stabs	"dnode_color_t:t(15,2)=ednode_red:0,dnode_black:1,;",128,0,46,0
	.stabs	"dnode_t:Tt(15,3)=s24dict_left:(15,4)=*(15,3),0,32;dict_right:(15,4),32,32;dict_parent:(15,4),64,32;dict_color:(15,2),96,32;dict_key:(15,5)=*(15,6)=k(0,6),128,32;dict_data:(2,9),160,32;operator=::(15,7)=#(15,3),(15,8)=&(15,3),(15,4),(15,9)=&(15,10)=k(15,3),(0,6);:_ZN7dnode_taSERKS_;2A.;__base_ctor::(15,11)=#(15,3),(0,6),(15,4),(15,9),(0,6);:_ZN7dnode_tC2ERKS_;2A.;__comp_ctor::(15,11):_ZN7dnode_tC1ERKS_;2A.;__base_ctor::(15,12)=#(15,3),(0,6),(15,4),(0,6);:_ZN7dnode_tC2Ev;2A.;__comp_ctor::(15,12):_ZN7dnode_tC1Ev;2A.;;",128,0,48,0
	.stabs	"dnode_t:t(15,13)=(15,3)",128,0,59,0
	.stabs	"dict_comp_t:t(15,14)=(15,15)=*(15,16)=f(0,3)",128,0,61,0
	.stabs	"dnode_alloc_t:t(15,17)=(15,18)=*(15,19)=f(15,20)=*(15,13)",128,0,62,0
	.stabs	"dnode_free_t:t(15,21)=(15,22)=*(15,23)=f(0,6)",128,0,63,0
	.stabs	"dict_t:Tt(15,24)=s52dict_nilnode:(15,13),0,192;dict_nodecount:(15,1),192,32;dict_maxcount:(15,1),224,32;dict_compare:(15,14),256,32;dict_allocnode:(15,17),288,32;dict_freenode:(15,21),320,32;dict_context:(2,9),352,32;dict_dupes:(0,3),384,32;operator=::(15,25)=#(15,24),(15,26)=&(15,24),(15,27)=*(15,24),(15,28)=&(15,29)=k(15,24),(0,6);:_ZN6dict_taSERKS_;2A.;__base_ctor::(15,30)=#(15,24),(0,6),(15,27),(15,28),(0,6);:_ZN6dict_tC2ERKS_;2A.;__comp_ctor::(15,30):_ZN6dict_tC1ERKS_;2A.;__base_ctor::(15,31)=#(15,24),(0,6),(15,27),(0,6);:_ZN6dict_tC2Ev;2A.;__comp_ctor::(15,31):_ZN6dict_tC1Ev;2A.;;",128,0,65,0
	.stabs	"dict_t:t(15,32)=(15,24)",128,0,78,0
	.stabs	"dnode_process_t:t(15,33)=(15,34)=*(15,35)=f(0,6)",128,0,80,0
	.stabs	"dict_load_t:Tt(15,36)=s28dict_dictptr:(15,37)=*(15,32),0,32;dict_nilnode:(15,13),32,192;operator=::(15,38)=#(15,36),(15,39)=&(15,36),(15,40)=*(15,36),(15,41)=&(15,42)=k(15,36),(0,6);:_ZN11dict_load_taSERKS_;2A.;__base_ctor::(15,43)=#(15,36),(0,6),(15,40),(15,41),(0,6);:_ZN11dict_load_tC2ERKS_;2A.;__comp_ctor::(15,43):_ZN11dict_load_tC1ERKS_;2A.;__base_ctor::(15,44)=#(15,36),(0,6),(15,40),(0,6);:_ZN11dict_load_tC2Ev;2A.;__comp_ctor::(15,44):_ZN11dict_load_tC1Ev;2A.;;",128,0,82,0
	.stabs	"dict_load_t:t(15,45)=(15,36)",128,0,89,0
	.stabn	162,0,0,0
	.stabn	162,0,0,0
	.stabn	162,0,0,0
	.stabs	"/Applications/MoSync/include/IX_WIDGET.h",130,0,0,0
	.stabs	"MAWidgetHandle:t(16,1)=(0,3)",128,0,9,0
	.stabs	"MAWScreenTransitionType:t(16,2)=(0,3)",128,0,11,0
	.stabs	"MAWidgetEventData:Tt(16,3)=s20eventType:(0,3),0,32;widgetHandle:(16,1),32,32;:(16,4)=u12listItemIndex:(0,3),0,32;:(16,5)=s8sectionIndex:(0,3),0,32;sectionItemIndex:(0,3),32,32;;,0,64;searchBarButton:(0,3),0,32;checked:(0,3),0,32;tabIndex:(0,3),0,32;status:(0,3),0,32;:(16,6)=s8hookType:(0,3),0,32;urlData:(2,10),32,32;;,0,64;:(16,7)=s8fromScreen:(16,1),0,32;toScreen:(16,1),32,32;;,0,64;sliderValue:(0,3),0,32;:(16,8)=s12dayOfMonth:(0,3),0,32;month:(0,3),32,32;year:(0,3),64,32;;,0,96;:(16,9)=s8hour:(0,3),0,32;minute:(0,3),32,32;;,0,64;numberPickerValue:(0,3),0,32;videoViewState:(0,3),0,32;optionDialogButtonIndex:(0,3),0,32;:(16,10)=s8value:(0,9),0,32;fromUser:(0,3),32,32;;,0,64;radioGroupItemHandle:(0,3),0,32;radioButtonState:(0,3),0,32;optionsMenuItem:(0,3),0,32;actionBarMenuItem:(0,3),0,32;mapPinIndex:(0,3),0,32;screenOrientation:(0,3),0,32;customPickerItemIndex:(0,3),0,32;;,64,96;operator=::(16,11)=#(16,3),(16,12)=&(16,3),(16,13)=*(16,3),(16,14)=&(16,15)=k(16,3),(0,6);:_ZN17MAWidgetEventDataaSERKS_;2A.;__base_ctor::(16,16)=#(16,3),(0,6),(16,13),(16,14),(0,6);:_ZN17MAWidgetEventDataC2ERKS_;2A.;__comp_ctor::(16,16):_ZN17MAWidgetEventDataC1ERKS_;2A.;__base_ctor::(16,17)=#(16,3),(0,6),(16,13),(0,6);:_ZN17MAWidgetEventDataC2Ev;2A.;__comp_ctor::(16,17):_ZN17MAWidgetEventDataC1Ev;2A.;;",128,0,5161,0
	.stabs	"MAWidgetEventData:t(16,18)=(16,3)",128,0,5357,0
	.stabn	162,0,0,0
	.stabs	"BasicString<char>:Tt(4,2)=s4sd:/1(12,1)=*(12,2)=xsStringData<char>:,0,32;__base_ctor::(12,3)=#(4,2),(0,6),(12,4)=*(4,2),(0,6);:_ZN6MAUtil11BasicStringIcEC2Ev;2A.;__comp_ctor::(12,3):_ZN6MAUtil11BasicStringIcEC1Ev;2A.;__base_ctor::(12,5)=#(4,2),(0,6),(12,4),(0,3),(0,6);:_ZN6MAUtil11BasicStringIcEC2Ei;2A.;__comp_ctor::(12,5):_ZN6MAUtil11BasicStringIcEC1Ei;2A.;__base_ctor::(12,6)=#(4,2),(0,6),(12,4),(12,7)=*(12,8)=k(0,19),(0,6);:_ZN6MAUtil11BasicStringIcEC2EPKc;2A.;__comp_ctor::(12,6):_ZN6MAUtil11BasicStringIcEC1EPKc;2A.;__base_ctor::(12,9)=#(4,2),(0,6),(12,4),(12,7),(0,3),(0,6);:_ZN6MAUtil11BasicStringIcEC2EPKci;2A.;__comp_ctor::(12,9):_ZN6MAUtil11BasicStringIcEC1EPKci;2A.;__base_ctor::(12,10)=#(4,2),(0,6),(12,4),(12,11)=&(12,12)=k(4,2),(0,6);:_ZN6MAUtil11BasicStringIcEC2ERKS1_;2A.;__comp_ctor::(12,10):_ZN6MAUtil11BasicStringIcEC1ERKS1_;2A.;c_str::(12,13)=#(4,2),(12,7),(12,14)=*(12,12),(0,6);:_ZNK6MAUtil11BasicStringIcE5c_strEv;2B.;operator=::(12,15)=#(4,2),(12,16)=&(4,2),(12,4),(12,11),(0,6);:_ZN6MAUtil11BasicStringIcEaSERKS1_;2A.;operator[]::(12,17)=#(4,2),(12,18)=&(0,19),(12,4),(0,3),(0,6);:_ZN6MAUtil11BasicStringIcEixEi;2A.(12,19)=#(4,2),(12,20)=&(12,8),(12,14),(0,3),(0,6);:_ZNK6MAUtil11BasicStringIcEixEi;2B.;operator==::(12,21)=#(4,2),(0,4),(12,14),(12,11),(0,6);:_ZNK6MAUtil11BasicStringIcEeqERKS1_;2B.;operator!=::(12,21):_ZNK6MAUtil11BasicStringIcEneERKS1_;2B.;operator<::(12,21):_ZNK6MAUtil11BasicStringIcEltERKS1_;2B.;operator>::(12,21):_ZNK6MAUtil11BasicStringIcEgtERKS1_;2B.;operator<=::(12,21):_ZNK6MAUtil11BasicStringIcEleERKS1_;2B.;operator>=::(12,21):_ZNK6MAUtil11BasicStringIcEgeERKS1_;2B.;operator+::(12,22)=#(4,2),(4,2),(12,14),(12,11),(0,6);:_ZNK6MAUtil11BasicStringIcEplERKS1_;2B.;operator+=::(12,15):_ZN6MAUtil11BasicStringIcEpLERKS1_;2A.;operator+::(12,23)=#(4,2),(4,2),(12,14),(0,19),(0,6);:_ZNK6MAUtil11BasicStringIcEplEc;2B.;operator+=::(12,24)=#(4,2),(12,16),(12,4),(0,19),(0,6);:_ZN6MAUtil11BasicStringIcEpLEc;2A.;find::(12,25)=#(4,2),(0,3),(12,14),(12,11),(0,17),(0,6);:_ZNK6MAUtil11BasicStringIcE4findERKS1_j;2B.;findLastOf::(12,26)=#(4,2),(0,3),(12,14),(0,19),(0,6);:_ZNK6MAUtil11BasicStringIcE10findLastOfEc;2B.;findFirstOf::(12,27)=#(4,2),(0,3),(12,14),(0,19),(0,3),(0,6);:_ZNK6MAUtil11BasicStringIcE11findFirstOfEci;2B.;findFirstNotOf::(12,27):_ZNK6MAUtil11BasicStringIcE14findFirstNotOfEci;2B.;insert::(12,28)=#(4,2),(0,6),(12,4),(0,3),(12,11),(0,6);:_ZN6MAUtil11BasicStringIcE6insertEiRKS1_;2A.(12,29)=#(4,2),(0,6),(12,4),(0,3),(0,19),(0,6);:_ZN6MAUtil11BasicStringIcE6insertEic;2A.;remove::(12,30)=#(4,2),(0,6),(12,4),(0,3),(0,3),(0,6);:_ZN6MAUtil11BasicStringIcE6removeEii;2A.;substr::(12,31)=#(4,2),(4,2),(12,14),(0,3),(0,3),(0,6);:_ZNK6MAUtil11BasicStringIcE6substrEii;2B.;capacity::(12,32)=#(4,2),(0,3),(12,14),(0,6);:_ZNK6MAUtil11BasicStringIcE8capacityEv;2B.;size::(12,32):_ZNK6MAUtil11BasicStringIcE4sizeEv;2B.;length::(12,32):_ZNK6MAUtil11BasicStringIcE6lengthEv;2B.;resize::(12,5):_ZN6MAUtil11BasicStringIcE6resizeEi;2A.;reserve::(12,5):_ZN6MAUtil11BasicStringIcE7reserveEi;2A.;clear::(12,3):_ZN6MAUtil11BasicStringIcE5clearEv;2A.;append::(12,9):_ZN6MAUtil11BasicStringIcE6appendEPKci;2A.;setData::(12,33)=#(4,2),(0,6),(12,4),(12,1),(0,6);:_ZN6MAUtil11BasicStringIcE7setDataEPNS_10StringDataIcEE;2A.;pointer::(12,34)=#(4,2),(2,5),(12,4),(0,6);:_ZN6MAUtil11BasicStringIcE7pointerEv;2A.(12,13):_ZNK6MAUtil11BasicStringIcE7pointerEv;2B.;__base_dtor::(12,3):_ZN6MAUtil11BasicStringIcED2Ev;2A.;__comp_dtor::(12,3):_ZN6MAUtil11BasicStringIcED1Ev;2A.;allocStringData::(12,9):_ZN6MAUtil11BasicStringIcE15allocStringDataEPKci;1A.;;",128,0,104,0
	.stabs	"LastError:Tt(12,35)=s8errorCause:(4,1),0,32;errorCode:(0,3),32,32;__base_ctor::(12,36)=#(12,35),(0,6),(12,37)=*(12,35),(12,38)=&(12,39)=k(4,1),(0,3),(0,6);:_ZN8NativeUI9LastErrorC2ERKN6MAUtil11BasicStringIcEEi;2A.;__comp_ctor::(12,36):_ZN8NativeUI9LastErrorC1ERKN6MAUtil11BasicStringIcEEi;2A.;__base_ctor::(12,40)=#(12,35),(0,6),(12,37),(0,6);:_ZN8NativeUI9LastErrorC2Ev;2A.;__comp_ctor::(12,40):_ZN8NativeUI9LastErrorC1Ev;2A.;operator=::(12,41)=#(12,35),(12,42)=&(12,35),(12,37),(12,43)=&(12,44)=k(12,35),(0,6);:_ZN8NativeUI9LastErroraSERKS0_;2A.;__base_ctor::(12,45)=#(12,35),(0,6),(12,37),(12,43),(0,6);:_ZN8NativeUI9LastErrorC2ERKS0_;2A.;__comp_ctor::(12,45):_ZN8NativeUI9LastErrorC1ERKS0_;2A.;__base_dtor::(12,40):_ZN8NativeUI9LastErrorD2Ev;2A.;__comp_dtor::(12,40):_ZN8NativeUI9LastErrorD1Ev;2A.;;",128,0,78,0
	.stabs	"Vector<NativeUI::WidgetEventListener*>:Tt(12,46)=s12mSize:/1(0,3),0,32;mCapacity:/1(0,3),32,32;mData:/1(12,47)=*(12,48)=*(12,49)=xsWidgetEventListener:,64,32;__base_ctor::(12,50)=#(12,46),(0,6),(12,51)=*(12,46),(0,3),(0,6);:_ZN6MAUtil6VectorIPN8NativeUI19WidgetEventListenerEEC2Ei;2A.;__comp_ctor::(12,50):_ZN6MAUtil6VectorIPN8NativeUI19WidgetEventListenerEEC1Ei;2A.;__base_ctor::(12,52)=#(12,46),(0,6),(12,51),(12,53)=*(12,54)=k(12,48),(0,3),(0,6);:_ZN6MAUtil6VectorIPN8NativeUI19WidgetEventListenerEEC2EPKS3_i;2A.;__comp_ctor::(12,52):_ZN6MAUtil6VectorIPN8NativeUI19WidgetEventListenerEEC1EPKS3_i;2A.;__base_ctor::(12,55)=#(12,46),(0,6),(12,51),(12,56)=&(12,57)=k(12,46),(0,6);:_ZN6MAUtil6VectorIPN8NativeUI19WidgetEventListenerEEC2ERKS4_;2A.;__comp_ctor::(12,55):_ZN6MAUtil6VectorIPN8NativeUI19WidgetEventListenerEEC1ERKS4_;2A.;__base_dtor::(12,58)=#(12,46),(0,6),(12,51),(0,6);:_ZN6MAUtil6VectorIPN8NativeUI19WidgetEventListenerEED2Ev;2A.;__comp_dtor::(12,58):_ZN6MAUtil6VectorIPN8NativeUI19WidgetEventListenerEED1Ev;2A.;operator=::(12,59)=#(12,46),(12,60)=&(12,46),(12,51),(12,56),(0,6);:_ZN6MAUtil6VectorIPN8NativeUI19WidgetEventListenerEEaSERKS4_;2A.;add::(12,61)=#(12,46),(0,6),(12,51),(12,62)=&(12,54),(0,6);:_ZN6MAUtil6VectorIPN8NativeUI19WidgetEventListenerEE3addERKS3_;2A.(12,52):_ZN6MAUtil6VectorIPN8NativeUI19WidgetEventListenerEE3addEPKS3_i;2A.;remove::(12,63)=#(12,46),(0,6),(12,51),(12,47),(0,6);:_ZN6MAUtil6VectorIPN8NativeUI19WidgetEventListenerEE6removeEPS3_;2A.(12,64)=#(12,46),(0,6),(12,51),(0,3),(0,6);:_ZN6MAUtil6VectorIPN8NativeUI19WidgetEventListenerEE6removeEi;2A.(12,65)=#(12,46),(0,6),(12,51),(0,3),(0,3),(0,6);:_ZN6MAUtil6VectorIPN8NativeUI19WidgetEventListenerEE6removeEii;2A.;insert::(12,66)=#(12,46),(0,6),(12,51),(0,3),(12,48),(0,6);:_ZN6MAUtil6VectorIPN8NativeUI19WidgetEventListenerEE6insertEiS3_;2A.;size::(12,67)=#(12,46),(0,3),(12,68)=*(12,57),(0,6);:_ZNK6MAUtil6VectorIPN8NativeUI19WidgetEventListenerEE4sizeEv;2B.;resize::(12,64):_ZN6MAUtil6VectorIPN8NativeUI19WidgetEventListenerEE6resizeEi;2A.;reserve::(12,64):_ZN6MAUtil6VectorIPN8NativeUI19WidgetEventListenerEE7reserveEi;2A.;clear::(12,58):_ZN6MAUtil6VectorIPN8NativeUI19WidgetEventListenerEE5clearEv;2A.;empty::(12,69)=#(12,46),(0,4),(12,68),(0,6);:_ZNK6MAUtil6VectorIPN8NativeUI19WidgetEventListenerEE5emptyEv;2B.;capacity::(12,67):_ZNK6MAUtil6VectorIPN8NativeUI19WidgetEventListenerEE8capacityEv;2B.;begin::(12,70)=#(12,46),(12,47),(12,51),(0,6);:_ZN6MAUtil6VectorIPN8NativeUI19WidgetEventListenerEE5beginEv;2A.;end::(12,70):_ZN6MAUtil6VectorIPN8NativeUI19WidgetEventListenerEE3endEv;2A.;begin::(12,71)=#(12,46),(12,53),(12,68),(0,6);:_ZNK6MAUtil6VectorIPN8NativeUI19WidgetEventListenerEE5beginEv;2B.;end::(12,71):_ZNK6MAUtil6VectorIPN8NativeUI19WidgetEventListenerEE3endEv;2B.;operator[]::(12,72)=#(12,46),(12,73)=&(12,48),(12,51),(0,3),(0,6);:_ZN6MAUtil6VectorIPN8NativeUI19WidgetEventListenerEEixEi;2A.(12,74)=#(12,46),(12,62),(12,68),(0,3),(0,6);:_ZNK6MAUtil6VectorIPN8NativeUI19WidgetEventListenerEEixEi;2B.;pointer::(12,71):_ZNK6MAUtil6VectorIPN8NativeUI19WidgetEventListenerEE7pointerEv;2B.(12,70):_ZN6MAUtil6VectorIPN8NativeUI19WidgetEventListenerEE7pointerEv;2A.;;",128,0,95,0
	.stabs	"Vector<NativeUI::Widget*>:Tt(12,75)=s12mSize:/1(0,3),0,32;mCapacity:/1(0,3),32,32;mData:/1(12,76)=*(12,77)=*(12,78)=xsWidget:,64,32;__base_ctor::(12,79)=#(12,75),(0,6),(12,80)=*(12,75),(0,3),(0,6);:_ZN6MAUtil6VectorIPN8NativeUI6WidgetEEC2Ei;2A.;__comp_ctor::(12,79):_ZN6MAUtil6VectorIPN8NativeUI6WidgetEEC1Ei;2A.;__base_ctor::(12,81)=#(12,75),(0,6),(12,80),(12,82)=*(12,83)=k(12,77),(0,3),(0,6);:_ZN6MAUtil6VectorIPN8NativeUI6WidgetEEC2EPKS3_i;2A.;__comp_ctor::(12,81):_ZN6MAUtil6VectorIPN8NativeUI6WidgetEEC1EPKS3_i;2A.;__base_ctor::(12,84)=#(12,75),(0,6),(12,80),(12,85)=&(12,86)=k(12,75),(0,6);:_ZN6MAUtil6VectorIPN8NativeUI6WidgetEEC2ERKS4_;2A.;__comp_ctor::(12,84):_ZN6MAUtil6VectorIPN8NativeUI6WidgetEEC1ERKS4_;2A.;__base_dtor::(12,87)=#(12,75),(0,6),(12,80),(0,6);:_ZN6MAUtil6VectorIPN8NativeUI6WidgetEED2Ev;2A.;__comp_dtor::(12,87):_ZN6MAUtil6VectorIPN8NativeUI6WidgetEED1Ev;2A.;operator=::(12,88)=#(12,75),(12,89)=&(12,75),(12,80),(12,85),(0,6);:_ZN6MAUtil6VectorIPN8NativeUI6WidgetEEaSERKS4_;2A.;add::(12,90)=#(12,75),(0,6),(12,80),(12,91)=&(12,83),(0,6);:_ZN6MAUtil6VectorIPN8NativeUI6WidgetEE3addERKS3_;2A.(12,81):_ZN6MAUtil6VectorIPN8NativeUI6WidgetEE3addEPKS3_i;2A.;remove::(12,92)=#(12,75),(0,6),(12,80),(12,76),(0,6);:_ZN6MAUtil6VectorIPN8NativeUI6WidgetEE6removeEPS3_;2A.(12,93)=#(12,75),(0,6),(12,80),(0,3),(0,6);:_ZN6MAUtil6VectorIPN8NativeUI6WidgetEE6removeEi;2A.(12,94)=#(12,75),(0,6),(12,80),(0,3),(0,3),(0,6);:_ZN6MAUtil6VectorIPN8NativeUI6WidgetEE6removeEii;2A.;insert::(12,95)=#(12,75),(0,6),(12,80),(0,3),(12,77),(0,6);:_ZN6MAUtil6VectorIPN8NativeUI6WidgetEE6insertEiS3_;2A.;size::(12,96)=#(12,75),(0,3),(12,97)=*(12,86),(0,6);:_ZNK6MAUtil6VectorIPN8NativeUI6WidgetEE4sizeEv;2B.;resize::(12,93):_ZN6MAUtil6VectorIPN8NativeUI6WidgetEE6resizeEi;2A.;reserve::(12,93):_ZN6MAUtil6VectorIPN8NativeUI6WidgetEE7reserveEi;2A.;clear::(12,87):_ZN6MAUtil6VectorIPN8NativeUI6WidgetEE5clearEv;2A.;empty::(12,98)=#(12,75),(0,4),(12,97),(0,6);:_ZNK6MAUtil6VectorIPN8NativeUI6WidgetEE5emptyEv;2B.;capacity::(12,96):_ZNK6MAUtil6VectorIPN8NativeUI6WidgetEE8capacityEv;2B.;begin::(12,99)=#(12,75),(12,76),(12,80),(0,6);:_ZN6MAUtil6VectorIPN8NativeUI6WidgetEE5beginEv;2A.;end::(12,99):_ZN6MAUtil6VectorIPN8NativeUI6WidgetEE3endEv;2A.;begin::(12,100)=#(12,75),(12,82),(12,97),(0,6);:_ZNK6MAUtil6VectorIPN8NativeUI6WidgetEE5beginEv;2B.;end::(12,100):_ZNK6MAUtil6VectorIPN8NativeUI6WidgetEE3endEv;2B.;operator[]::(12,101)=#(12,75),(12,102)=&(12,77),(12,80),(0,3),(0,6);:_ZN6MAUtil6VectorIPN8NativeUI6WidgetEEixEi;2A.(12,103)=#(12,75),(12,91),(12,97),(0,3),(0,6);:_ZNK6MAUtil6VectorIPN8NativeUI6WidgetEEixEi;2B.;pointer::(12,100):_ZNK6MAUtil6VectorIPN8NativeUI6WidgetEE7pointerEv;2B.(12,99):_ZN6MAUtil6VectorIPN8NativeUI6WidgetEE7pointerEv;2A.;;",128,0,95,0
	.stabn	162,0,0,0
	.stabn	162,0,0,0
	.stabs	"/Applications/MoSync/include/NativeUI/Button.h",130,0,0,0
	.stabs	"/Applications/MoSync/include/NativeUI/TextWidget.h",130,0,0,0
	.stabn	162,0,0,0
	.stabs	"Vector<NativeUI::ButtonListener*>:Tt(17,1)=s12mSize:/1(0,3),0,32;mCapacity:/1(0,3),32,32;mData:/1(17,2)=*(17,3)=*(17,4)=xsButtonListener:,64,32;__base_ctor::(17,5)=#(17,1),(0,6),(17,6)=*(17,1),(0,3),(0,6);:_ZN6MAUtil6VectorIPN8NativeUI14ButtonListenerEEC2Ei;2A.;__comp_ctor::(17,5):_ZN6MAUtil6VectorIPN8NativeUI14ButtonListenerEEC1Ei;2A.;__base_ctor::(17,7)=#(17,1),(0,6),(17,6),(17,8)=*(17,9)=k(17,3),(0,3),(0,6);:_ZN6MAUtil6VectorIPN8NativeUI14ButtonListenerEEC2EPKS3_i;2A.;__comp_ctor::(17,7):_ZN6MAUtil6VectorIPN8NativeUI14ButtonListenerEEC1EPKS3_i;2A.;__base_ctor::(17,10)=#(17,1),(0,6),(17,6),(17,11)=&(17,12)=k(17,1),(0,6);:_ZN6MAUtil6VectorIPN8NativeUI14ButtonListenerEEC2ERKS4_;2A.;__comp_ctor::(17,10):_ZN6MAUtil6VectorIPN8NativeUI14ButtonListenerEEC1ERKS4_;2A.;__base_dtor::(17,13)=#(17,1),(0,6),(17,6),(0,6);:_ZN6MAUtil6VectorIPN8NativeUI14ButtonListenerEED2Ev;2A.;__comp_dtor::(17,13):_ZN6MAUtil6VectorIPN8NativeUI14ButtonListenerEED1Ev;2A.;operator=::(17,14)=#(17,1),(17,15)=&(17,1),(17,6),(17,11),(0,6);:_ZN6MAUtil6VectorIPN8NativeUI14ButtonListenerEEaSERKS4_;2A.;add::(17,16)=#(17,1),(0,6),(17,6),(17,17)=&(17,9),(0,6);:_ZN6MAUtil6VectorIPN8NativeUI14ButtonListenerEE3addERKS3_;2A.(17,7):_ZN6MAUtil6VectorIPN8NativeUI14ButtonListenerEE3addEPKS3_i;2A.;remove::(17,18)=#(17,1),(0,6),(17,6),(17,2),(0,6);:_ZN6MAUtil6VectorIPN8NativeUI14ButtonListenerEE6removeEPS3_;2A.(17,19)=#(17,1),(0,6),(17,6),(0,3),(0,6);:_ZN6MAUtil6VectorIPN8NativeUI14ButtonListenerEE6removeEi;2A.(17,20)=#(17,1),(0,6),(17,6),(0,3),(0,3),(0,6);:_ZN6MAUtil6VectorIPN8NativeUI14ButtonListenerEE6removeEii;2A.;insert::(17,21)=#(17,1),(0,6),(17,6),(0,3),(17,3),(0,6);:_ZN6MAUtil6VectorIPN8NativeUI14ButtonListenerEE6insertEiS3_;2A.;size::(17,22)=#(17,1),(0,3),(17,23)=*(17,12),(0,6);:_ZNK6MAUtil6VectorIPN8NativeUI14ButtonListenerEE4sizeEv;2B.;resize::(17,19):_ZN6MAUtil6VectorIPN8NativeUI14ButtonListenerEE6resizeEi;2A.;reserve::(17,19):_ZN6MAUtil6VectorIPN8NativeUI14ButtonListenerEE7reserveEi;2A.;clear::(17,13):_ZN6MAUtil6VectorIPN8NativeUI14ButtonListenerEE5clearEv;2A.;empty::(17,24)=#(17,1),(0,4),(17,23),(0,6);:_ZNK6MAUtil6VectorIPN8NativeUI14ButtonListenerEE5emptyEv;2B.;capacity::(17,22):_ZNK6MAUtil6VectorIPN8NativeUI14ButtonListenerEE8capacityEv;2B.;begin::(17,25)=#(17,1),(17,2),(17,6),(0,6);:_ZN6MAUtil6VectorIPN8NativeUI14ButtonListenerEE5beginEv;2A.;end::(17,25):_ZN6MAUtil6VectorIPN8NativeUI14ButtonListenerEE3endEv;2A.;begin::(17,26)=#(17,1),(17,8),(17,23),(0,6);:_ZNK6MAUtil6VectorIPN8NativeUI14ButtonListenerEE5beginEv;2B.;end::(17,26):_ZNK6MAUtil6VectorIPN8NativeUI14ButtonListenerEE3endEv;2B.;operator[]::(17,27)=#(17,1),(17,28)=&(17,3),(17,6),(0,3),(0,6);:_ZN6MAUtil6VectorIPN8NativeUI14ButtonListenerEEixEi;2A.(17,29)=#(17,1),(17,17),(17,23),(0,3),(0,6);:_ZNK6MAUtil6VectorIPN8NativeUI14ButtonListenerEEixEi;2B.;pointer::(17,26):_ZNK6MAUtil6VectorIPN8NativeUI14ButtonListenerEE7pointerEv;2B.(17,25):_ZN6MAUtil6VectorIPN8NativeUI14ButtonListenerEE7pointerEv;2A.;;",128,0,95,0
	.stabn	162,0,0,0
	.stabs	"/Applications/MoSync/include/NativeUI/ButtonListener.h",130,0,0,0
	.stabn	162,0,0,0
	.stabs	"/Applications/MoSync/include/NativeUI/CameraPreview.h",130,0,0,0
	.stabn	162,0,0,0
	.stabs	"/Applications/MoSync/include/NativeUI/Camera.h",130,0,0,0
	.stabs	"CAMERA_FLASH_MODE:t(21,1)=eFLASH_AUTO:0,FLASH_ON:1,FLASH_OFF:2,FLASH_TORCH:3,FLASH_UNDEFINED:4,;",128,0,53,0
	.stabs	"CAMERA_FOCUS_MODE:t(21,2)=eFOCUS_AUTO:10,FOCUS_INFINITY:11,FOCUS_MACRO:12,FOCUS_FIXED:13,FOCUS_UNDEFINED:14,;",128,0,64,0
	.stabs	"CAMERA_SNAPSHOT_FORMAT:t(21,3)=eSNAPSHOT_RAW:100,SNAPSHOT_JPEG:101,SNAPSHOT_UNKNOWN:102,;",128,0,73,0
	.stabs	"CameraSnapshotData:Tt(21,4)=s16dataHandle:(2,10),0,32;format:(21,3),32,32;imageSize:(0,17),64,32;resultCode:(0,3),96,32;makeFromEvent::(21,5)=f(21,6)=*(21,4):_ZN8NativeUI18CameraSnapshotData13makeFromEventERK7MAEvent;2A?;operator=::(21,7)=#(21,4),(21,8)=&(21,4),(21,6),(21,9)=&(21,10)=k(21,4),(0,6);:_ZN8NativeUI18CameraSnapshotDataaSERKS0_;2A.;__base_ctor::(21,11)=#(21,4),(0,6),(21,6),(21,9),(0,6);:_ZN8NativeUI18CameraSnapshotDataC2ERKS0_;2A.;__comp_ctor::(21,11):_ZN8NativeUI18CameraSnapshotDataC1ERKS0_;2A.;__base_ctor::(21,12)=#(21,4),(0,6),(21,6),(0,6);:_ZN8NativeUI18CameraSnapshotDataC2Ev;2A.;__comp_ctor::(21,12):_ZN8NativeUI18CameraSnapshotDataC1Ev;2A.;;",128,0,78,0
	.stabs	"CameraSnapshotData:t(21,13)=(21,4)",128,0,107,0
	.stabs	"CameraPreviewData:Tt(21,14)=s28frameBuffer:(21,15)=*(0,3),0,32;type:(0,3),32,32;rect:(2,36),64,128;resultCode:(0,3),192,32;operator=::(21,16)=#(21,14),(21,17)=&(21,14),(21,18)=*(21,14),(21,19)=&(21,20)=k(21,14),(0,6);:_ZN8NativeUI17CameraPreviewDataaSERKS0_;2A.;__base_ctor::(21,21)=#(21,14),(0,6),(21,18),(21,19),(0,6);:_ZN8NativeUI17CameraPreviewDataC2ERKS0_;2A.;__comp_ctor::(21,21):_ZN8NativeUI17CameraPreviewDataC1ERKS0_;2A.;__base_ctor::(21,22)=#(21,14),(0,6),(21,18),(0,6);:_ZN8NativeUI17CameraPreviewDataC2Ev;2A.;__comp_ctor::(21,22):_ZN8NativeUI17CameraPreviewDataC1Ev;2A.;;",128,0,112,0
	.stabs	"CameraPreviewData:t(21,23)=(21,14)",128,0,140,0
	.stabs	"Vector<NativeUI::CameraSnapshotListener*>:Tt(21,24)=s12mSize:/1(0,3),0,32;mCapacity:/1(0,3),32,32;mData:/1(21,25)=*(21,26)=*(21,27)=xsCameraSnapshotListener:,64,32;__base_ctor::(21,28)=#(21,24),(0,6),(21,29)=*(21,24),(0,3),(0,6);:_ZN6MAUtil6VectorIPN8NativeUI22CameraSnapshotListenerEEC2Ei;2A.;__comp_ctor::(21,28):_ZN6MAUtil6VectorIPN8NativeUI22CameraSnapshotListenerEEC1Ei;2A.;__base_ctor::(21,30)=#(21,24),(0,6),(21,29),(21,31)=*(21,32)=k(21,26),(0,3),(0,6);:_ZN6MAUtil6VectorIPN8NativeUI22CameraSnapshotListenerEEC2EPKS3_i;2A.;__comp_ctor::(21,30):_ZN6MAUtil6VectorIPN8NativeUI22CameraSnapshotListenerEEC1EPKS3_i;2A.;__base_ctor::(21,33)=#(21,24),(0,6),(21,29),(21,34)=&(21,35)=k(21,24),(0,6);:_ZN6MAUtil6VectorIPN8NativeUI22CameraSnapshotListenerEEC2ERKS4_;2A.;__comp_ctor::(21,33):_ZN6MAUtil6VectorIPN8NativeUI22CameraSnapshotListenerEEC1ERKS4_;2A.;__base_dtor::(21,36)=#(21,24),(0,6),(21,29),(0,6);:_ZN6MAUtil6VectorIPN8NativeUI22CameraSnapshotListenerEED2Ev;2A.;__comp_dtor::(21,36):_ZN6MAUtil6VectorIPN8NativeUI22CameraSnapshotListenerEED1Ev;2A.;operator=::(21,37)=#(21,24),(21,38)=&(21,24),(21,29),(21,34),(0,6);:_ZN6MAUtil6VectorIPN8NativeUI22CameraSnapshotListenerEEaSERKS4_;2A.;add::(21,39)=#(21,24),(0,6),(21,29),(21,40)=&(21,32),(0,6);:_ZN6MAUtil6VectorIPN8NativeUI22CameraSnapshotListenerEE3addERKS3_;2A.(21,30):_ZN6MAUtil6VectorIPN8NativeUI22CameraSnapshotListenerEE3addEPKS3_i;2A.;remove::(21,41)=#(21,24),(0,6),(21,29),(21,25),(0,6);:_ZN6MAUtil6VectorIPN8NativeUI22CameraSnapshotListenerEE6removeEPS3_;2A.(21,42)=#(21,24),(0,6),(21,29),(0,3),(0,6);:_ZN6MAUtil6VectorIPN8NativeUI22CameraSnapshotListenerEE6removeEi;2A.(21,43)=#(21,24),(0,6),(21,29),(0,3),(0,3),(0,6);:_ZN6MAUtil6VectorIPN8NativeUI22CameraSnapshotListenerEE6removeEii;2A.;insert::(21,44)=#(21,24),(0,6),(21,29),(0,3),(21,26),(0,6);:_ZN6MAUtil6VectorIPN8NativeUI22CameraSnapshotListenerEE6insertEiS3_;2A.;size::(21,45)=#(21,24),(0,3),(21,46)=*(21,35),(0,6);:_ZNK6MAUtil6VectorIPN8NativeUI22CameraSnapshotListenerEE4sizeEv;2B.;resize::(21,42):_ZN6MAUtil6VectorIPN8NativeUI22CameraSnapshotListenerEE6resizeEi;2A.;reserve::(21,42):_ZN6MAUtil6VectorIPN8NativeUI22CameraSnapshotListenerEE7reserveEi;2A.;clear::(21,36):_ZN6MAUtil6VectorIPN8NativeUI22CameraSnapshotListenerEE5clearEv;2A.;empty::(21,47)=#(21,24),(0,4),(21,46),(0,6);:_ZNK6MAUtil6VectorIPN8NativeUI22CameraSnapshotListenerEE5emptyEv;2B.;capacity::(21,45):_ZNK6MAUtil6VectorIPN8NativeUI22CameraSnapshotListenerEE8capacityEv;2B.;begin::(21,48)=#(21,24),(21,25),(21,29),(0,6);:_ZN6MAUtil6VectorIPN8NativeUI22CameraSnapshotListenerEE5beginEv;2A.;end::(21,48):_ZN6MAUtil6VectorIPN8NativeUI22CameraSnapshotListenerEE3endEv;2A.;begin::(21,49)=#(21,24),(21,31),(21,46),(0,6);:_ZNK6MAUtil6VectorIPN8NativeUI22CameraSnapshotListenerEE5beginEv;2B.;end::(21,49):_ZNK6MAUtil6VectorIPN8NativeUI22CameraSnapshotListenerEE3endEv;2B.;operator[]::(21,50)=#(21,24),(21,51)=&(21,26),(21,29),(0,3),(0,6);:_ZN6MAUtil6VectorIPN8NativeUI22CameraSnapshotListenerEEixEi;2A.(21,52)=#(21,24),(21,40),(21,46),(0,3),(0,6);:_ZNK6MAUtil6VectorIPN8NativeUI22CameraSnapshotListenerEEixEi;2B.;pointer::(21,49):_ZNK6MAUtil6VectorIPN8NativeUI22CameraSnapshotListenerEE7pointerEv;2B.(21,48):_ZN6MAUtil6VectorIPN8NativeUI22CameraSnapshotListenerEE7pointerEv;2A.;;",128,0,95,0
	.stabs	"Vector<MAExtent>:Tt(21,53)=s12mSize:/1(0,3),0,32;mCapacity:/1(0,3),32,32;mData:/1(21,54)=*(2,11),64,32;__base_ctor::(21,55)=#(21,53),(0,6),(21,56)=*(21,53),(0,3),(0,6);:_ZN6MAUtil6VectorIiEC2Ei;2A.;__comp_ctor::(21,55):_ZN6MAUtil6VectorIiEC1Ei;2A.;__base_ctor::(21,57)=#(21,53),(0,6),(21,56),(21,58)=*(21,59)=k(2,11),(0,3),(0,6);:_ZN6MAUtil6VectorIiEC2EPKii;2A.;__comp_ctor::(21,57):_ZN6MAUtil6VectorIiEC1EPKii;2A.;__base_ctor::(21,60)=#(21,53),(0,6),(21,56),(21,61)=&(21,62)=k(21,53),(0,6);:_ZN6MAUtil6VectorIiEC2ERKS1_;2A.;__comp_ctor::(21,60):_ZN6MAUtil6VectorIiEC1ERKS1_;2A.;__base_dtor::(21,63)=#(21,53),(0,6),(21,56),(0,6);:_ZN6MAUtil6VectorIiED2Ev;2A.;__comp_dtor::(21,63):_ZN6MAUtil6VectorIiED1Ev;2A.;operator=::(21,64)=#(21,53),(21,65)=&(21,53),(21,56),(21,61),(0,6);:_ZN6MAUtil6VectorIiEaSERKS1_;2A.;add::(21,66)=#(21,53),(0,6),(21,56),(21,67)=&(21,59),(0,6);:_ZN6MAUtil6VectorIiE3addERKi;2A.(21,57):_ZN6MAUtil6VectorIiE3addEPKii;2A.;remove::(21,68)=#(21,53),(0,6),(21,56),(21,54),(0,6);:_ZN6MAUtil6VectorIiE6removeEPi;2A.(21,69)=#(21,53),(0,6),(21,56),(0,3),(0,6);:_ZN6MAUtil6VectorIiE6removeEi;2A.(21,70)=#(21,53),(0,6),(21,56),(0,3),(0,3),(0,6);:_ZN6MAUtil6VectorIiE6removeEii;2A.;insert::(21,70):_ZN6MAUtil6VectorIiE6insertEii;2A.;size::(21,71)=#(21,53),(0,3),(21,72)=*(21,62),(0,6);:_ZNK6MAUtil6VectorIiE4sizeEv;2B.;resize::(21,69):_ZN6MAUtil6VectorIiE6resizeEi;2A.;reserve::(21,69):_ZN6MAUtil6VectorIiE7reserveEi;2A.;clear::(21,63):_ZN6MAUtil6VectorIiE5clearEv;2A.;empty::(21,73)=#(21,53),(0,4),(21,72),(0,6);:_ZNK6MAUtil6VectorIiE5emptyEv;2B.;capacity::(21,71):_ZNK6MAUtil6VectorIiE8capacityEv;2B.;begin::(21,74)=#(21,53),(21,54),(21,56),(0,6);:_ZN6MAUtil6VectorIiE5beginEv;2A.;end::(21,74):_ZN6MAUtil6VectorIiE3endEv;2A.;begin::(21,75)=#(21,53),(21,58),(21,72),(0,6);:_ZNK6MAUtil6VectorIiE5beginEv;2B.;end::(21,75):_ZNK6MAUtil6VectorIiE3endEv;2B.;operator[]::(21,76)=#(21,53),(21,77)=&(2,11),(21,56),(0,3),(0,6);:_ZN6MAUtil6VectorIiEixEi;2A.(21,78)=#(21,53),(21,67),(21,72),(0,3),(0,6);:_ZNK6MAUtil6VectorIiEixEi;2B.;pointer::(21,75):_ZNK6MAUtil6VectorIiE7pointerEv;2B.(21,74):_ZN6MAUtil6VectorIiE7pointerEv;2A.;;",128,0,95,0
	.stabn	162,0,0,0
	.stabs	"/Applications/MoSync/include/NativeUI/CheckBox.h",130,0,0,0
	.stabs	"Vector<NativeUI::CheckBoxListener*>:Tt(22,1)=s12mSize:/1(0,3),0,32;mCapacity:/1(0,3),32,32;mData:/1(22,2)=*(22,3)=*(22,4)=xsCheckBoxListener:,64,32;__base_ctor::(22,5)=#(22,1),(0,6),(22,6)=*(22,1),(0,3),(0,6);:_ZN6MAUtil6VectorIPN8NativeUI16CheckBoxListenerEEC2Ei;2A.;__comp_ctor::(22,5):_ZN6MAUtil6VectorIPN8NativeUI16CheckBoxListenerEEC1Ei;2A.;__base_ctor::(22,7)=#(22,1),(0,6),(22,6),(22,8)=*(22,9)=k(22,3),(0,3),(0,6);:_ZN6MAUtil6VectorIPN8NativeUI16CheckBoxListenerEEC2EPKS3_i;2A.;__comp_ctor::(22,7):_ZN6MAUtil6VectorIPN8NativeUI16CheckBoxListenerEEC1EPKS3_i;2A.;__base_ctor::(22,10)=#(22,1),(0,6),(22,6),(22,11)=&(22,12)=k(22,1),(0,6);:_ZN6MAUtil6VectorIPN8NativeUI16CheckBoxListenerEEC2ERKS4_;2A.;__comp_ctor::(22,10):_ZN6MAUtil6VectorIPN8NativeUI16CheckBoxListenerEEC1ERKS4_;2A.;__base_dtor::(22,13)=#(22,1),(0,6),(22,6),(0,6);:_ZN6MAUtil6VectorIPN8NativeUI16CheckBoxListenerEED2Ev;2A.;__comp_dtor::(22,13):_ZN6MAUtil6VectorIPN8NativeUI16CheckBoxListenerEED1Ev;2A.;operator=::(22,14)=#(22,1),(22,15)=&(22,1),(22,6),(22,11),(0,6);:_ZN6MAUtil6VectorIPN8NativeUI16CheckBoxListenerEEaSERKS4_;2A.;add::(22,16)=#(22,1),(0,6),(22,6),(22,17)=&(22,9),(0,6);:_ZN6MAUtil6VectorIPN8NativeUI16CheckBoxListenerEE3addERKS3_;2A.(22,7):_ZN6MAUtil6VectorIPN8NativeUI16CheckBoxListenerEE3addEPKS3_i;2A.;remove::(22,18)=#(22,1),(0,6),(22,6),(22,2),(0,6);:_ZN6MAUtil6VectorIPN8NativeUI16CheckBoxListenerEE6removeEPS3_;2A.(22,19)=#(22,1),(0,6),(22,6),(0,3),(0,6);:_ZN6MAUtil6VectorIPN8NativeUI16CheckBoxListenerEE6removeEi;2A.(22,20)=#(22,1),(0,6),(22,6),(0,3),(0,3),(0,6);:_ZN6MAUtil6VectorIPN8NativeUI16CheckBoxListenerEE6removeEii;2A.;insert::(22,21)=#(22,1),(0,6),(22,6),(0,3),(22,3),(0,6);:_ZN6MAUtil6VectorIPN8NativeUI16CheckBoxListenerEE6insertEiS3_;2A.;size::(22,22)=#(22,1),(0,3),(22,23)=*(22,12),(0,6);:_ZNK6MAUtil6VectorIPN8NativeUI16CheckBoxListenerEE4sizeEv;2B.;resize::(22,19):_ZN6MAUtil6VectorIPN8NativeUI16CheckBoxListenerEE6resizeEi;2A.;reserve::(22,19):_ZN6MAUtil6VectorIPN8NativeUI16CheckBoxListenerEE7reserveEi;2A.;clear::(22,13):_ZN6MAUtil6VectorIPN8NativeUI16CheckBoxListenerEE5clearEv;2A.;empty::(22,24)=#(22,1),(0,4),(22,23),(0,6);:_ZNK6MAUtil6VectorIPN8NativeUI16CheckBoxListenerEE5emptyEv;2B.;capacity::(22,22):_ZNK6MAUtil6VectorIPN8NativeUI16CheckBoxListenerEE8capacityEv;2B.;begin::(22,25)=#(22,1),(22,2),(22,6),(0,6);:_ZN6MAUtil6VectorIPN8NativeUI16CheckBoxListenerEE5beginEv;2A.;end::(22,25):_ZN6MAUtil6VectorIPN8NativeUI16CheckBoxListenerEE3endEv;2A.;begin::(22,26)=#(22,1),(22,8),(22,23),(0,6);:_ZNK6MAUtil6VectorIPN8NativeUI16CheckBoxListenerEE5beginEv;2B.;end::(22,26):_ZNK6MAUtil6VectorIPN8NativeUI16CheckBoxListenerEE3endEv;2B.;operator[]::(22,27)=#(22,1),(22,28)=&(22,3),(22,6),(0,3),(0,6);:_ZN6MAUtil6VectorIPN8NativeUI16CheckBoxListenerEEixEi;2A.(22,29)=#(22,1),(22,17),(22,23),(0,3),(0,6);:_ZNK6MAUtil6VectorIPN8NativeUI16CheckBoxListenerEEixEi;2B.;pointer::(22,26):_ZNK6MAUtil6VectorIPN8NativeUI16CheckBoxListenerEE7pointerEv;2B.(22,25):_ZN6MAUtil6VectorIPN8NativeUI16CheckBoxListenerEE7pointerEv;2A.;;",128,0,95,0
	.stabn	162,0,0,0
	.stabs	"/Applications/MoSync/include/NativeUI/CheckBoxListener.h",130,0,0,0
	.stabn	162,0,0,0
	.stabs	"/Applications/MoSync/include/NativeUI/CustomPicker.h",130,0,0,0
	.stabs	"Vector<NativeUI::CustomPickerListener*>:Tt(24,1)=s12mSize:/1(0,3),0,32;mCapacity:/1(0,3),32,32;mData:/1(24,2)=*(24,3)=*(24,4)=xsCustomPickerListener:,64,32;__base_ctor::(24,5)=#(24,1),(0,6),(24,6)=*(24,1),(0,3),(0,6);:_ZN6MAUtil6VectorIPN8NativeUI20CustomPickerListenerEEC2Ei;2A.;__comp_ctor::(24,5):_ZN6MAUtil6VectorIPN8NativeUI20CustomPickerListenerEEC1Ei;2A.;__base_ctor::(24,7)=#(24,1),(0,6),(24,6),(24,8)=*(24,9)=k(24,3),(0,3),(0,6);:_ZN6MAUtil6VectorIPN8NativeUI20CustomPickerListenerEEC2EPKS3_i;2A.;__comp_ctor::(24,7):_ZN6MAUtil6VectorIPN8NativeUI20CustomPickerListenerEEC1EPKS3_i;2A.;__base_ctor::(24,10)=#(24,1),(0,6),(24,6),(24,11)=&(24,12)=k(24,1),(0,6);:_ZN6MAUtil6VectorIPN8NativeUI20CustomPickerListenerEEC2ERKS4_;2A.;__comp_ctor::(24,10):_ZN6MAUtil6VectorIPN8NativeUI20CustomPickerListenerEEC1ERKS4_;2A.;__base_dtor::(24,13)=#(24,1),(0,6),(24,6),(0,6);:_ZN6MAUtil6VectorIPN8NativeUI20CustomPickerListenerEED2Ev;2A.;__comp_dtor::(24,13):_ZN6MAUtil6VectorIPN8NativeUI20CustomPickerListenerEED1Ev;2A.;operator=::(24,14)=#(24,1),(24,15)=&(24,1),(24,6),(24,11),(0,6);:_ZN6MAUtil6VectorIPN8NativeUI20CustomPickerListenerEEaSERKS4_;2A.;add::(24,16)=#(24,1),(0,6),(24,6),(24,17)=&(24,9),(0,6);:_ZN6MAUtil6VectorIPN8NativeUI20CustomPickerListenerEE3addERKS3_;2A.(24,7):_ZN6MAUtil6VectorIPN8NativeUI20CustomPickerListenerEE3addEPKS3_i;2A.;remove::(24,18)=#(24,1),(0,6),(24,6),(24,2),(0,6);:_ZN6MAUtil6VectorIPN8NativeUI20CustomPickerListenerEE6removeEPS3_;2A.(24,19)=#(24,1),(0,6),(24,6),(0,3),(0,6);:_ZN6MAUtil6VectorIPN8NativeUI20CustomPickerListenerEE6removeEi;2A.(24,20)=#(24,1),(0,6),(24,6),(0,3),(0,3),(0,6);:_ZN6MAUtil6VectorIPN8NativeUI20CustomPickerListenerEE6removeEii;2A.;insert::(24,21)=#(24,1),(0,6),(24,6),(0,3),(24,3),(0,6);:_ZN6MAUtil6VectorIPN8NativeUI20CustomPickerListenerEE6insertEiS3_;2A.;size::(24,22)=#(24,1),(0,3),(24,23)=*(24,12),(0,6);:_ZNK6MAUtil6VectorIPN8NativeUI20CustomPickerListenerEE4sizeEv;2B.;resize::(24,19):_ZN6MAUtil6VectorIPN8NativeUI20CustomPickerListenerEE6resizeEi;2A.;reserve::(24,19):_ZN6MAUtil6VectorIPN8NativeUI20CustomPickerListenerEE7reserveEi;2A.;clear::(24,13):_ZN6MAUtil6VectorIPN8NativeUI20CustomPickerListenerEE5clearEv;2A.;empty::(24,24)=#(24,1),(0,4),(24,23),(0,6);:_ZNK6MAUtil6VectorIPN8NativeUI20CustomPickerListenerEE5emptyEv;2B.;capacity::(24,22):_ZNK6MAUtil6VectorIPN8NativeUI20CustomPickerListenerEE8capacityEv;2B.;begin::(24,25)=#(24,1),(24,2),(24,6),(0,6);:_ZN6MAUtil6VectorIPN8NativeUI20CustomPickerListenerEE5beginEv;2A.;end::(24,25):_ZN6MAUtil6VectorIPN8NativeUI20CustomPickerListenerEE3endEv;2A.;begin::(24,26)=#(24,1),(24,8),(24,23),(0,6);:_ZNK6MAUtil6VectorIPN8NativeUI20CustomPickerListenerEE5beginEv;2B.;end::(24,26):_ZNK6MAUtil6VectorIPN8NativeUI20CustomPickerListenerEE3endEv;2B.;operator[]::(24,27)=#(24,1),(24,28)=&(24,3),(24,6),(0,3),(0,6);:_ZN6MAUtil6VectorIPN8NativeUI20CustomPickerListenerEEixEi;2A.(24,29)=#(24,1),(24,17),(24,23),(0,3),(0,6);:_ZNK6MAUtil6VectorIPN8NativeUI20CustomPickerListenerEEixEi;2B.;pointer::(24,26):_ZNK6MAUtil6VectorIPN8NativeUI20CustomPickerListenerEE7pointerEv;2B.(24,25):_ZN6MAUtil6VectorIPN8NativeUI20CustomPickerListenerEE7pointerEv;2A.;;",128,0,95,0
	.stabn	162,0,0,0
	.stabs	"/Applications/MoSync/include/NativeUI/DatePicker.h",130,0,0,0
	.stabs	"Date:Tt(25,1)=s12day:(0,3),0,32;month:(0,3),32,32;year:(0,3),64,32;__base_ctor::(25,2)=#(25,1),(0,6),(25,3)=*(25,1),(0,3),(0,3),(0,3),(0,6);:_ZN8NativeUI4DateC2Eiii;2A.;__comp_ctor::(25,2):_ZN8NativeUI4DateC1Eiii;2A.;__base_ctor::(25,4)=#(25,1),(0,6),(25,3),(0,6);:_ZN8NativeUI4DateC2Ev;2A.;__comp_ctor::(25,4):_ZN8NativeUI4DateC1Ev;2A.;operator=::(25,5)=#(25,1),(25,6)=&(25,1),(25,3),(25,7)=&(25,8)=k(25,1),(0,6);:_ZN8NativeUI4DateaSERKS0_;2A.;__base_ctor::(25,9)=#(25,1),(0,6),(25,3),(25,7),(0,6);:_ZN8NativeUI4DateC2ERKS0_;2A.;__comp_ctor::(25,9):_ZN8NativeUI4DateC1ERKS0_;2A.;;",128,0,52,0
	.stabs	"Vector<NativeUI::DatePickerListener*>:Tt(25,10)=s12mSize:/1(0,3),0,32;mCapacity:/1(0,3),32,32;mData:/1(25,11)=*(25,12)=*(25,13)=xsDatePickerListener:,64,32;__base_ctor::(25,14)=#(25,10),(0,6),(25,15)=*(25,10),(0,3),(0,6);:_ZN6MAUtil6VectorIPN8NativeUI18DatePickerListenerEEC2Ei;2A.;__comp_ctor::(25,14):_ZN6MAUtil6VectorIPN8NativeUI18DatePickerListenerEEC1Ei;2A.;__base_ctor::(25,16)=#(25,10),(0,6),(25,15),(25,17)=*(25,18)=k(25,12),(0,3),(0,6);:_ZN6MAUtil6VectorIPN8NativeUI18DatePickerListenerEEC2EPKS3_i;2A.;__comp_ctor::(25,16):_ZN6MAUtil6VectorIPN8NativeUI18DatePickerListenerEEC1EPKS3_i;2A.;__base_ctor::(25,19)=#(25,10),(0,6),(25,15),(25,20)=&(25,21)=k(25,10),(0,6);:_ZN6MAUtil6VectorIPN8NativeUI18DatePickerListenerEEC2ERKS4_;2A.;__comp_ctor::(25,19):_ZN6MAUtil6VectorIPN8NativeUI18DatePickerListenerEEC1ERKS4_;2A.;__base_dtor::(25,22)=#(25,10),(0,6),(25,15),(0,6);:_ZN6MAUtil6VectorIPN8NativeUI18DatePickerListenerEED2Ev;2A.;__comp_dtor::(25,22):_ZN6MAUtil6VectorIPN8NativeUI18DatePickerListenerEED1Ev;2A.;operator=::(25,23)=#(25,10),(25,24)=&(25,10),(25,15),(25,20),(0,6);:_ZN6MAUtil6VectorIPN8NativeUI18DatePickerListenerEEaSERKS4_;2A.;add::(25,25)=#(25,10),(0,6),(25,15),(25,26)=&(25,18),(0,6);:_ZN6MAUtil6VectorIPN8NativeUI18DatePickerListenerEE3addERKS3_;2A.(25,16):_ZN6MAUtil6VectorIPN8NativeUI18DatePickerListenerEE3addEPKS3_i;2A.;remove::(25,27)=#(25,10),(0,6),(25,15),(25,11),(0,6);:_ZN6MAUtil6VectorIPN8NativeUI18DatePickerListenerEE6removeEPS3_;2A.(25,28)=#(25,10),(0,6),(25,15),(0,3),(0,6);:_ZN6MAUtil6VectorIPN8NativeUI18DatePickerListenerEE6removeEi;2A.(25,29)=#(25,10),(0,6),(25,15),(0,3),(0,3),(0,6);:_ZN6MAUtil6VectorIPN8NativeUI18DatePickerListenerEE6removeEii;2A.;insert::(25,30)=#(25,10),(0,6),(25,15),(0,3),(25,12),(0,6);:_ZN6MAUtil6VectorIPN8NativeUI18DatePickerListenerEE6insertEiS3_;2A.;size::(25,31)=#(25,10),(0,3),(25,32)=*(25,21),(0,6);:_ZNK6MAUtil6VectorIPN8NativeUI18DatePickerListenerEE4sizeEv;2B.;resize::(25,28):_ZN6MAUtil6VectorIPN8NativeUI18DatePickerListenerEE6resizeEi;2A.;reserve::(25,28):_ZN6MAUtil6VectorIPN8NativeUI18DatePickerListenerEE7reserveEi;2A.;clear::(25,22):_ZN6MAUtil6VectorIPN8NativeUI18DatePickerListenerEE5clearEv;2A.;empty::(25,33)=#(25,10),(0,4),(25,32),(0,6);:_ZNK6MAUtil6VectorIPN8NativeUI18DatePickerListenerEE5emptyEv;2B.;capacity::(25,31):_ZNK6MAUtil6VectorIPN8NativeUI18DatePickerListenerEE8capacityEv;2B.;begin::(25,34)=#(25,10),(25,11),(25,15),(0,6);:_ZN6MAUtil6VectorIPN8NativeUI18DatePickerListenerEE5beginEv;2A.;end::(25,34):_ZN6MAUtil6VectorIPN8NativeUI18DatePickerListenerEE3endEv;2A.;begin::(25,35)=#(25,10),(25,17),(25,32),(0,6);:_ZNK6MAUtil6VectorIPN8NativeUI18DatePickerListenerEE5beginEv;2B.;end::(25,35):_ZNK6MAUtil6VectorIPN8NativeUI18DatePickerListenerEE3endEv;2B.;operator[]::(25,36)=#(25,10),(25,37)=&(25,12),(25,15),(0,3),(0,6);:_ZN6MAUtil6VectorIPN8NativeUI18DatePickerListenerEEixEi;2A.(25,38)=#(25,10),(25,26),(25,32),(0,3),(0,6);:_ZNK6MAUtil6VectorIPN8NativeUI18DatePickerListenerEEixEi;2B.;pointer::(25,35):_ZNK6MAUtil6VectorIPN8NativeUI18DatePickerListenerEE7pointerEv;2B.(25,34):_ZN6MAUtil6VectorIPN8NativeUI18DatePickerListenerEE7pointerEv;2A.;;",128,0,95,0
	.stabn	162,0,0,0
	.stabs	"/Applications/MoSync/include/NativeUI/DatePickerListener.h",130,0,0,0
	.stabn	162,0,0,0
	.stabs	"/Applications/MoSync/include/NativeUI/Dialog.h",130,0,0,0
	.stabs	"Vector<NativeUI::DialogListener*>:Tt(27,1)=s12mSize:/1(0,3),0,32;mCapacity:/1(0,3),32,32;mData:/1(27,2)=*(27,3)=*(27,4)=xsDialogListener:,64,32;__base_ctor::(27,5)=#(27,1),(0,6),(27,6)=*(27,1),(0,3),(0,6);:_ZN6MAUtil6VectorIPN8NativeUI14DialogListenerEEC2Ei;2A.;__comp_ctor::(27,5):_ZN6MAUtil6VectorIPN8NativeUI14DialogListenerEEC1Ei;2A.;__base_ctor::(27,7)=#(27,1),(0,6),(27,6),(27,8)=*(27,9)=k(27,3),(0,3),(0,6);:_ZN6MAUtil6VectorIPN8NativeUI14DialogListenerEEC2EPKS3_i;2A.;__comp_ctor::(27,7):_ZN6MAUtil6VectorIPN8NativeUI14DialogListenerEEC1EPKS3_i;2A.;__base_ctor::(27,10)=#(27,1),(0,6),(27,6),(27,11)=&(27,12)=k(27,1),(0,6);:_ZN6MAUtil6VectorIPN8NativeUI14DialogListenerEEC2ERKS4_;2A.;__comp_ctor::(27,10):_ZN6MAUtil6VectorIPN8NativeUI14DialogListenerEEC1ERKS4_;2A.;__base_dtor::(27,13)=#(27,1),(0,6),(27,6),(0,6);:_ZN6MAUtil6VectorIPN8NativeUI14DialogListenerEED2Ev;2A.;__comp_dtor::(27,13):_ZN6MAUtil6VectorIPN8NativeUI14DialogListenerEED1Ev;2A.;operator=::(27,14)=#(27,1),(27,15)=&(27,1),(27,6),(27,11),(0,6);:_ZN6MAUtil6VectorIPN8NativeUI14DialogListenerEEaSERKS4_;2A.;add::(27,16)=#(27,1),(0,6),(27,6),(27,17)=&(27,9),(0,6);:_ZN6MAUtil6VectorIPN8NativeUI14DialogListenerEE3addERKS3_;2A.(27,7):_ZN6MAUtil6VectorIPN8NativeUI14DialogListenerEE3addEPKS3_i;2A.;remove::(27,18)=#(27,1),(0,6),(27,6),(27,2),(0,6);:_ZN6MAUtil6VectorIPN8NativeUI14DialogListenerEE6removeEPS3_;2A.(27,19)=#(27,1),(0,6),(27,6),(0,3),(0,6);:_ZN6MAUtil6VectorIPN8NativeUI14DialogListenerEE6removeEi;2A.(27,20)=#(27,1),(0,6),(27,6),(0,3),(0,3),(0,6);:_ZN6MAUtil6VectorIPN8NativeUI14DialogListenerEE6removeEii;2A.;insert::(27,21)=#(27,1),(0,6),(27,6),(0,3),(27,3),(0,6);:_ZN6MAUtil6VectorIPN8NativeUI14DialogListenerEE6insertEiS3_;2A.;size::(27,22)=#(27,1),(0,3),(27,23)=*(27,12),(0,6);:_ZNK6MAUtil6VectorIPN8NativeUI14DialogListenerEE4sizeEv;2B.;resize::(27,19):_ZN6MAUtil6VectorIPN8NativeUI14DialogListenerEE6resizeEi;2A.;reserve::(27,19):_ZN6MAUtil6VectorIPN8NativeUI14DialogListenerEE7reserveEi;2A.;clear::(27,13):_ZN6MAUtil6VectorIPN8NativeUI14DialogListenerEE5clearEv;2A.;empty::(27,24)=#(27,1),(0,4),(27,23),(0,6);:_ZNK6MAUtil6VectorIPN8NativeUI14DialogListenerEE5emptyEv;2B.;capacity::(27,22):_ZNK6MAUtil6VectorIPN8NativeUI14DialogListenerEE8capacityEv;2B.;begin::(27,25)=#(27,1),(27,2),(27,6),(0,6);:_ZN6MAUtil6VectorIPN8NativeUI14DialogListenerEE5beginEv;2A.;end::(27,25):_ZN6MAUtil6VectorIPN8NativeUI14DialogListenerEE3endEv;2A.;begin::(27,26)=#(27,1),(27,8),(27,23),(0,6);:_ZNK6MAUtil6VectorIPN8NativeUI14DialogListenerEE5beginEv;2B.;end::(27,26):_ZNK6MAUtil6VectorIPN8NativeUI14DialogListenerEE3endEv;2B.;operator[]::(27,27)=#(27,1),(27,28)=&(27,3),(27,6),(0,3),(0,6);:_ZN6MAUtil6VectorIPN8NativeUI14DialogListenerEEixEi;2A.(27,29)=#(27,1),(27,17),(27,23),(0,3),(0,6);:_ZNK6MAUtil6VectorIPN8NativeUI14DialogListenerEEixEi;2B.;pointer::(27,26):_ZNK6MAUtil6VectorIPN8NativeUI14DialogListenerEE7pointerEv;2B.(27,25):_ZN6MAUtil6VectorIPN8NativeUI14DialogListenerEE7pointerEv;2A.;;",128,0,95,0
	.stabn	162,0,0,0
	.stabs	"/Applications/MoSync/include/NativeUI/DialogListener.h",130,0,0,0
	.stabn	162,0,0,0
	.stabs	"/Applications/MoSync/include/NativeUI/EditBox.h",130,0,0,0
	.stabs	"EditBoxMode:t(29,1)=eEDIT_BOX_MODE_TEXT:0,EDIT_BOX_MODE_PASSWORD:1,;",128,0,53,0
	.stabs	"EditBoxInputMode:t(29,2)=eEDIT_BOX_INPUT_MODE_ANY:0,EDIT_BOX_INPUT_MODE_EMAILADDR:1,EDIT_BOX_INPUT_MODE_NUMERIC:2,EDIT_BOX_INPUT_MODE_PHONENUMBER:3,EDIT_BOX_INPUT_MODE_URL:4,EDIT_BOX_INPUT_MODE_DECIMAL:5,EDIT_BOX_INPUT_MODE_SINGLE_LINE:6,;",128,0,63,0
	.stabs	"EditBoxInputFlag:t(29,3)=eEDIT_BOX_INPUT_FLAG_PASSWORD:0,EDIT_BOX_INPUT_FLAG_SENSITIVE:1,EDIT_BOX_INPUT_FLAG_INITIAL_CAPS_WORD:2,EDIT_BOX_INPUT_FLAG_INITIAL_CAPS_SENTENCE:3,EDIT_BOX_INPUT_GLAG_INITIAL_CAPS_ALL_CHARACTERS:4,;",128,0,99,0
	.stabs	"EditBoxAutocorrectionType:t(29,4)=eEDIT_BOX_AUTOCORRECTION_TYPE_DEFAULT:0,EDIT_BOX_AUTOCORRECTION_TYPE_ENABLE:1,EDIT_BOX_AUTOCORRECTION_TYPE_DISABLE:2,;",128,0,133,0
	.stabs	"EditBoxCategory:t(29,5)=eEDIT_BOX_SINGLE_LINE:0,EDIT_BOX_MULTI_LINE:1,;",128,0,157,0
	.stabs	"Vector<NativeUI::EditBoxListener*>:Tt(29,6)=s12mSize:/1(0,3),0,32;mCapacity:/1(0,3),32,32;mData:/1(29,7)=*(29,8)=*(29,9)=xsEditBoxListener:,64,32;__base_ctor::(29,10)=#(29,6),(0,6),(29,11)=*(29,6),(0,3),(0,6);:_ZN6MAUtil6VectorIPN8NativeUI15EditBoxListenerEEC2Ei;2A.;__comp_ctor::(29,10):_ZN6MAUtil6VectorIPN8NativeUI15EditBoxListenerEEC1Ei;2A.;__base_ctor::(29,12)=#(29,6),(0,6),(29,11),(29,13)=*(29,14)=k(29,8),(0,3),(0,6);:_ZN6MAUtil6VectorIPN8NativeUI15EditBoxListenerEEC2EPKS3_i;2A.;__comp_ctor::(29,12):_ZN6MAUtil6VectorIPN8NativeUI15EditBoxListenerEEC1EPKS3_i;2A.;__base_ctor::(29,15)=#(29,6),(0,6),(29,11),(29,16)=&(29,17)=k(29,6),(0,6);:_ZN6MAUtil6VectorIPN8NativeUI15EditBoxListenerEEC2ERKS4_;2A.;__comp_ctor::(29,15):_ZN6MAUtil6VectorIPN8NativeUI15EditBoxListenerEEC1ERKS4_;2A.;__base_dtor::(29,18)=#(29,6),(0,6),(29,11),(0,6);:_ZN6MAUtil6VectorIPN8NativeUI15EditBoxListenerEED2Ev;2A.;__comp_dtor::(29,18):_ZN6MAUtil6VectorIPN8NativeUI15EditBoxListenerEED1Ev;2A.;operator=::(29,19)=#(29,6),(29,20)=&(29,6),(29,11),(29,16),(0,6);:_ZN6MAUtil6VectorIPN8NativeUI15EditBoxListenerEEaSERKS4_;2A.;add::(29,21)=#(29,6),(0,6),(29,11),(29,22)=&(29,14),(0,6);:_ZN6MAUtil6VectorIPN8NativeUI15EditBoxListenerEE3addERKS3_;2A.(29,12):_ZN6MAUtil6VectorIPN8NativeUI15EditBoxListenerEE3addEPKS3_i;2A.;remove::(29,23)=#(29,6),(0,6),(29,11),(29,7),(0,6);:_ZN6MAUtil6VectorIPN8NativeUI15EditBoxListenerEE6removeEPS3_;2A.(29,24)=#(29,6),(0,6),(29,11),(0,3),(0,6);:_ZN6MAUtil6VectorIPN8NativeUI15EditBoxListenerEE6removeEi;2A.(29,25)=#(29,6),(0,6),(29,11),(0,3),(0,3),(0,6);:_ZN6MAUtil6VectorIPN8NativeUI15EditBoxListenerEE6removeEii;2A.;insert::(29,26)=#(29,6),(0,6),(29,11),(0,3),(29,8),(0,6);:_ZN6MAUtil6VectorIPN8NativeUI15EditBoxListenerEE6insertEiS3_;2A.;size::(29,27)=#(29,6),(0,3),(29,28)=*(29,17),(0,6);:_ZNK6MAUtil6VectorIPN8NativeUI15EditBoxListenerEE4sizeEv;2B.;resize::(29,24):_ZN6MAUtil6VectorIPN8NativeUI15EditBoxListenerEE6resizeEi;2A.;reserve::(29,24):_ZN6MAUtil6VectorIPN8NativeUI15EditBoxListenerEE7reserveEi;2A.;clear::(29,18):_ZN6MAUtil6VectorIPN8NativeUI15EditBoxListenerEE5clearEv;2A.;empty::(29,29)=#(29,6),(0,4),(29,28),(0,6);:_ZNK6MAUtil6VectorIPN8NativeUI15EditBoxListenerEE5emptyEv;2B.;capacity::(29,27):_ZNK6MAUtil6VectorIPN8NativeUI15EditBoxListenerEE8capacityEv;2B.;begin::(29,30)=#(29,6),(29,7),(29,11),(0,6);:_ZN6MAUtil6VectorIPN8NativeUI15EditBoxListenerEE5beginEv;2A.;end::(29,30):_ZN6MAUtil6VectorIPN8NativeUI15EditBoxListenerEE3endEv;2A.;begin::(29,31)=#(29,6),(29,13),(29,28),(0,6);:_ZNK6MAUtil6VectorIPN8NativeUI15EditBoxListenerEE5beginEv;2B.;end::(29,31):_ZNK6MAUtil6VectorIPN8NativeUI15EditBoxListenerEE3endEv;2B.;operator[]::(29,32)=#(29,6),(29,33)=&(29,8),(29,11),(0,3),(0,6);:_ZN6MAUtil6VectorIPN8NativeUI15EditBoxListenerEEixEi;2A.(29,34)=#(29,6),(29,22),(29,28),(0,3),(0,6);:_ZNK6MAUtil6VectorIPN8NativeUI15EditBoxListenerEEixEi;2B.;pointer::(29,31):_ZNK6MAUtil6VectorIPN8NativeUI15EditBoxListenerEE7pointerEv;2B.(29,30):_ZN6MAUtil6VectorIPN8NativeUI15EditBoxListenerEE7pointerEv;2A.;;",128,0,95,0
	.stabn	162,0,0,0
	.stabs	"/Applications/MoSync/include/NativeUI/EditBoxListener.h",130,0,0,0
	.stabn	162,0,0,0
	.stabs	"/Applications/MoSync/include/NativeUI/GLView.h",130,0,0,0
	.stabs	"Vector<NativeUI::GLViewListener*>:Tt(31,1)=s12mSize:/1(0,3),0,32;mCapacity:/1(0,3),32,32;mData:/1(31,2)=*(31,3)=*(31,4)=xsGLViewListener:,64,32;__base_ctor::(31,5)=#(31,1),(0,6),(31,6)=*(31,1),(0,3),(0,6);:_ZN6MAUtil6VectorIPN8NativeUI14GLViewListenerEEC2Ei;2A.;__comp_ctor::(31,5):_ZN6MAUtil6VectorIPN8NativeUI14GLViewListenerEEC1Ei;2A.;__base_ctor::(31,7)=#(31,1),(0,6),(31,6),(31,8)=*(31,9)=k(31,3),(0,3),(0,6);:_ZN6MAUtil6VectorIPN8NativeUI14GLViewListenerEEC2EPKS3_i;2A.;__comp_ctor::(31,7):_ZN6MAUtil6VectorIPN8NativeUI14GLViewListenerEEC1EPKS3_i;2A.;__base_ctor::(31,10)=#(31,1),(0,6),(31,6),(31,11)=&(31,12)=k(31,1),(0,6);:_ZN6MAUtil6VectorIPN8NativeUI14GLViewListenerEEC2ERKS4_;2A.;__comp_ctor::(31,10):_ZN6MAUtil6VectorIPN8NativeUI14GLViewListenerEEC1ERKS4_;2A.;__base_dtor::(31,13)=#(31,1),(0,6),(31,6),(0,6);:_ZN6MAUtil6VectorIPN8NativeUI14GLViewListenerEED2Ev;2A.;__comp_dtor::(31,13):_ZN6MAUtil6VectorIPN8NativeUI14GLViewListenerEED1Ev;2A.;operator=::(31,14)=#(31,1),(31,15)=&(31,1),(31,6),(31,11),(0,6);:_ZN6MAUtil6VectorIPN8NativeUI14GLViewListenerEEaSERKS4_;2A.;add::(31,16)=#(31,1),(0,6),(31,6),(31,17)=&(31,9),(0,6);:_ZN6MAUtil6VectorIPN8NativeUI14GLViewListenerEE3addERKS3_;2A.(31,7):_ZN6MAUtil6VectorIPN8NativeUI14GLViewListenerEE3addEPKS3_i;2A.;remove::(31,18)=#(31,1),(0,6),(31,6),(31,2),(0,6);:_ZN6MAUtil6VectorIPN8NativeUI14GLViewListenerEE6removeEPS3_;2A.(31,19)=#(31,1),(0,6),(31,6),(0,3),(0,6);:_ZN6MAUtil6VectorIPN8NativeUI14GLViewListenerEE6removeEi;2A.(31,20)=#(31,1),(0,6),(31,6),(0,3),(0,3),(0,6);:_ZN6MAUtil6VectorIPN8NativeUI14GLViewListenerEE6removeEii;2A.;insert::(31,21)=#(31,1),(0,6),(31,6),(0,3),(31,3),(0,6);:_ZN6MAUtil6VectorIPN8NativeUI14GLViewListenerEE6insertEiS3_;2A.;size::(31,22)=#(31,1),(0,3),(31,23)=*(31,12),(0,6);:_ZNK6MAUtil6VectorIPN8NativeUI14GLViewListenerEE4sizeEv;2B.;resize::(31,19):_ZN6MAUtil6VectorIPN8NativeUI14GLViewListenerEE6resizeEi;2A.;reserve::(31,19):_ZN6MAUtil6VectorIPN8NativeUI14GLViewListenerEE7reserveEi;2A.;clear::(31,13):_ZN6MAUtil6VectorIPN8NativeUI14GLViewListenerEE5clearEv;2A.;empty::(31,24)=#(31,1),(0,4),(31,23),(0,6);:_ZNK6MAUtil6VectorIPN8NativeUI14GLViewListenerEE5emptyEv;2B.;capacity::(31,22):_ZNK6MAUtil6VectorIPN8NativeUI14GLViewListenerEE8capacityEv;2B.;begin::(31,25)=#(31,1),(31,2),(31,6),(0,6);:_ZN6MAUtil6VectorIPN8NativeUI14GLViewListenerEE5beginEv;2A.;end::(31,25):_ZN6MAUtil6VectorIPN8NativeUI14GLViewListenerEE3endEv;2A.;begin::(31,26)=#(31,1),(31,8),(31,23),(0,6);:_ZNK6MAUtil6VectorIPN8NativeUI14GLViewListenerEE5beginEv;2B.;end::(31,26):_ZNK6MAUtil6VectorIPN8NativeUI14GLViewListenerEE3endEv;2B.;operator[]::(31,27)=#(31,1),(31,28)=&(31,3),(31,6),(0,3),(0,6);:_ZN6MAUtil6VectorIPN8NativeUI14GLViewListenerEEixEi;2A.(31,29)=#(31,1),(31,17),(31,23),(0,3),(0,6);:_ZNK6MAUtil6VectorIPN8NativeUI14GLViewListenerEEixEi;2B.;pointer::(31,26):_ZNK6MAUtil6VectorIPN8NativeUI14GLViewListenerEE7pointerEv;2B.(31,25):_ZN6MAUtil6VectorIPN8NativeUI14GLViewListenerEE7pointerEv;2A.;;",128,0,95,0
	.stabn	162,0,0,0
	.stabs	"/Applications/MoSync/include/NativeUI/GLViewListener.h",130,0,0,0
	.stabn	162,0,0,0
	.stabs	"/Applications/MoSync/include/NativeUI/HorizontalLayout.h",130,0,0,0
	.stabs	"/Applications/MoSync/include/NativeUI/Layout.h",130,0,0,0
	.stabs	"/Applications/MoSync/include/Ads/Banner.h",130,0,0,0
	.stabs	"BannerSize:t(35,1)=eBANNER_SIZE_DEFAULT:0,BANNER_SIZE_RECT:1,BANNER_SIZE_IAB:2,BANNER_SIZE_LEADERBOARD:3,BANNER_SIZE_WP7_XLARGE:4,BANNER_SIZE_WP7_XXLARGE:5,;",128,0,62,0
	.stabs	"Vector<Ads::BannerListener*>:Tt(35,2)=s12mSize:/1(0,3),0,32;mCapacity:/1(0,3),32,32;mData:/1(35,3)=*(35,4)=*(35,5)=xsBannerListener:,64,32;__base_ctor::(35,6)=#(35,2),(0,6),(35,7)=*(35,2),(0,3),(0,6);:_ZN6MAUtil6VectorIPN3Ads14BannerListenerEEC2Ei;2A.;__comp_ctor::(35,6):_ZN6MAUtil6VectorIPN3Ads14BannerListenerEEC1Ei;2A.;__base_ctor::(35,8)=#(35,2),(0,6),(35,7),(35,9)=*(35,10)=k(35,4),(0,3),(0,6);:_ZN6MAUtil6VectorIPN3Ads14BannerListenerEEC2EPKS3_i;2A.;__comp_ctor::(35,8):_ZN6MAUtil6VectorIPN3Ads14BannerListenerEEC1EPKS3_i;2A.;__base_ctor::(35,11)=#(35,2),(0,6),(35,7),(35,12)=&(35,13)=k(35,2),(0,6);:_ZN6MAUtil6VectorIPN3Ads14BannerListenerEEC2ERKS4_;2A.;__comp_ctor::(35,11):_ZN6MAUtil6VectorIPN3Ads14BannerListenerEEC1ERKS4_;2A.;__base_dtor::(35,14)=#(35,2),(0,6),(35,7),(0,6);:_ZN6MAUtil6VectorIPN3Ads14BannerListenerEED2Ev;2A.;__comp_dtor::(35,14):_ZN6MAUtil6VectorIPN3Ads14BannerListenerEED1Ev;2A.;operator=::(35,15)=#(35,2),(35,16)=&(35,2),(35,7),(35,12),(0,6);:_ZN6MAUtil6VectorIPN3Ads14BannerListenerEEaSERKS4_;2A.;add::(35,17)=#(35,2),(0,6),(35,7),(35,18)=&(35,10),(0,6);:_ZN6MAUtil6VectorIPN3Ads14BannerListenerEE3addERKS3_;2A.(35,8):_ZN6MAUtil6VectorIPN3Ads14BannerListenerEE3addEPKS3_i;2A.;remove::(35,19)=#(35,2),(0,6),(35,7),(35,3),(0,6);:_ZN6MAUtil6VectorIPN3Ads14BannerListenerEE6removeEPS3_;2A.(35,20)=#(35,2),(0,6),(35,7),(0,3),(0,6);:_ZN6MAUtil6VectorIPN3Ads14BannerListenerEE6removeEi;2A.(35,21)=#(35,2),(0,6),(35,7),(0,3),(0,3),(0,6);:_ZN6MAUtil6VectorIPN3Ads14BannerListenerEE6removeEii;2A.;insert::(35,22)=#(35,2),(0,6),(35,7),(0,3),(35,4),(0,6);:_ZN6MAUtil6VectorIPN3Ads14BannerListenerEE6insertEiS3_;2A.;size::(35,23)=#(35,2),(0,3),(35,24)=*(35,13),(0,6);:_ZNK6MAUtil6VectorIPN3Ads14BannerListenerEE4sizeEv;2B.;resize::(35,20):_ZN6MAUtil6VectorIPN3Ads14BannerListenerEE6resizeEi;2A.;reserve::(35,20):_ZN6MAUtil6VectorIPN3Ads14BannerListenerEE7reserveEi;2A.;clear::(35,14):_ZN6MAUtil6VectorIPN3Ads14BannerListenerEE5clearEv;2A.;empty::(35,25)=#(35,2),(0,4),(35,24),(0,6);:_ZNK6MAUtil6VectorIPN3Ads14BannerListenerEE5emptyEv;2B.;capacity::(35,23):_ZNK6MAUtil6VectorIPN3Ads14BannerListenerEE8capacityEv;2B.;begin::(35,26)=#(35,2),(35,3),(35,7),(0,6);:_ZN6MAUtil6VectorIPN3Ads14BannerListenerEE5beginEv;2A.;end::(35,26):_ZN6MAUtil6VectorIPN3Ads14BannerListenerEE3endEv;2A.;begin::(35,27)=#(35,2),(35,9),(35,24),(0,6);:_ZNK6MAUtil6VectorIPN3Ads14BannerListenerEE5beginEv;2B.;end::(35,27):_ZNK6MAUtil6VectorIPN3Ads14BannerListenerEE3endEv;2B.;operator[]::(35,28)=#(35,2),(35,29)=&(35,4),(35,7),(0,3),(0,6);:_ZN6MAUtil6VectorIPN3Ads14BannerListenerEEixEi;2A.(35,30)=#(35,2),(35,18),(35,24),(0,3),(0,6);:_ZNK6MAUtil6VectorIPN3Ads14BannerListenerEEixEi;2B.;pointer::(35,27):_ZNK6MAUtil6VectorIPN3Ads14BannerListenerEE7pointerEv;2B.(35,26):_ZN6MAUtil6VectorIPN3Ads14BannerListenerEE7pointerEv;2A.;;",128,0,95,0
	.stabn	162,0,0,0
	.stabs	"Vector<Ads::Banner*>:Tt(34,1)=s12mSize:/1(0,3),0,32;mCapacity:/1(0,3),32,32;mData:/1(34,2)=*(34,3)=*(34,4)=xsBanner:,64,32;__base_ctor::(34,5)=#(34,1),(0,6),(34,6)=*(34,1),(0,3),(0,6);:_ZN6MAUtil6VectorIPN3Ads6BannerEEC2Ei;2A.;__comp_ctor::(34,5):_ZN6MAUtil6VectorIPN3Ads6BannerEEC1Ei;2A.;__base_ctor::(34,7)=#(34,1),(0,6),(34,6),(34,8)=*(34,9)=k(34,3),(0,3),(0,6);:_ZN6MAUtil6VectorIPN3Ads6BannerEEC2EPKS3_i;2A.;__comp_ctor::(34,7):_ZN6MAUtil6VectorIPN3Ads6BannerEEC1EPKS3_i;2A.;__base_ctor::(34,10)=#(34,1),(0,6),(34,6),(34,11)=&(34,12)=k(34,1),(0,6);:_ZN6MAUtil6VectorIPN3Ads6BannerEEC2ERKS4_;2A.;__comp_ctor::(34,10):_ZN6MAUtil6VectorIPN3Ads6BannerEEC1ERKS4_;2A.;__base_dtor::(34,13)=#(34,1),(0,6),(34,6),(0,6);:_ZN6MAUtil6VectorIPN3Ads6BannerEED2Ev;2A.;__comp_dtor::(34,13):_ZN6MAUtil6VectorIPN3Ads6BannerEED1Ev;2A.;operator=::(34,14)=#(34,1),(34,15)=&(34,1),(34,6),(34,11),(0,6);:_ZN6MAUtil6VectorIPN3Ads6BannerEEaSERKS4_;2A.;add::(34,16)=#(34,1),(0,6),(34,6),(34,17)=&(34,9),(0,6);:_ZN6MAUtil6VectorIPN3Ads6BannerEE3addERKS3_;2A.(34,7):_ZN6MAUtil6VectorIPN3Ads6BannerEE3addEPKS3_i;2A.;remove::(34,18)=#(34,1),(0,6),(34,6),(34,2),(0,6);:_ZN6MAUtil6VectorIPN3Ads6BannerEE6removeEPS3_;2A.(34,19)=#(34,1),(0,6),(34,6),(0,3),(0,6);:_ZN6MAUtil6VectorIPN3Ads6BannerEE6removeEi;2A.(34,20)=#(34,1),(0,6),(34,6),(0,3),(0,3),(0,6);:_ZN6MAUtil6VectorIPN3Ads6BannerEE6removeEii;2A.;insert::(34,21)=#(34,1),(0,6),(34,6),(0,3),(34,3),(0,6);:_ZN6MAUtil6VectorIPN3Ads6BannerEE6insertEiS3_;2A.;size::(34,22)=#(34,1),(0,3),(34,23)=*(34,12),(0,6);:_ZNK6MAUtil6VectorIPN3Ads6BannerEE4sizeEv;2B.;resize::(34,19):_ZN6MAUtil6VectorIPN3Ads6BannerEE6resizeEi;2A.;reserve::(34,19):_ZN6MAUtil6VectorIPN3Ads6BannerEE7reserveEi;2A.;clear::(34,13):_ZN6MAUtil6VectorIPN3Ads6BannerEE5clearEv;2A.;empty::(34,24)=#(34,1),(0,4),(34,23),(0,6);:_ZNK6MAUtil6VectorIPN3Ads6BannerEE5emptyEv;2B.;capacity::(34,22):_ZNK6MAUtil6VectorIPN3Ads6BannerEE8capacityEv;2B.;begin::(34,25)=#(34,1),(34,2),(34,6),(0,6);:_ZN6MAUtil6VectorIPN3Ads6BannerEE5beginEv;2A.;end::(34,25):_ZN6MAUtil6VectorIPN3Ads6BannerEE3endEv;2A.;begin::(34,26)=#(34,1),(34,8),(34,23),(0,6);:_ZNK6MAUtil6VectorIPN3Ads6BannerEE5beginEv;2B.;end::(34,26):_ZNK6MAUtil6VectorIPN3Ads6BannerEE3endEv;2B.;operator[]::(34,27)=#(34,1),(34,28)=&(34,3),(34,6),(0,3),(0,6);:_ZN6MAUtil6VectorIPN3Ads6BannerEEixEi;2A.(34,29)=#(34,1),(34,17),(34,23),(0,3),(0,6);:_ZNK6MAUtil6VectorIPN3Ads6BannerEEixEi;2B.;pointer::(34,26):_ZNK6MAUtil6VectorIPN3Ads6BannerEE7pointerEv;2B.(34,25):_ZN6MAUtil6VectorIPN3Ads6BannerEE7pointerEv;2A.;;",128,0,95,0
	.stabn	162,0,0,0
	.stabn	162,0,0,0
	.stabs	"/Applications/MoSync/include/NativeUI/Image.h",130,0,0,0
	.stabs	"ImageScaleMode:t(36,1)=eIMAGE_SCALE_NONE:0,IMAGE_SCALE_XY:1,IMAGE_SCALE_PRESERVE_ASPECT:2,;",128,0,47,0
	.stabn	162,0,0,0
	.stabs	"/Applications/MoSync/include/NativeUI/ImageButton.h",130,0,0,0
	.stabn	162,0,0,0
	.stabs	"/Applications/MoSync/include/NativeUI/Label.h",130,0,0,0
	.stabn	162,0,0,0
	.stabs	"/Applications/MoSync/include/NativeUI/ListView.h",130,0,0,0
	.stabs	"ListViewType:t(39,1)=eLIST_VIEW_TYPE_DEFAULT:0,LIST_VIEW_TYPE_ALPHABETICAL:1,LIST_VIEW_TYPE_SEGMENTED:2,;",128,0,49,0
	.stabs	"ListViewMode:t(39,2)=eLIST_VIEW_MODE_DISPLAY:0,LIST_VIEW_MODE_EDIT:1,;",128,0,71,0
	.stabs	"ListViewStyle:t(39,3)=eLIST_VIEW_STYLE_SUBTITLE:0,LIST_VIEW_STYLE_NO_SUBTITLE:1,;",128,0,88,0
	.stabs	"Vector<NativeUI::ListViewListener*>:Tt(39,4)=s12mSize:/1(0,3),0,32;mCapacity:/1(0,3),32,32;mData:/1(39,5)=*(39,6)=*(39,7)=xsListViewListener:,64,32;__base_ctor::(39,8)=#(39,4),(0,6),(39,9)=*(39,4),(0,3),(0,6);:_ZN6MAUtil6VectorIPN8NativeUI16ListViewListenerEEC2Ei;2A.;__comp_ctor::(39,8):_ZN6MAUtil6VectorIPN8NativeUI16ListViewListenerEEC1Ei;2A.;__base_ctor::(39,10)=#(39,4),(0,6),(39,9),(39,11)=*(39,12)=k(39,6),(0,3),(0,6);:_ZN6MAUtil6VectorIPN8NativeUI16ListViewListenerEEC2EPKS3_i;2A.;__comp_ctor::(39,10):_ZN6MAUtil6VectorIPN8NativeUI16ListViewListenerEEC1EPKS3_i;2A.;__base_ctor::(39,13)=#(39,4),(0,6),(39,9),(39,14)=&(39,15)=k(39,4),(0,6);:_ZN6MAUtil6VectorIPN8NativeUI16ListViewListenerEEC2ERKS4_;2A.;__comp_ctor::(39,13):_ZN6MAUtil6VectorIPN8NativeUI16ListViewListenerEEC1ERKS4_;2A.;__base_dtor::(39,16)=#(39,4),(0,6),(39,9),(0,6);:_ZN6MAUtil6VectorIPN8NativeUI16ListViewListenerEED2Ev;2A.;__comp_dtor::(39,16):_ZN6MAUtil6VectorIPN8NativeUI16ListViewListenerEED1Ev;2A.;operator=::(39,17)=#(39,4),(39,18)=&(39,4),(39,9),(39,14),(0,6);:_ZN6MAUtil6VectorIPN8NativeUI16ListViewListenerEEaSERKS4_;2A.;add::(39,19)=#(39,4),(0,6),(39,9),(39,20)=&(39,12),(0,6);:_ZN6MAUtil6VectorIPN8NativeUI16ListViewListenerEE3addERKS3_;2A.(39,10):_ZN6MAUtil6VectorIPN8NativeUI16ListViewListenerEE3addEPKS3_i;2A.;remove::(39,21)=#(39,4),(0,6),(39,9),(39,5),(0,6);:_ZN6MAUtil6VectorIPN8NativeUI16ListViewListenerEE6removeEPS3_;2A.(39,22)=#(39,4),(0,6),(39,9),(0,3),(0,6);:_ZN6MAUtil6VectorIPN8NativeUI16ListViewListenerEE6removeEi;2A.(39,23)=#(39,4),(0,6),(39,9),(0,3),(0,3),(0,6);:_ZN6MAUtil6VectorIPN8NativeUI16ListViewListenerEE6removeEii;2A.;insert::(39,24)=#(39,4),(0,6),(39,9),(0,3),(39,6),(0,6);:_ZN6MAUtil6VectorIPN8NativeUI16ListViewListenerEE6insertEiS3_;2A.;size::(39,25)=#(39,4),(0,3),(39,26)=*(39,15),(0,6);:_ZNK6MAUtil6VectorIPN8NativeUI16ListViewListenerEE4sizeEv;2B.;resize::(39,22):_ZN6MAUtil6VectorIPN8NativeUI16ListViewListenerEE6resizeEi;2A.;reserve::(39,22):_ZN6MAUtil6VectorIPN8NativeUI16ListViewListenerEE7reserveEi;2A.;clear::(39,16):_ZN6MAUtil6VectorIPN8NativeUI16ListViewListenerEE5clearEv;2A.;empty::(39,27)=#(39,4),(0,4),(39,26),(0,6);:_ZNK6MAUtil6VectorIPN8NativeUI16ListViewListenerEE5emptyEv;2B.;capacity::(39,25):_ZNK6MAUtil6VectorIPN8NativeUI16ListViewListenerEE8capacityEv;2B.;begin::(39,28)=#(39,4),(39,5),(39,9),(0,6);:_ZN6MAUtil6VectorIPN8NativeUI16ListViewListenerEE5beginEv;2A.;end::(39,28):_ZN6MAUtil6VectorIPN8NativeUI16ListViewListenerEE3endEv;2A.;begin::(39,29)=#(39,4),(39,11),(39,26),(0,6);:_ZNK6MAUtil6VectorIPN8NativeUI16ListViewListenerEE5beginEv;2B.;end::(39,29):_ZNK6MAUtil6VectorIPN8NativeUI16ListViewListenerEE3endEv;2B.;operator[]::(39,30)=#(39,4),(39,31)=&(39,6),(39,9),(0,3),(0,6);:_ZN6MAUtil6VectorIPN8NativeUI16ListViewListenerEEixEi;2A.(39,32)=#(39,4),(39,20),(39,26),(0,3),(0,6);:_ZNK6MAUtil6VectorIPN8NativeUI16ListViewListenerEEixEi;2B.;pointer::(39,29):_ZNK6MAUtil6VectorIPN8NativeUI16ListViewListenerEE7pointerEv;2B.(39,28):_ZN6MAUtil6VectorIPN8NativeUI16ListViewListenerEE7pointerEv;2A.;;",128,0,95,0
	.stabn	162,0,0,0
	.stabs	"/Applications/MoSync/include/NativeUI/ListViewItem.h",130,0,0,0
	.stabs	"ListViewItemAccessory:t(40,1)=eLIST_VIEW_ITEM_ACCESSORY_NONE:0,LIST_VIEW_ITEM_ACCESSORY_DISCLOSURE:1,LIST_VIEW_ITEM_ACCESSORY_DETAIL:2,LIST_VIEW_ITEM_ACCESSORY_CHECKMARK:3,;",128,0,49,0
	.stabs	"ListViewItemEditStyle:t(40,2)=eLIST_VIEW_ITEM_EDIT_STYLE_NONE:0,LIST_VIEW_ITEM_EDIT_STYLE_DELETE:1,LIST_VIEW_ITEM_EDIT_STYLE_INSERT:2,;",128,0,57,0
	.stabs	"ListViewItemSelectionStyle:t(40,3)=eLIST_VIEW_ITEM_SELECTION_STYLE_NONE:0,LIST_VIEW_ITEM_SELECTION_STYLE_BLUE:1,LIST_VIEW_ITEM_SELECTION_STYLE_GRAY:2,;",128,0,79,0
	.stabn	162,0,0,0
	.stabs	"/Applications/MoSync/include/NativeUI/ListViewSection.h",130,0,0,0
	.stabs	"ListViewSectionType:t(41,1)=eLIST_VIEW_SECTION_TYPE_ALPHABETICAL:0,LIST_VIEW_SECTION_TYPE_SEGMENTED:1,;",128,0,50,0
	.stabn	162,0,0,0
	.stabs	"/Applications/MoSync/include/NativeUI/ListViewListener.h",130,0,0,0
	.stabn	162,0,0,0
	.stabs	"/Applications/MoSync/include/NativeUI/Map.h",130,0,0,0
	.stabs	"/Applications/MoSync/include/NativeUI/MapLocation.h",130,0,0,0
	.stabs	"/Applications/MoSync/include/NativeUI/Location.h",130,0,0,0
	.stabs	"Location:Tt(45,1)=s16mLatitude:/1(0,8),0,64;mLongitude:/1(0,8),64,64;__base_ctor::(45,2)=#(45,1),(0,6),(45,3)=*(45,1),(0,6);:_ZN8NativeUI8LocationC2Ev;2A.;__comp_ctor::(45,2):_ZN8NativeUI8LocationC1Ev;2A.;__base_ctor::(45,4)=#(45,1),(0,6),(45,3),(0,8),(0,8),(0,6);:_ZN8NativeUI8LocationC2Edd;2A.;__comp_ctor::(45,4):_ZN8NativeUI8LocationC1Edd;2A.;__base_dtor::(45,2):_ZN8NativeUI8LocationD2Ev;2A.;__comp_dtor::(45,2):_ZN8NativeUI8LocationD1Ev;2A.;setLatitude::(45,5)=#(45,1),(0,6),(45,3),(0,8),(0,6);:_ZN8NativeUI8Location11setLatitudeEd;2A.;getLatitude::(45,6)=#(45,1),(0,8),(45,7)=*(45,8)=k(45,1),(0,6);:_ZNK8NativeUI8Location11getLatitudeEv;2B.;setLongitude::(45,5):_ZN8NativeUI8Location12setLongitudeEd;2A.;getLongitude::(45,6):_ZNK8NativeUI8Location12getLongitudeEv;2B.;operator=::(45,9)=#(45,1),(45,10)=&(45,1),(45,3),(45,11)=&(45,8),(0,6);:_ZN8NativeUI8LocationaSERKS0_;2A.;__base_ctor::(45,12)=#(45,1),(0,6),(45,3),(45,11),(0,6);:_ZN8NativeUI8LocationC2ERKS0_;2A.;__comp_ctor::(45,12):_ZN8NativeUI8LocationC1ERKS0_;2A.;;",128,0,41,0
	.stabn	162,0,0,0
	.stabs	"MapLocation:Tt(44,1)=s20!1,020,(45,1);mZoomLevel:/0(0,3),128,32;__base_ctor::(44,2)=#(44,1),(0,6),(44,3)=*(44,1),(0,6);:_ZN8NativeUI11MapLocationC2Ev;2A.;__comp_ctor::(44,2):_ZN8NativeUI11MapLocationC1Ev;2A.;__base_ctor::(44,4)=#(44,1),(0,6),(44,3),(0,8),(0,8),(0,6);:_ZN8NativeUI11MapLocationC2Edd;2A.;__comp_ctor::(44,4):_ZN8NativeUI11MapLocationC1Edd;2A.;__base_ctor::(44,5)=#(44,1),(0,6),(44,3),(0,8),(0,8),(0,3),(0,6);:_ZN8NativeUI11MapLocationC2Eddi;2A.;__comp_ctor::(44,5):_ZN8NativeUI11MapLocationC1Eddi;2A.;__base_dtor::(44,2):_ZN8NativeUI11MapLocationD2Ev;2A.;__comp_dtor::(44,2):_ZN8NativeUI11MapLocationD1Ev;2A.;setZoomLevel::(44,6)=#(44,1),(0,6),(44,3),(0,3),(0,6);:_ZN8NativeUI11MapLocation12setZoomLevelEi;2A.;getZoomLevel::(44,7)=#(44,1),(0,3),(44,8)=*(44,9)=k(44,1),(0,6);:_ZNK8NativeUI11MapLocation12getZoomLevelEv;2B.;setLocation::(44,10)=#(44,1),(0,6),(44,3),(45,3),(0,6);:_ZN8NativeUI11MapLocation11setLocationEPNS_8LocationE;2A.;operator=::(44,11)=#(44,1),(44,12)=&(44,1),(44,3),(44,13)=&(44,9),(0,6);:_ZN8NativeUI11MapLocationaSERKS0_;2A.;__base_ctor::(44,14)=#(44,1),(0,6),(44,3),(44,13),(0,6);:_ZN8NativeUI11MapLocationC2ERKS0_;2A.;__comp_ctor::(44,14):_ZN8NativeUI11MapLocationC1ERKS0_;2A.;;",128,0,43,0
	.stabn	162,0,0,0
	.stabs	"/Applications/MoSync/include/NativeUI/MapPin.h",130,0,0,0
	.stabs	"/Applications/MoSync/include/NativeUI/MapPinListener.h",130,0,0,0
	.stabn	162,0,0,0
	.stabs	"Vector<NativeUI::MapPinListener*>:Tt(46,1)=s12mSize:/1(0,3),0,32;mCapacity:/1(0,3),32,32;mData:/1(46,2)=*(46,3)=*(46,4)=xsMapPinListener:,64,32;__base_ctor::(46,5)=#(46,1),(0,6),(46,6)=*(46,1),(0,3),(0,6);:_ZN6MAUtil6VectorIPN8NativeUI14MapPinListenerEEC2Ei;2A.;__comp_ctor::(46,5):_ZN6MAUtil6VectorIPN8NativeUI14MapPinListenerEEC1Ei;2A.;__base_ctor::(46,7)=#(46,1),(0,6),(46,6),(46,8)=*(46,9)=k(46,3),(0,3),(0,6);:_ZN6MAUtil6VectorIPN8NativeUI14MapPinListenerEEC2EPKS3_i;2A.;__comp_ctor::(46,7):_ZN6MAUtil6VectorIPN8NativeUI14MapPinListenerEEC1EPKS3_i;2A.;__base_ctor::(46,10)=#(46,1),(0,6),(46,6),(46,11)=&(46,12)=k(46,1),(0,6);:_ZN6MAUtil6VectorIPN8NativeUI14MapPinListenerEEC2ERKS4_;2A.;__comp_ctor::(46,10):_ZN6MAUtil6VectorIPN8NativeUI14MapPinListenerEEC1ERKS4_;2A.;__base_dtor::(46,13)=#(46,1),(0,6),(46,6),(0,6);:_ZN6MAUtil6VectorIPN8NativeUI14MapPinListenerEED2Ev;2A.;__comp_dtor::(46,13):_ZN6MAUtil6VectorIPN8NativeUI14MapPinListenerEED1Ev;2A.;operator=::(46,14)=#(46,1),(46,15)=&(46,1),(46,6),(46,11),(0,6);:_ZN6MAUtil6VectorIPN8NativeUI14MapPinListenerEEaSERKS4_;2A.;add::(46,16)=#(46,1),(0,6),(46,6),(46,17)=&(46,9),(0,6);:_ZN6MAUtil6VectorIPN8NativeUI14MapPinListenerEE3addERKS3_;2A.(46,7):_ZN6MAUtil6VectorIPN8NativeUI14MapPinListenerEE3addEPKS3_i;2A.;remove::(46,18)=#(46,1),(0,6),(46,6),(46,2),(0,6);:_ZN6MAUtil6VectorIPN8NativeUI14MapPinListenerEE6removeEPS3_;2A.(46,19)=#(46,1),(0,6),(46,6),(0,3),(0,6);:_ZN6MAUtil6VectorIPN8NativeUI14MapPinListenerEE6removeEi;2A.(46,20)=#(46,1),(0,6),(46,6),(0,3),(0,3),(0,6);:_ZN6MAUtil6VectorIPN8NativeUI14MapPinListenerEE6removeEii;2A.;insert::(46,21)=#(46,1),(0,6),(46,6),(0,3),(46,3),(0,6);:_ZN6MAUtil6VectorIPN8NativeUI14MapPinListenerEE6insertEiS3_;2A.;size::(46,22)=#(46,1),(0,3),(46,23)=*(46,12),(0,6);:_ZNK6MAUtil6VectorIPN8NativeUI14MapPinListenerEE4sizeEv;2B.;resize::(46,19):_ZN6MAUtil6VectorIPN8NativeUI14MapPinListenerEE6resizeEi;2A.;reserve::(46,19):_ZN6MAUtil6VectorIPN8NativeUI14MapPinListenerEE7reserveEi;2A.;clear::(46,13):_ZN6MAUtil6VectorIPN8NativeUI14MapPinListenerEE5clearEv;2A.;empty::(46,24)=#(46,1),(0,4),(46,23),(0,6);:_ZNK6MAUtil6VectorIPN8NativeUI14MapPinListenerEE5emptyEv;2B.;capacity::(46,22):_ZNK6MAUtil6VectorIPN8NativeUI14MapPinListenerEE8capacityEv;2B.;begin::(46,25)=#(46,1),(46,2),(46,6),(0,6);:_ZN6MAUtil6VectorIPN8NativeUI14MapPinListenerEE5beginEv;2A.;end::(46,25):_ZN6MAUtil6VectorIPN8NativeUI14MapPinListenerEE3endEv;2A.;begin::(46,26)=#(46,1),(46,8),(46,23),(0,6);:_ZNK6MAUtil6VectorIPN8NativeUI14MapPinListenerEE5beginEv;2B.;end::(46,26):_ZNK6MAUtil6VectorIPN8NativeUI14MapPinListenerEE3endEv;2B.;operator[]::(46,27)=#(46,1),(46,28)=&(46,3),(46,6),(0,3),(0,6);:_ZN6MAUtil6VectorIPN8NativeUI14MapPinListenerEEixEi;2A.(46,29)=#(46,1),(46,17),(46,23),(0,3),(0,6);:_ZNK6MAUtil6VectorIPN8NativeUI14MapPinListenerEEixEi;2B.;pointer::(46,26):_ZNK6MAUtil6VectorIPN8NativeUI14MapPinListenerEE7pointerEv;2B.(46,25):_ZN6MAUtil6VectorIPN8NativeUI14MapPinListenerEE7pointerEv;2A.;;",128,0,95,0
	.stabn	162,0,0,0
	.stabs	"/Applications/MoSync/include/NativeUI/MapRegion.h",130,0,0,0
	.stabs	"MapRegion:Tt(48,1)=s8mUpperLeftCorner:/0(45,3),0,32;mLowerRightCorner:/0(45,3),32,32;__base_ctor::(48,2)=#(48,1),(0,6),(48,3)=*(48,1),(0,6);:_ZN8NativeUI9MapRegionC2Ev;2A.;__comp_ctor::(48,2):_ZN8NativeUI9MapRegionC1Ev;2A.;__base_ctor::(48,4)=#(48,1),(0,6),(48,3),(45,1),(45,1),(0,6);:_ZN8NativeUI9MapRegionC2ENS_8LocationES1_;2A.;__comp_ctor::(48,4):_ZN8NativeUI9MapRegionC1ENS_8LocationES1_;2A.;__base_dtor::(48,2):_ZN8NativeUI9MapRegionD2Ev;2A.;__comp_dtor::(48,2):_ZN8NativeUI9MapRegionD1Ev;2A.;setUpperLeftCorner::(48,5)=#(48,1),(0,6),(48,3),(45,3),(0,6);:_ZN8NativeUI9MapRegion18setUpperLeftCornerEPNS_8LocationE;2A.;getUpperLeftCorner::(48,6)=#(48,1),(45,10),(48,7)=*(48,8)=k(48,1),(0,6);:_ZNK8NativeUI9MapRegion18getUpperLeftCornerEv;2B.;setLowerRightCorner::(48,5):_ZN8NativeUI9MapRegion19setLowerRightCornerEPNS_8LocationE;2A.;getLowerRightCorner::(48,6):_ZNK8NativeUI9MapRegion19getLowerRightCornerEv;2B.;operator=::(48,9)=#(48,1),(48,10)=&(48,1),(48,3),(48,11)=&(48,8),(0,6);:_ZN8NativeUI9MapRegionaSERKS0_;2A.;__base_ctor::(48,12)=#(48,1),(0,6),(48,3),(48,11),(0,6);:_ZN8NativeUI9MapRegionC2ERKS0_;2A.;__comp_ctor::(48,12):_ZN8NativeUI9MapRegionC1ERKS0_;2A.;;",128,0,43,0
	.stabn	162,0,0,0
	.stabs	"MapType:t(43,1)=eMAP_TYPE_ROAD:0,MAP_TYPE_SATELLITE:1,;",128,0,60,0
	.stabs	"Vector<NativeUI::MapListener*>:Tt(43,2)=s12mSize:/1(0,3),0,32;mCapacity:/1(0,3),32,32;mData:/1(43,3)=*(43,4)=*(43,5)=xsMapListener:,64,32;__base_ctor::(43,6)=#(43,2),(0,6),(43,7)=*(43,2),(0,3),(0,6);:_ZN6MAUtil6VectorIPN8NativeUI11MapListenerEEC2Ei;2A.;__comp_ctor::(43,6):_ZN6MAUtil6VectorIPN8NativeUI11MapListenerEEC1Ei;2A.;__base_ctor::(43,8)=#(43,2),(0,6),(43,7),(43,9)=*(43,10)=k(43,4),(0,3),(0,6);:_ZN6MAUtil6VectorIPN8NativeUI11MapListenerEEC2EPKS3_i;2A.;__comp_ctor::(43,8):_ZN6MAUtil6VectorIPN8NativeUI11MapListenerEEC1EPKS3_i;2A.;__base_ctor::(43,11)=#(43,2),(0,6),(43,7),(43,12)=&(43,13)=k(43,2),(0,6);:_ZN6MAUtil6VectorIPN8NativeUI11MapListenerEEC2ERKS4_;2A.;__comp_ctor::(43,11):_ZN6MAUtil6VectorIPN8NativeUI11MapListenerEEC1ERKS4_;2A.;__base_dtor::(43,14)=#(43,2),(0,6),(43,7),(0,6);:_ZN6MAUtil6VectorIPN8NativeUI11MapListenerEED2Ev;2A.;__comp_dtor::(43,14):_ZN6MAUtil6VectorIPN8NativeUI11MapListenerEED1Ev;2A.;operator=::(43,15)=#(43,2),(43,16)=&(43,2),(43,7),(43,12),(0,6);:_ZN6MAUtil6VectorIPN8NativeUI11MapListenerEEaSERKS4_;2A.;add::(43,17)=#(43,2),(0,6),(43,7),(43,18)=&(43,10),(0,6);:_ZN6MAUtil6VectorIPN8NativeUI11MapListenerEE3addERKS3_;2A.(43,8):_ZN6MAUtil6VectorIPN8NativeUI11MapListenerEE3addEPKS3_i;2A.;remove::(43,19)=#(43,2),(0,6),(43,7),(43,3),(0,6);:_ZN6MAUtil6VectorIPN8NativeUI11MapListenerEE6removeEPS3_;2A.(43,20)=#(43,2),(0,6),(43,7),(0,3),(0,6);:_ZN6MAUtil6VectorIPN8NativeUI11MapListenerEE6removeEi;2A.(43,21)=#(43,2),(0,6),(43,7),(0,3),(0,3),(0,6);:_ZN6MAUtil6VectorIPN8NativeUI11MapListenerEE6removeEii;2A.;insert::(43,22)=#(43,2),(0,6),(43,7),(0,3),(43,4),(0,6);:_ZN6MAUtil6VectorIPN8NativeUI11MapListenerEE6insertEiS3_;2A.;size::(43,23)=#(43,2),(0,3),(43,24)=*(43,13),(0,6);:_ZNK6MAUtil6VectorIPN8NativeUI11MapListenerEE4sizeEv;2B.;resize::(43,20):_ZN6MAUtil6VectorIPN8NativeUI11MapListenerEE6resizeEi;2A.;reserve::(43,20):_ZN6MAUtil6VectorIPN8NativeUI11MapListenerEE7reserveEi;2A.;clear::(43,14):_ZN6MAUtil6VectorIPN8NativeUI11MapListenerEE5clearEv;2A.;empty::(43,25)=#(43,2),(0,4),(43,24),(0,6);:_ZNK6MAUtil6VectorIPN8NativeUI11MapListenerEE5emptyEv;2B.;capacity::(43,23):_ZNK6MAUtil6VectorIPN8NativeUI11MapListenerEE8capacityEv;2B.;begin::(43,26)=#(43,2),(43,3),(43,7),(0,6);:_ZN6MAUtil6VectorIPN8NativeUI11MapListenerEE5beginEv;2A.;end::(43,26):_ZN6MAUtil6VectorIPN8NativeUI11MapListenerEE3endEv;2A.;begin::(43,27)=#(43,2),(43,9),(43,24),(0,6);:_ZNK6MAUtil6VectorIPN8NativeUI11MapListenerEE5beginEv;2B.;end::(43,27):_ZNK6MAUtil6VectorIPN8NativeUI11MapListenerEE3endEv;2B.;operator[]::(43,28)=#(43,2),(43,29)=&(43,4),(43,7),(0,3),(0,6);:_ZN6MAUtil6VectorIPN8NativeUI11MapListenerEEixEi;2A.(43,30)=#(43,2),(43,18),(43,24),(0,3),(0,6);:_ZNK6MAUtil6VectorIPN8NativeUI11MapListenerEEixEi;2B.;pointer::(43,27):_ZNK6MAUtil6VectorIPN8NativeUI11MapListenerEE7pointerEv;2B.(43,26):_ZN6MAUtil6VectorIPN8NativeUI11MapListenerEE7pointerEv;2A.;;",128,0,95,0
	.stabn	162,0,0,0
	.stabs	"/Applications/MoSync/include/NativeUI/MapListener.h",130,0,0,0
	.stabn	162,0,0,0
	.stabs	"/Applications/MoSync/include/NativeUI/NavigationBar.h",130,0,0,0
	.stabs	"Vector<NativeUI::NavigationBarListener*>:Tt(50,1)=s12mSize:/1(0,3),0,32;mCapacity:/1(0,3),32,32;mData:/1(50,2)=*(50,3)=*(50,4)=xsNavigationBarListener:,64,32;__base_ctor::(50,5)=#(50,1),(0,6),(50,6)=*(50,1),(0,3),(0,6);:_ZN6MAUtil6VectorIPN8NativeUI21NavigationBarListenerEEC2Ei;2A.;__comp_ctor::(50,5):_ZN6MAUtil6VectorIPN8NativeUI21NavigationBarListenerEEC1Ei;2A.;__base_ctor::(50,7)=#(50,1),(0,6),(50,6),(50,8)=*(50,9)=k(50,3),(0,3),(0,6);:_ZN6MAUtil6VectorIPN8NativeUI21NavigationBarListenerEEC2EPKS3_i;2A.;__comp_ctor::(50,7):_ZN6MAUtil6VectorIPN8NativeUI21NavigationBarListenerEEC1EPKS3_i;2A.;__base_ctor::(50,10)=#(50,1),(0,6),(50,6),(50,11)=&(50,12)=k(50,1),(0,6);:_ZN6MAUtil6VectorIPN8NativeUI21NavigationBarListenerEEC2ERKS4_;2A.;__comp_ctor::(50,10):_ZN6MAUtil6VectorIPN8NativeUI21NavigationBarListenerEEC1ERKS4_;2A.;__base_dtor::(50,13)=#(50,1),(0,6),(50,6),(0,6);:_ZN6MAUtil6VectorIPN8NativeUI21NavigationBarListenerEED2Ev;2A.;__comp_dtor::(50,13):_ZN6MAUtil6VectorIPN8NativeUI21NavigationBarListenerEED1Ev;2A.;operator=::(50,14)=#(50,1),(50,15)=&(50,1),(50,6),(50,11),(0,6);:_ZN6MAUtil6VectorIPN8NativeUI21NavigationBarListenerEEaSERKS4_;2A.;add::(50,16)=#(50,1),(0,6),(50,6),(50,17)=&(50,9),(0,6);:_ZN6MAUtil6VectorIPN8NativeUI21NavigationBarListenerEE3addERKS3_;2A.(50,7):_ZN6MAUtil6VectorIPN8NativeUI21NavigationBarListenerEE3addEPKS3_i;2A.;remove::(50,18)=#(50,1),(0,6),(50,6),(50,2),(0,6);:_ZN6MAUtil6VectorIPN8NativeUI21NavigationBarListenerEE6removeEPS3_;2A.(50,19)=#(50,1),(0,6),(50,6),(0,3),(0,6);:_ZN6MAUtil6VectorIPN8NativeUI21NavigationBarListenerEE6removeEi;2A.(50,20)=#(50,1),(0,6),(50,6),(0,3),(0,3),(0,6);:_ZN6MAUtil6VectorIPN8NativeUI21NavigationBarListenerEE6removeEii;2A.;insert::(50,21)=#(50,1),(0,6),(50,6),(0,3),(50,3),(0,6);:_ZN6MAUtil6VectorIPN8NativeUI21NavigationBarListenerEE6insertEiS3_;2A.;size::(50,22)=#(50,1),(0,3),(50,23)=*(50,12),(0,6);:_ZNK6MAUtil6VectorIPN8NativeUI21NavigationBarListenerEE4sizeEv;2B.;resize::(50,19):_ZN6MAUtil6VectorIPN8NativeUI21NavigationBarListenerEE6resizeEi;2A.;reserve::(50,19):_ZN6MAUtil6VectorIPN8NativeUI21NavigationBarListenerEE7reserveEi;2A.;clear::(50,13):_ZN6MAUtil6VectorIPN8NativeUI21NavigationBarListenerEE5clearEv;2A.;empty::(50,24)=#(50,1),(0,4),(50,23),(0,6);:_ZNK6MAUtil6VectorIPN8NativeUI21NavigationBarListenerEE5emptyEv;2B.;capacity::(50,22):_ZNK6MAUtil6VectorIPN8NativeUI21NavigationBarListenerEE8capacityEv;2B.;begin::(50,25)=#(50,1),(50,2),(50,6),(0,6);:_ZN6MAUtil6VectorIPN8NativeUI21NavigationBarListenerEE5beginEv;2A.;end::(50,25):_ZN6MAUtil6VectorIPN8NativeUI21NavigationBarListenerEE3endEv;2A.;begin::(50,26)=#(50,1),(50,8),(50,23),(0,6);:_ZNK6MAUtil6VectorIPN8NativeUI21NavigationBarListenerEE5beginEv;2B.;end::(50,26):_ZNK6MAUtil6VectorIPN8NativeUI21NavigationBarListenerEE3endEv;2B.;operator[]::(50,27)=#(50,1),(50,28)=&(50,3),(50,6),(0,3),(0,6);:_ZN6MAUtil6VectorIPN8NativeUI21NavigationBarListenerEEixEi;2A.(50,29)=#(50,1),(50,17),(50,23),(0,3),(0,6);:_ZNK6MAUtil6VectorIPN8NativeUI21NavigationBarListenerEEixEi;2B.;pointer::(50,26):_ZNK6MAUtil6VectorIPN8NativeUI21NavigationBarListenerEE7pointerEv;2B.(50,25):_ZN6MAUtil6VectorIPN8NativeUI21NavigationBarListenerEE7pointerEv;2A.;;",128,0,95,0
	.stabn	162,0,0,0
	.stabs	"/Applications/MoSync/include/NativeUI/NavigationBarListener.h",130,0,0,0
	.stabn	162,0,0,0
	.stabs	"/Applications/MoSync/include/NativeUI/NumberPicker.h",130,0,0,0
	.stabs	"Vector<NativeUI::NumberPickerListener*>:Tt(52,1)=s12mSize:/1(0,3),0,32;mCapacity:/1(0,3),32,32;mData:/1(52,2)=*(52,3)=*(52,4)=xsNumberPickerListener:,64,32;__base_ctor::(52,5)=#(52,1),(0,6),(52,6)=*(52,1),(0,3),(0,6);:_ZN6MAUtil6VectorIPN8NativeUI20NumberPickerListenerEEC2Ei;2A.;__comp_ctor::(52,5):_ZN6MAUtil6VectorIPN8NativeUI20NumberPickerListenerEEC1Ei;2A.;__base_ctor::(52,7)=#(52,1),(0,6),(52,6),(52,8)=*(52,9)=k(52,3),(0,3),(0,6);:_ZN6MAUtil6VectorIPN8NativeUI20NumberPickerListenerEEC2EPKS3_i;2A.;__comp_ctor::(52,7):_ZN6MAUtil6VectorIPN8NativeUI20NumberPickerListenerEEC1EPKS3_i;2A.;__base_ctor::(52,10)=#(52,1),(0,6),(52,6),(52,11)=&(52,12)=k(52,1),(0,6);:_ZN6MAUtil6VectorIPN8NativeUI20NumberPickerListenerEEC2ERKS4_;2A.;__comp_ctor::(52,10):_ZN6MAUtil6VectorIPN8NativeUI20NumberPickerListenerEEC1ERKS4_;2A.;__base_dtor::(52,13)=#(52,1),(0,6),(52,6),(0,6);:_ZN6MAUtil6VectorIPN8NativeUI20NumberPickerListenerEED2Ev;2A.;__comp_dtor::(52,13):_ZN6MAUtil6VectorIPN8NativeUI20NumberPickerListenerEED1Ev;2A.;operator=::(52,14)=#(52,1),(52,15)=&(52,1),(52,6),(52,11),(0,6);:_ZN6MAUtil6VectorIPN8NativeUI20NumberPickerListenerEEaSERKS4_;2A.;add::(52,16)=#(52,1),(0,6),(52,6),(52,17)=&(52,9),(0,6);:_ZN6MAUtil6VectorIPN8NativeUI20NumberPickerListenerEE3addERKS3_;2A.(52,7):_ZN6MAUtil6VectorIPN8NativeUI20NumberPickerListenerEE3addEPKS3_i;2A.;remove::(52,18)=#(52,1),(0,6),(52,6),(52,2),(0,6);:_ZN6MAUtil6VectorIPN8NativeUI20NumberPickerListenerEE6removeEPS3_;2A.(52,19)=#(52,1),(0,6),(52,6),(0,3),(0,6);:_ZN6MAUtil6VectorIPN8NativeUI20NumberPickerListenerEE6removeEi;2A.(52,20)=#(52,1),(0,6),(52,6),(0,3),(0,3),(0,6);:_ZN6MAUtil6VectorIPN8NativeUI20NumberPickerListenerEE6removeEii;2A.;insert::(52,21)=#(52,1),(0,6),(52,6),(0,3),(52,3),(0,6);:_ZN6MAUtil6VectorIPN8NativeUI20NumberPickerListenerEE6insertEiS3_;2A.;size::(52,22)=#(52,1),(0,3),(52,23)=*(52,12),(0,6);:_ZNK6MAUtil6VectorIPN8NativeUI20NumberPickerListenerEE4sizeEv;2B.;resize::(52,19):_ZN6MAUtil6VectorIPN8NativeUI20NumberPickerListenerEE6resizeEi;2A.;reserve::(52,19):_ZN6MAUtil6VectorIPN8NativeUI20NumberPickerListenerEE7reserveEi;2A.;clear::(52,13):_ZN6MAUtil6VectorIPN8NativeUI20NumberPickerListenerEE5clearEv;2A.;empty::(52,24)=#(52,1),(0,4),(52,23),(0,6);:_ZNK6MAUtil6VectorIPN8NativeUI20NumberPickerListenerEE5emptyEv;2B.;capacity::(52,22):_ZNK6MAUtil6VectorIPN8NativeUI20NumberPickerListenerEE8capacityEv;2B.;begin::(52,25)=#(52,1),(52,2),(52,6),(0,6);:_ZN6MAUtil6VectorIPN8NativeUI20NumberPickerListenerEE5beginEv;2A.;end::(52,25):_ZN6MAUtil6VectorIPN8NativeUI20NumberPickerListenerEE3endEv;2A.;begin::(52,26)=#(52,1),(52,8),(52,23),(0,6);:_ZNK6MAUtil6VectorIPN8NativeUI20NumberPickerListenerEE5beginEv;2B.;end::(52,26):_ZNK6MAUtil6VectorIPN8NativeUI20NumberPickerListenerEE3endEv;2B.;operator[]::(52,27)=#(52,1),(52,28)=&(52,3),(52,6),(0,3),(0,6);:_ZN6MAUtil6VectorIPN8NativeUI20NumberPickerListenerEEixEi;2A.(52,29)=#(52,1),(52,17),(52,23),(0,3),(0,6);:_ZNK6MAUtil6VectorIPN8NativeUI20NumberPickerListenerEEixEi;2B.;pointer::(52,26):_ZNK6MAUtil6VectorIPN8NativeUI20NumberPickerListenerEE7pointerEv;2B.(52,25):_ZN6MAUtil6VectorIPN8NativeUI20NumberPickerListenerEE7pointerEv;2A.;;",128,0,95,0
	.stabn	162,0,0,0
	.stabs	"/Applications/MoSync/include/NativeUI/NumberPickerListener.h",130,0,0,0
	.stabn	162,0,0,0
	.stabs	"/Applications/MoSync/include/NativeUI/PanoramaView.h",130,0,0,0
	.stabs	"/Applications/MoSync/include/NativeUI/Screen.h",130,0,0,0
	.stabs	"ActionBarMenuItemDisplayFlag:t(55,1)=eSHOW_IF_ROOM:1,SHOW_ALWAYS:2,SHOW_WITH_TEXT:4,SHOW_COLLAPSE_ACTION_VIEW:8,;",128,0,51,0
	.stabs	"Vector<NativeUI::ScreenListener*>:Tt(55,2)=s12mSize:/1(0,3),0,32;mCapacity:/1(0,3),32,32;mData:/1(55,3)=*(55,4)=*(55,5)=xsScreenListener:,64,32;__base_ctor::(55,6)=#(55,2),(0,6),(55,7)=*(55,2),(0,3),(0,6);:_ZN6MAUtil6VectorIPN8NativeUI14ScreenListenerEEC2Ei;2A.;__comp_ctor::(55,6):_ZN6MAUtil6VectorIPN8NativeUI14ScreenListenerEEC1Ei;2A.;__base_ctor::(55,8)=#(55,2),(0,6),(55,7),(55,9)=*(55,10)=k(55,4),(0,3),(0,6);:_ZN6MAUtil6VectorIPN8NativeUI14ScreenListenerEEC2EPKS3_i;2A.;__comp_ctor::(55,8):_ZN6MAUtil6VectorIPN8NativeUI14ScreenListenerEEC1EPKS3_i;2A.;__base_ctor::(55,11)=#(55,2),(0,6),(55,7),(55,12)=&(55,13)=k(55,2),(0,6);:_ZN6MAUtil6VectorIPN8NativeUI14ScreenListenerEEC2ERKS4_;2A.;__comp_ctor::(55,11):_ZN6MAUtil6VectorIPN8NativeUI14ScreenListenerEEC1ERKS4_;2A.;__base_dtor::(55,14)=#(55,2),(0,6),(55,7),(0,6);:_ZN6MAUtil6VectorIPN8NativeUI14ScreenListenerEED2Ev;2A.;__comp_dtor::(55,14):_ZN6MAUtil6VectorIPN8NativeUI14ScreenListenerEED1Ev;2A.;operator=::(55,15)=#(55,2),(55,16)=&(55,2),(55,7),(55,12),(0,6);:_ZN6MAUtil6VectorIPN8NativeUI14ScreenListenerEEaSERKS4_;2A.;add::(55,17)=#(55,2),(0,6),(55,7),(55,18)=&(55,10),(0,6);:_ZN6MAUtil6VectorIPN8NativeUI14ScreenListenerEE3addERKS3_;2A.(55,8):_ZN6MAUtil6VectorIPN8NativeUI14ScreenListenerEE3addEPKS3_i;2A.;remove::(55,19)=#(55,2),(0,6),(55,7),(55,3),(0,6);:_ZN6MAUtil6VectorIPN8NativeUI14ScreenListenerEE6removeEPS3_;2A.(55,20)=#(55,2),(0,6),(55,7),(0,3),(0,6);:_ZN6MAUtil6VectorIPN8NativeUI14ScreenListenerEE6removeEi;2A.(55,21)=#(55,2),(0,6),(55,7),(0,3),(0,3),(0,6);:_ZN6MAUtil6VectorIPN8NativeUI14ScreenListenerEE6removeEii;2A.;insert::(55,22)=#(55,2),(0,6),(55,7),(0,3),(55,4),(0,6);:_ZN6MAUtil6VectorIPN8NativeUI14ScreenListenerEE6insertEiS3_;2A.;size::(55,23)=#(55,2),(0,3),(55,24)=*(55,13),(0,6);:_ZNK6MAUtil6VectorIPN8NativeUI14ScreenListenerEE4sizeEv;2B.;resize::(55,20):_ZN6MAUtil6VectorIPN8NativeUI14ScreenListenerEE6resizeEi;2A.;reserve::(55,20):_ZN6MAUtil6VectorIPN8NativeUI14ScreenListenerEE7reserveEi;2A.;clear::(55,14):_ZN6MAUtil6VectorIPN8NativeUI14ScreenListenerEE5clearEv;2A.;empty::(55,25)=#(55,2),(0,4),(55,24),(0,6);:_ZNK6MAUtil6VectorIPN8NativeUI14ScreenListenerEE5emptyEv;2B.;capacity::(55,23):_ZNK6MAUtil6VectorIPN8NativeUI14ScreenListenerEE8capacityEv;2B.;begin::(55,26)=#(55,2),(55,3),(55,7),(0,6);:_ZN6MAUtil6VectorIPN8NativeUI14ScreenListenerEE5beginEv;2A.;end::(55,26):_ZN6MAUtil6VectorIPN8NativeUI14ScreenListenerEE3endEv;2A.;begin::(55,27)=#(55,2),(55,9),(55,24),(0,6);:_ZNK6MAUtil6VectorIPN8NativeUI14ScreenListenerEE5beginEv;2B.;end::(55,27):_ZNK6MAUtil6VectorIPN8NativeUI14ScreenListenerEE3endEv;2B.;operator[]::(55,28)=#(55,2),(55,29)=&(55,4),(55,7),(0,3),(0,6);:_ZN6MAUtil6VectorIPN8NativeUI14ScreenListenerEEixEi;2A.(55,30)=#(55,2),(55,18),(55,24),(0,3),(0,6);:_ZNK6MAUtil6VectorIPN8NativeUI14ScreenListenerEEixEi;2B.;pointer::(55,27):_ZNK6MAUtil6VectorIPN8NativeUI14ScreenListenerEE7pointerEv;2B.(55,26):_ZN6MAUtil6VectorIPN8NativeUI14ScreenListenerEE7pointerEv;2A.;;",128,0,95,0
	.stabn	162,0,0,0
	.stabn	162,0,0,0
	.stabs	"/Applications/MoSync/include/NativeUI/ProgressBar.h",130,0,0,0
	.stabn	162,0,0,0
	.stabs	"/Applications/MoSync/include/NativeUI/RadioButton.h",130,0,0,0
	.stabs	"Vector<NativeUI::RadioButtonListener*>:Tt(57,1)=s12mSize:/1(0,3),0,32;mCapacity:/1(0,3),32,32;mData:/1(57,2)=*(57,3)=*(57,4)=xsRadioButtonListener:,64,32;__base_ctor::(57,5)=#(57,1),(0,6),(57,6)=*(57,1),(0,3),(0,6);:_ZN6MAUtil6VectorIPN8NativeUI19RadioButtonListenerEEC2Ei;2A.;__comp_ctor::(57,5):_ZN6MAUtil6VectorIPN8NativeUI19RadioButtonListenerEEC1Ei;2A.;__base_ctor::(57,7)=#(57,1),(0,6),(57,6),(57,8)=*(57,9)=k(57,3),(0,3),(0,6);:_ZN6MAUtil6VectorIPN8NativeUI19RadioButtonListenerEEC2EPKS3_i;2A.;__comp_ctor::(57,7):_ZN6MAUtil6VectorIPN8NativeUI19RadioButtonListenerEEC1EPKS3_i;2A.;__base_ctor::(57,10)=#(57,1),(0,6),(57,6),(57,11)=&(57,12)=k(57,1),(0,6);:_ZN6MAUtil6VectorIPN8NativeUI19RadioButtonListenerEEC2ERKS4_;2A.;__comp_ctor::(57,10):_ZN6MAUtil6VectorIPN8NativeUI19RadioButtonListenerEEC1ERKS4_;2A.;__base_dtor::(57,13)=#(57,1),(0,6),(57,6),(0,6);:_ZN6MAUtil6VectorIPN8NativeUI19RadioButtonListenerEED2Ev;2A.;__comp_dtor::(57,13):_ZN6MAUtil6VectorIPN8NativeUI19RadioButtonListenerEED1Ev;2A.;operator=::(57,14)=#(57,1),(57,15)=&(57,1),(57,6),(57,11),(0,6);:_ZN6MAUtil6VectorIPN8NativeUI19RadioButtonListenerEEaSERKS4_;2A.;add::(57,16)=#(57,1),(0,6),(57,6),(57,17)=&(57,9),(0,6);:_ZN6MAUtil6VectorIPN8NativeUI19RadioButtonListenerEE3addERKS3_;2A.(57,7):_ZN6MAUtil6VectorIPN8NativeUI19RadioButtonListenerEE3addEPKS3_i;2A.;remove::(57,18)=#(57,1),(0,6),(57,6),(57,2),(0,6);:_ZN6MAUtil6VectorIPN8NativeUI19RadioButtonListenerEE6removeEPS3_;2A.(57,19)=#(57,1),(0,6),(57,6),(0,3),(0,6);:_ZN6MAUtil6VectorIPN8NativeUI19RadioButtonListenerEE6removeEi;2A.(57,20)=#(57,1),(0,6),(57,6),(0,3),(0,3),(0,6);:_ZN6MAUtil6VectorIPN8NativeUI19RadioButtonListenerEE6removeEii;2A.;insert::(57,21)=#(57,1),(0,6),(57,6),(0,3),(57,3),(0,6);:_ZN6MAUtil6VectorIPN8NativeUI19RadioButtonListenerEE6insertEiS3_;2A.;size::(57,22)=#(57,1),(0,3),(57,23)=*(57,12),(0,6);:_ZNK6MAUtil6VectorIPN8NativeUI19RadioButtonListenerEE4sizeEv;2B.;resize::(57,19):_ZN6MAUtil6VectorIPN8NativeUI19RadioButtonListenerEE6resizeEi;2A.;reserve::(57,19):_ZN6MAUtil6VectorIPN8NativeUI19RadioButtonListenerEE7reserveEi;2A.;clear::(57,13):_ZN6MAUtil6VectorIPN8NativeUI19RadioButtonListenerEE5clearEv;2A.;empty::(57,24)=#(57,1),(0,4),(57,23),(0,6);:_ZNK6MAUtil6VectorIPN8NativeUI19RadioButtonListenerEE5emptyEv;2B.;capacity::(57,22):_ZNK6MAUtil6VectorIPN8NativeUI19RadioButtonListenerEE8capacityEv;2B.;begin::(57,25)=#(57,1),(57,2),(57,6),(0,6);:_ZN6MAUtil6VectorIPN8NativeUI19RadioButtonListenerEE5beginEv;2A.;end::(57,25):_ZN6MAUtil6VectorIPN8NativeUI19RadioButtonListenerEE3endEv;2A.;begin::(57,26)=#(57,1),(57,8),(57,23),(0,6);:_ZNK6MAUtil6VectorIPN8NativeUI19RadioButtonListenerEE5beginEv;2B.;end::(57,26):_ZNK6MAUtil6VectorIPN8NativeUI19RadioButtonListenerEE3endEv;2B.;operator[]::(57,27)=#(57,1),(57,28)=&(57,3),(57,6),(0,3),(0,6);:_ZN6MAUtil6VectorIPN8NativeUI19RadioButtonListenerEEixEi;2A.(57,29)=#(57,1),(57,17),(57,23),(0,3),(0,6);:_ZNK6MAUtil6VectorIPN8NativeUI19RadioButtonListenerEEixEi;2B.;pointer::(57,26):_ZNK6MAUtil6VectorIPN8NativeUI19RadioButtonListenerEE7pointerEv;2B.(57,25):_ZN6MAUtil6VectorIPN8NativeUI19RadioButtonListenerEE7pointerEv;2A.;;",128,0,95,0
	.stabn	162,0,0,0
	.stabs	"/Applications/MoSync/include/NativeUI/RadioButtonListener.h",130,0,0,0
	.stabn	162,0,0,0
	.stabs	"/Applications/MoSync/include/NativeUI/RadioGroup.h",130,0,0,0
	.stabs	"Vector<NativeUI::RadioGroupListener*>:Tt(59,1)=s12mSize:/1(0,3),0,32;mCapacity:/1(0,3),32,32;mData:/1(59,2)=*(59,3)=*(59,4)=xsRadioGroupListener:,64,32;__base_ctor::(59,5)=#(59,1),(0,6),(59,6)=*(59,1),(0,3),(0,6);:_ZN6MAUtil6VectorIPN8NativeUI18RadioGroupListenerEEC2Ei;2A.;__comp_ctor::(59,5):_ZN6MAUtil6VectorIPN8NativeUI18RadioGroupListenerEEC1Ei;2A.;__base_ctor::(59,7)=#(59,1),(0,6),(59,6),(59,8)=*(59,9)=k(59,3),(0,3),(0,6);:_ZN6MAUtil6VectorIPN8NativeUI18RadioGroupListenerEEC2EPKS3_i;2A.;__comp_ctor::(59,7):_ZN6MAUtil6VectorIPN8NativeUI18RadioGroupListenerEEC1EPKS3_i;2A.;__base_ctor::(59,10)=#(59,1),(0,6),(59,6),(59,11)=&(59,12)=k(59,1),(0,6);:_ZN6MAUtil6VectorIPN8NativeUI18RadioGroupListenerEEC2ERKS4_;2A.;__comp_ctor::(59,10):_ZN6MAUtil6VectorIPN8NativeUI18RadioGroupListenerEEC1ERKS4_;2A.;__base_dtor::(59,13)=#(59,1),(0,6),(59,6),(0,6);:_ZN6MAUtil6VectorIPN8NativeUI18RadioGroupListenerEED2Ev;2A.;__comp_dtor::(59,13):_ZN6MAUtil6VectorIPN8NativeUI18RadioGroupListenerEED1Ev;2A.;operator=::(59,14)=#(59,1),(59,15)=&(59,1),(59,6),(59,11),(0,6);:_ZN6MAUtil6VectorIPN8NativeUI18RadioGroupListenerEEaSERKS4_;2A.;add::(59,16)=#(59,1),(0,6),(59,6),(59,17)=&(59,9),(0,6);:_ZN6MAUtil6VectorIPN8NativeUI18RadioGroupListenerEE3addERKS3_;2A.(59,7):_ZN6MAUtil6VectorIPN8NativeUI18RadioGroupListenerEE3addEPKS3_i;2A.;remove::(59,18)=#(59,1),(0,6),(59,6),(59,2),(0,6);:_ZN6MAUtil6VectorIPN8NativeUI18RadioGroupListenerEE6removeEPS3_;2A.(59,19)=#(59,1),(0,6),(59,6),(0,3),(0,6);:_ZN6MAUtil6VectorIPN8NativeUI18RadioGroupListenerEE6removeEi;2A.(59,20)=#(59,1),(0,6),(59,6),(0,3),(0,3),(0,6);:_ZN6MAUtil6VectorIPN8NativeUI18RadioGroupListenerEE6removeEii;2A.;insert::(59,21)=#(59,1),(0,6),(59,6),(0,3),(59,3),(0,6);:_ZN6MAUtil6VectorIPN8NativeUI18RadioGroupListenerEE6insertEiS3_;2A.;size::(59,22)=#(59,1),(0,3),(59,23)=*(59,12),(0,6);:_ZNK6MAUtil6VectorIPN8NativeUI18RadioGroupListenerEE4sizeEv;2B.;resize::(59,19):_ZN6MAUtil6VectorIPN8NativeUI18RadioGroupListenerEE6resizeEi;2A.;reserve::(59,19):_ZN6MAUtil6VectorIPN8NativeUI18RadioGroupListenerEE7reserveEi;2A.;clear::(59,13):_ZN6MAUtil6VectorIPN8NativeUI18RadioGroupListenerEE5clearEv;2A.;empty::(59,24)=#(59,1),(0,4),(59,23),(0,6);:_ZNK6MAUtil6VectorIPN8NativeUI18RadioGroupListenerEE5emptyEv;2B.;capacity::(59,22):_ZNK6MAUtil6VectorIPN8NativeUI18RadioGroupListenerEE8capacityEv;2B.;begin::(59,25)=#(59,1),(59,2),(59,6),(0,6);:_ZN6MAUtil6VectorIPN8NativeUI18RadioGroupListenerEE5beginEv;2A.;end::(59,25):_ZN6MAUtil6VectorIPN8NativeUI18RadioGroupListenerEE3endEv;2A.;begin::(59,26)=#(59,1),(59,8),(59,23),(0,6);:_ZNK6MAUtil6VectorIPN8NativeUI18RadioGroupListenerEE5beginEv;2B.;end::(59,26):_ZNK6MAUtil6VectorIPN8NativeUI18RadioGroupListenerEE3endEv;2B.;operator[]::(59,27)=#(59,1),(59,28)=&(59,3),(59,6),(0,3),(0,6);:_ZN6MAUtil6VectorIPN8NativeUI18RadioGroupListenerEEixEi;2A.(59,29)=#(59,1),(59,17),(59,23),(0,3),(0,6);:_ZNK6MAUtil6VectorIPN8NativeUI18RadioGroupListenerEEixEi;2B.;pointer::(59,26):_ZNK6MAUtil6VectorIPN8NativeUI18RadioGroupListenerEE7pointerEv;2B.(59,25):_ZN6MAUtil6VectorIPN8NativeUI18RadioGroupListenerEE7pointerEv;2A.;;",128,0,95,0
	.stabs	"Vector<NativeUI::RadioButton*>:Tt(59,30)=s12mSize:/1(0,3),0,32;mCapacity:/1(0,3),32,32;mData:/1(59,31)=*(59,32)=*(59,33)=xsRadioButton:,64,32;__base_ctor::(59,34)=#(59,30),(0,6),(59,35)=*(59,30),(0,3),(0,6);:_ZN6MAUtil6VectorIPN8NativeUI11RadioButtonEEC2Ei;2A.;__comp_ctor::(59,34):_ZN6MAUtil6VectorIPN8NativeUI11RadioButtonEEC1Ei;2A.;__base_ctor::(59,36)=#(59,30),(0,6),(59,35),(59,37)=*(59,38)=k(59,32),(0,3),(0,6);:_ZN6MAUtil6VectorIPN8NativeUI11RadioButtonEEC2EPKS3_i;2A.;__comp_ctor::(59,36):_ZN6MAUtil6VectorIPN8NativeUI11RadioButtonEEC1EPKS3_i;2A.;__base_ctor::(59,39)=#(59,30),(0,6),(59,35),(59,40)=&(59,41)=k(59,30),(0,6);:_ZN6MAUtil6VectorIPN8NativeUI11RadioButtonEEC2ERKS4_;2A.;__comp_ctor::(59,39):_ZN6MAUtil6VectorIPN8NativeUI11RadioButtonEEC1ERKS4_;2A.;__base_dtor::(59,42)=#(59,30),(0,6),(59,35),(0,6);:_ZN6MAUtil6VectorIPN8NativeUI11RadioButtonEED2Ev;2A.;__comp_dtor::(59,42):_ZN6MAUtil6VectorIPN8NativeUI11RadioButtonEED1Ev;2A.;operator=::(59,43)=#(59,30),(59,44)=&(59,30),(59,35),(59,40),(0,6);:_ZN6MAUtil6VectorIPN8NativeUI11RadioButtonEEaSERKS4_;2A.;add::(59,45)=#(59,30),(0,6),(59,35),(59,46)=&(59,38),(0,6);:_ZN6MAUtil6VectorIPN8NativeUI11RadioButtonEE3addERKS3_;2A.(59,36):_ZN6MAUtil6VectorIPN8NativeUI11RadioButtonEE3addEPKS3_i;2A.;remove::(59,47)=#(59,30),(0,6),(59,35),(59,31),(0,6);:_ZN6MAUtil6VectorIPN8NativeUI11RadioButtonEE6removeEPS3_;2A.(59,48)=#(59,30),(0,6),(59,35),(0,3),(0,6);:_ZN6MAUtil6VectorIPN8NativeUI11RadioButtonEE6removeEi;2A.(59,49)=#(59,30),(0,6),(59,35),(0,3),(0,3),(0,6);:_ZN6MAUtil6VectorIPN8NativeUI11RadioButtonEE6removeEii;2A.;insert::(59,50)=#(59,30),(0,6),(59,35),(0,3),(59,32),(0,6);:_ZN6MAUtil6VectorIPN8NativeUI11RadioButtonEE6insertEiS3_;2A.;size::(59,51)=#(59,30),(0,3),(59,52)=*(59,41),(0,6);:_ZNK6MAUtil6VectorIPN8NativeUI11RadioButtonEE4sizeEv;2B.;resize::(59,48):_ZN6MAUtil6VectorIPN8NativeUI11RadioButtonEE6resizeEi;2A.;reserve::(59,48):_ZN6MAUtil6VectorIPN8NativeUI11RadioButtonEE7reserveEi;2A.;clear::(59,42):_ZN6MAUtil6VectorIPN8NativeUI11RadioButtonEE5clearEv;2A.;empty::(59,53)=#(59,30),(0,4),(59,52),(0,6);:_ZNK6MAUtil6VectorIPN8NativeUI11RadioButtonEE5emptyEv;2B.;capacity::(59,51):_ZNK6MAUtil6VectorIPN8NativeUI11RadioButtonEE8capacityEv;2B.;begin::(59,54)=#(59,30),(59,31),(59,35),(0,6);:_ZN6MAUtil6VectorIPN8NativeUI11RadioButtonEE5beginEv;2A.;end::(59,54):_ZN6MAUtil6VectorIPN8NativeUI11RadioButtonEE3endEv;2A.;begin::(59,55)=#(59,30),(59,37),(59,52),(0,6);:_ZNK6MAUtil6VectorIPN8NativeUI11RadioButtonEE5beginEv;2B.;end::(59,55):_ZNK6MAUtil6VectorIPN8NativeUI11RadioButtonEE3endEv;2B.;operator[]::(59,56)=#(59,30),(59,57)=&(59,32),(59,35),(0,3),(0,6);:_ZN6MAUtil6VectorIPN8NativeUI11RadioButtonEEixEi;2A.(59,58)=#(59,30),(59,46),(59,52),(0,3),(0,6);:_ZNK6MAUtil6VectorIPN8NativeUI11RadioButtonEEixEi;2B.;pointer::(59,55):_ZNK6MAUtil6VectorIPN8NativeUI11RadioButtonEE7pointerEv;2B.(59,54):_ZN6MAUtil6VectorIPN8NativeUI11RadioButtonEE7pointerEv;2A.;;",128,0,95,0
	.stabn	162,0,0,0
	.stabs	"/Applications/MoSync/include/NativeUI/RadioGroupListener.h",130,0,0,0
	.stabn	162,0,0,0
	.stabs	"/Applications/MoSync/include/NativeUI/RatingBar.h",130,0,0,0
	.stabs	"Vector<NativeUI::RatingBarListener*>:Tt(61,1)=s12mSize:/1(0,3),0,32;mCapacity:/1(0,3),32,32;mData:/1(61,2)=*(61,3)=*(61,4)=xsRatingBarListener:,64,32;__base_ctor::(61,5)=#(61,1),(0,6),(61,6)=*(61,1),(0,3),(0,6);:_ZN6MAUtil6VectorIPN8NativeUI17RatingBarListenerEEC2Ei;2A.;__comp_ctor::(61,5):_ZN6MAUtil6VectorIPN8NativeUI17RatingBarListenerEEC1Ei;2A.;__base_ctor::(61,7)=#(61,1),(0,6),(61,6),(61,8)=*(61,9)=k(61,3),(0,3),(0,6);:_ZN6MAUtil6VectorIPN8NativeUI17RatingBarListenerEEC2EPKS3_i;2A.;__comp_ctor::(61,7):_ZN6MAUtil6VectorIPN8NativeUI17RatingBarListenerEEC1EPKS3_i;2A.;__base_ctor::(61,10)=#(61,1),(0,6),(61,6),(61,11)=&(61,12)=k(61,1),(0,6);:_ZN6MAUtil6VectorIPN8NativeUI17RatingBarListenerEEC2ERKS4_;2A.;__comp_ctor::(61,10):_ZN6MAUtil6VectorIPN8NativeUI17RatingBarListenerEEC1ERKS4_;2A.;__base_dtor::(61,13)=#(61,1),(0,6),(61,6),(0,6);:_ZN6MAUtil6VectorIPN8NativeUI17RatingBarListenerEED2Ev;2A.;__comp_dtor::(61,13):_ZN6MAUtil6VectorIPN8NativeUI17RatingBarListenerEED1Ev;2A.;operator=::(61,14)=#(61,1),(61,15)=&(61,1),(61,6),(61,11),(0,6);:_ZN6MAUtil6VectorIPN8NativeUI17RatingBarListenerEEaSERKS4_;2A.;add::(61,16)=#(61,1),(0,6),(61,6),(61,17)=&(61,9),(0,6);:_ZN6MAUtil6VectorIPN8NativeUI17RatingBarListenerEE3addERKS3_;2A.(61,7):_ZN6MAUtil6VectorIPN8NativeUI17RatingBarListenerEE3addEPKS3_i;2A.;remove::(61,18)=#(61,1),(0,6),(61,6),(61,2),(0,6);:_ZN6MAUtil6VectorIPN8NativeUI17RatingBarListenerEE6removeEPS3_;2A.(61,19)=#(61,1),(0,6),(61,6),(0,3),(0,6);:_ZN6MAUtil6VectorIPN8NativeUI17RatingBarListenerEE6removeEi;2A.(61,20)=#(61,1),(0,6),(61,6),(0,3),(0,3),(0,6);:_ZN6MAUtil6VectorIPN8NativeUI17RatingBarListenerEE6removeEii;2A.;insert::(61,21)=#(61,1),(0,6),(61,6),(0,3),(61,3),(0,6);:_ZN6MAUtil6VectorIPN8NativeUI17RatingBarListenerEE6insertEiS3_;2A.;size::(61,22)=#(61,1),(0,3),(61,23)=*(61,12),(0,6);:_ZNK6MAUtil6VectorIPN8NativeUI17RatingBarListenerEE4sizeEv;2B.;resize::(61,19):_ZN6MAUtil6VectorIPN8NativeUI17RatingBarListenerEE6resizeEi;2A.;reserve::(61,19):_ZN6MAUtil6VectorIPN8NativeUI17RatingBarListenerEE7reserveEi;2A.;clear::(61,13):_ZN6MAUtil6VectorIPN8NativeUI17RatingBarListenerEE5clearEv;2A.;empty::(61,24)=#(61,1),(0,4),(61,23),(0,6);:_ZNK6MAUtil6VectorIPN8NativeUI17RatingBarListenerEE5emptyEv;2B.;capacity::(61,22):_ZNK6MAUtil6VectorIPN8NativeUI17RatingBarListenerEE8capacityEv;2B.;begin::(61,25)=#(61,1),(61,2),(61,6),(0,6);:_ZN6MAUtil6VectorIPN8NativeUI17RatingBarListenerEE5beginEv;2A.;end::(61,25):_ZN6MAUtil6VectorIPN8NativeUI17RatingBarListenerEE3endEv;2A.;begin::(61,26)=#(61,1),(61,8),(61,23),(0,6);:_ZNK6MAUtil6VectorIPN8NativeUI17RatingBarListenerEE5beginEv;2B.;end::(61,26):_ZNK6MAUtil6VectorIPN8NativeUI17RatingBarListenerEE3endEv;2B.;operator[]::(61,27)=#(61,1),(61,28)=&(61,3),(61,6),(0,3),(0,6);:_ZN6MAUtil6VectorIPN8NativeUI17RatingBarListenerEEixEi;2A.(61,29)=#(61,1),(61,17),(61,23),(0,3),(0,6);:_ZNK6MAUtil6VectorIPN8NativeUI17RatingBarListenerEEixEi;2B.;pointer::(61,26):_ZNK6MAUtil6VectorIPN8NativeUI17RatingBarListenerEE7pointerEv;2B.(61,25):_ZN6MAUtil6VectorIPN8NativeUI17RatingBarListenerEE7pointerEv;2A.;;",128,0,95,0
	.stabn	162,0,0,0
	.stabs	"/Applications/MoSync/include/NativeUI/RatingBarListener.h",130,0,0,0
	.stabn	162,0,0,0
	.stabs	"/Applications/MoSync/include/NativeUI/RelativeLayout.h",130,0,0,0
	.stabn	162,0,0,0
	.stabs	"/Applications/MoSync/include/NativeUI/ScreenListener.h",130,0,0,0
	.stabn	162,0,0,0
	.stabs	"/Applications/MoSync/include/NativeUI/SearchBar.h",130,0,0,0
	.stabs	"Vector<NativeUI::SearchBarListener*>:Tt(65,1)=s12mSize:/1(0,3),0,32;mCapacity:/1(0,3),32,32;mData:/1(65,2)=*(65,3)=*(65,4)=xsSearchBarListener:,64,32;__base_ctor::(65,5)=#(65,1),(0,6),(65,6)=*(65,1),(0,3),(0,6);:_ZN6MAUtil6VectorIPN8NativeUI17SearchBarListenerEEC2Ei;2A.;__comp_ctor::(65,5):_ZN6MAUtil6VectorIPN8NativeUI17SearchBarListenerEEC1Ei;2A.;__base_ctor::(65,7)=#(65,1),(0,6),(65,6),(65,8)=*(65,9)=k(65,3),(0,3),(0,6);:_ZN6MAUtil6VectorIPN8NativeUI17SearchBarListenerEEC2EPKS3_i;2A.;__comp_ctor::(65,7):_ZN6MAUtil6VectorIPN8NativeUI17SearchBarListenerEEC1EPKS3_i;2A.;__base_ctor::(65,10)=#(65,1),(0,6),(65,6),(65,11)=&(65,12)=k(65,1),(0,6);:_ZN6MAUtil6VectorIPN8NativeUI17SearchBarListenerEEC2ERKS4_;2A.;__comp_ctor::(65,10):_ZN6MAUtil6VectorIPN8NativeUI17SearchBarListenerEEC1ERKS4_;2A.;__base_dtor::(65,13)=#(65,1),(0,6),(65,6),(0,6);:_ZN6MAUtil6VectorIPN8NativeUI17SearchBarListenerEED2Ev;2A.;__comp_dtor::(65,13):_ZN6MAUtil6VectorIPN8NativeUI17SearchBarListenerEED1Ev;2A.;operator=::(65,14)=#(65,1),(65,15)=&(65,1),(65,6),(65,11),(0,6);:_ZN6MAUtil6VectorIPN8NativeUI17SearchBarListenerEEaSERKS4_;2A.;add::(65,16)=#(65,1),(0,6),(65,6),(65,17)=&(65,9),(0,6);:_ZN6MAUtil6VectorIPN8NativeUI17SearchBarListenerEE3addERKS3_;2A.(65,7):_ZN6MAUtil6VectorIPN8NativeUI17SearchBarListenerEE3addEPKS3_i;2A.;remove::(65,18)=#(65,1),(0,6),(65,6),(65,2),(0,6);:_ZN6MAUtil6VectorIPN8NativeUI17SearchBarListenerEE6removeEPS3_;2A.(65,19)=#(65,1),(0,6),(65,6),(0,3),(0,6);:_ZN6MAUtil6VectorIPN8NativeUI17SearchBarListenerEE6removeEi;2A.(65,20)=#(65,1),(0,6),(65,6),(0,3),(0,3),(0,6);:_ZN6MAUtil6VectorIPN8NativeUI17SearchBarListenerEE6removeEii;2A.;insert::(65,21)=#(65,1),(0,6),(65,6),(0,3),(65,3),(0,6);:_ZN6MAUtil6VectorIPN8NativeUI17SearchBarListenerEE6insertEiS3_;2A.;size::(65,22)=#(65,1),(0,3),(65,23)=*(65,12),(0,6);:_ZNK6MAUtil6VectorIPN8NativeUI17SearchBarListenerEE4sizeEv;2B.;resize::(65,19):_ZN6MAUtil6VectorIPN8NativeUI17SearchBarListenerEE6resizeEi;2A.;reserve::(65,19):_ZN6MAUtil6VectorIPN8NativeUI17SearchBarListenerEE7reserveEi;2A.;clear::(65,13):_ZN6MAUtil6VectorIPN8NativeUI17SearchBarListenerEE5clearEv;2A.;empty::(65,24)=#(65,1),(0,4),(65,23),(0,6);:_ZNK6MAUtil6VectorIPN8NativeUI17SearchBarListenerEE5emptyEv;2B.;capacity::(65,22):_ZNK6MAUtil6VectorIPN8NativeUI17SearchBarListenerEE8capacityEv;2B.;begin::(65,25)=#(65,1),(65,2),(65,6),(0,6);:_ZN6MAUtil6VectorIPN8NativeUI17SearchBarListenerEE5beginEv;2A.;end::(65,25):_ZN6MAUtil6VectorIPN8NativeUI17SearchBarListenerEE3endEv;2A.;begin::(65,26)=#(65,1),(65,8),(65,23),(0,6);:_ZNK6MAUtil6VectorIPN8NativeUI17SearchBarListenerEE5beginEv;2B.;end::(65,26):_ZNK6MAUtil6VectorIPN8NativeUI17SearchBarListenerEE3endEv;2B.;operator[]::(65,27)=#(65,1),(65,28)=&(65,3),(65,6),(0,3),(0,6);:_ZN6MAUtil6VectorIPN8NativeUI17SearchBarListenerEEixEi;2A.(65,29)=#(65,1),(65,17),(65,23),(0,3),(0,6);:_ZNK6MAUtil6VectorIPN8NativeUI17SearchBarListenerEEixEi;2B.;pointer::(65,26):_ZNK6MAUtil6VectorIPN8NativeUI17SearchBarListenerEE7pointerEv;2B.(65,25):_ZN6MAUtil6VectorIPN8NativeUI17SearchBarListenerEE7pointerEv;2A.;;",128,0,95,0
	.stabn	162,0,0,0
	.stabs	"/Applications/MoSync/include/NativeUI/SearchBarListener.h",130,0,0,0
	.stabn	162,0,0,0
	.stabs	"/Applications/MoSync/include/NativeUI/Slider.h",130,0,0,0
	.stabs	"Vector<NativeUI::SliderListener*>:Tt(67,1)=s12mSize:/1(0,3),0,32;mCapacity:/1(0,3),32,32;mData:/1(67,2)=*(67,3)=*(67,4)=xsSliderListener:,64,32;__base_ctor::(67,5)=#(67,1),(0,6),(67,6)=*(67,1),(0,3),(0,6);:_ZN6MAUtil6VectorIPN8NativeUI14SliderListenerEEC2Ei;2A.;__comp_ctor::(67,5):_ZN6MAUtil6VectorIPN8NativeUI14SliderListenerEEC1Ei;2A.;__base_ctor::(67,7)=#(67,1),(0,6),(67,6),(67,8)=*(67,9)=k(67,3),(0,3),(0,6);:_ZN6MAUtil6VectorIPN8NativeUI14SliderListenerEEC2EPKS3_i;2A.;__comp_ctor::(67,7):_ZN6MAUtil6VectorIPN8NativeUI14SliderListenerEEC1EPKS3_i;2A.;__base_ctor::(67,10)=#(67,1),(0,6),(67,6),(67,11)=&(67,12)=k(67,1),(0,6);:_ZN6MAUtil6VectorIPN8NativeUI14SliderListenerEEC2ERKS4_;2A.;__comp_ctor::(67,10):_ZN6MAUtil6VectorIPN8NativeUI14SliderListenerEEC1ERKS4_;2A.;__base_dtor::(67,13)=#(67,1),(0,6),(67,6),(0,6);:_ZN6MAUtil6VectorIPN8NativeUI14SliderListenerEED2Ev;2A.;__comp_dtor::(67,13):_ZN6MAUtil6VectorIPN8NativeUI14SliderListenerEED1Ev;2A.;operator=::(67,14)=#(67,1),(67,15)=&(67,1),(67,6),(67,11),(0,6);:_ZN6MAUtil6VectorIPN8NativeUI14SliderListenerEEaSERKS4_;2A.;add::(67,16)=#(67,1),(0,6),(67,6),(67,17)=&(67,9),(0,6);:_ZN6MAUtil6VectorIPN8NativeUI14SliderListenerEE3addERKS3_;2A.(67,7):_ZN6MAUtil6VectorIPN8NativeUI14SliderListenerEE3addEPKS3_i;2A.;remove::(67,18)=#(67,1),(0,6),(67,6),(67,2),(0,6);:_ZN6MAUtil6VectorIPN8NativeUI14SliderListenerEE6removeEPS3_;2A.(67,19)=#(67,1),(0,6),(67,6),(0,3),(0,6);:_ZN6MAUtil6VectorIPN8NativeUI14SliderListenerEE6removeEi;2A.(67,20)=#(67,1),(0,6),(67,6),(0,3),(0,3),(0,6);:_ZN6MAUtil6VectorIPN8NativeUI14SliderListenerEE6removeEii;2A.;insert::(67,21)=#(67,1),(0,6),(67,6),(0,3),(67,3),(0,6);:_ZN6MAUtil6VectorIPN8NativeUI14SliderListenerEE6insertEiS3_;2A.;size::(67,22)=#(67,1),(0,3),(67,23)=*(67,12),(0,6);:_ZNK6MAUtil6VectorIPN8NativeUI14SliderListenerEE4sizeEv;2B.;resize::(67,19):_ZN6MAUtil6VectorIPN8NativeUI14SliderListenerEE6resizeEi;2A.;reserve::(67,19):_ZN6MAUtil6VectorIPN8NativeUI14SliderListenerEE7reserveEi;2A.;clear::(67,13):_ZN6MAUtil6VectorIPN8NativeUI14SliderListenerEE5clearEv;2A.;empty::(67,24)=#(67,1),(0,4),(67,23),(0,6);:_ZNK6MAUtil6VectorIPN8NativeUI14SliderListenerEE5emptyEv;2B.;capacity::(67,22):_ZNK6MAUtil6VectorIPN8NativeUI14SliderListenerEE8capacityEv;2B.;begin::(67,25)=#(67,1),(67,2),(67,6),(0,6);:_ZN6MAUtil6VectorIPN8NativeUI14SliderListenerEE5beginEv;2A.;end::(67,25):_ZN6MAUtil6VectorIPN8NativeUI14SliderListenerEE3endEv;2A.;begin::(67,26)=#(67,1),(67,8),(67,23),(0,6);:_ZNK6MAUtil6VectorIPN8NativeUI14SliderListenerEE5beginEv;2B.;end::(67,26):_ZNK6MAUtil6VectorIPN8NativeUI14SliderListenerEE3endEv;2B.;operator[]::(67,27)=#(67,1),(67,28)=&(67,3),(67,6),(0,3),(0,6);:_ZN6MAUtil6VectorIPN8NativeUI14SliderListenerEEixEi;2A.(67,29)=#(67,1),(67,17),(67,23),(0,3),(0,6);:_ZNK6MAUtil6VectorIPN8NativeUI14SliderListenerEEixEi;2B.;pointer::(67,26):_ZNK6MAUtil6VectorIPN8NativeUI14SliderListenerEE7pointerEv;2B.(67,25):_ZN6MAUtil6VectorIPN8NativeUI14SliderListenerEE7pointerEv;2A.;;",128,0,95,0
	.stabn	162,0,0,0
	.stabs	"/Applications/MoSync/include/NativeUI/SliderListener.h",130,0,0,0
	.stabn	162,0,0,0
	.stabs	"/Applications/MoSync/include/NativeUI/StackScreen.h",130,0,0,0
	.stabs	"Vector<NativeUI::StackScreenListener*>:Tt(69,1)=s12mSize:/1(0,3),0,32;mCapacity:/1(0,3),32,32;mData:/1(69,2)=*(69,3)=*(69,4)=xsStackScreenListener:,64,32;__base_ctor::(69,5)=#(69,1),(0,6),(69,6)=*(69,1),(0,3),(0,6);:_ZN6MAUtil6VectorIPN8NativeUI19StackScreenListenerEEC2Ei;2A.;__comp_ctor::(69,5):_ZN6MAUtil6VectorIPN8NativeUI19StackScreenListenerEEC1Ei;2A.;__base_ctor::(69,7)=#(69,1),(0,6),(69,6),(69,8)=*(69,9)=k(69,3),(0,3),(0,6);:_ZN6MAUtil6VectorIPN8NativeUI19StackScreenListenerEEC2EPKS3_i;2A.;__comp_ctor::(69,7):_ZN6MAUtil6VectorIPN8NativeUI19StackScreenListenerEEC1EPKS3_i;2A.;__base_ctor::(69,10)=#(69,1),(0,6),(69,6),(69,11)=&(69,12)=k(69,1),(0,6);:_ZN6MAUtil6VectorIPN8NativeUI19StackScreenListenerEEC2ERKS4_;2A.;__comp_ctor::(69,10):_ZN6MAUtil6VectorIPN8NativeUI19StackScreenListenerEEC1ERKS4_;2A.;__base_dtor::(69,13)=#(69,1),(0,6),(69,6),(0,6);:_ZN6MAUtil6VectorIPN8NativeUI19StackScreenListenerEED2Ev;2A.;__comp_dtor::(69,13):_ZN6MAUtil6VectorIPN8NativeUI19StackScreenListenerEED1Ev;2A.;operator=::(69,14)=#(69,1),(69,15)=&(69,1),(69,6),(69,11),(0,6);:_ZN6MAUtil6VectorIPN8NativeUI19StackScreenListenerEEaSERKS4_;2A.;add::(69,16)=#(69,1),(0,6),(69,6),(69,17)=&(69,9),(0,6);:_ZN6MAUtil6VectorIPN8NativeUI19StackScreenListenerEE3addERKS3_;2A.(69,7):_ZN6MAUtil6VectorIPN8NativeUI19StackScreenListenerEE3addEPKS3_i;2A.;remove::(69,18)=#(69,1),(0,6),(69,6),(69,2),(0,6);:_ZN6MAUtil6VectorIPN8NativeUI19StackScreenListenerEE6removeEPS3_;2A.(69,19)=#(69,1),(0,6),(69,6),(0,3),(0,6);:_ZN6MAUtil6VectorIPN8NativeUI19StackScreenListenerEE6removeEi;2A.(69,20)=#(69,1),(0,6),(69,6),(0,3),(0,3),(0,6);:_ZN6MAUtil6VectorIPN8NativeUI19StackScreenListenerEE6removeEii;2A.;insert::(69,21)=#(69,1),(0,6),(69,6),(0,3),(69,3),(0,6);:_ZN6MAUtil6VectorIPN8NativeUI19StackScreenListenerEE6insertEiS3_;2A.;size::(69,22)=#(69,1),(0,3),(69,23)=*(69,12),(0,6);:_ZNK6MAUtil6VectorIPN8NativeUI19StackScreenListenerEE4sizeEv;2B.;resize::(69,19):_ZN6MAUtil6VectorIPN8NativeUI19StackScreenListenerEE6resizeEi;2A.;reserve::(69,19):_ZN6MAUtil6VectorIPN8NativeUI19StackScreenListenerEE7reserveEi;2A.;clear::(69,13):_ZN6MAUtil6VectorIPN8NativeUI19StackScreenListenerEE5clearEv;2A.;empty::(69,24)=#(69,1),(0,4),(69,23),(0,6);:_ZNK6MAUtil6VectorIPN8NativeUI19StackScreenListenerEE5emptyEv;2B.;capacity::(69,22):_ZNK6MAUtil6VectorIPN8NativeUI19StackScreenListenerEE8capacityEv;2B.;begin::(69,25)=#(69,1),(69,2),(69,6),(0,6);:_ZN6MAUtil6VectorIPN8NativeUI19StackScreenListenerEE5beginEv;2A.;end::(69,25):_ZN6MAUtil6VectorIPN8NativeUI19StackScreenListenerEE3endEv;2A.;begin::(69,26)=#(69,1),(69,8),(69,23),(0,6);:_ZNK6MAUtil6VectorIPN8NativeUI19StackScreenListenerEE5beginEv;2B.;end::(69,26):_ZNK6MAUtil6VectorIPN8NativeUI19StackScreenListenerEE3endEv;2B.;operator[]::(69,27)=#(69,1),(69,28)=&(69,3),(69,6),(0,3),(0,6);:_ZN6MAUtil6VectorIPN8NativeUI19StackScreenListenerEEixEi;2A.(69,29)=#(69,1),(69,17),(69,23),(0,3),(0,6);:_ZNK6MAUtil6VectorIPN8NativeUI19StackScreenListenerEEixEi;2B.;pointer::(69,26):_ZNK6MAUtil6VectorIPN8NativeUI19StackScreenListenerEE7pointerEv;2B.(69,25):_ZN6MAUtil6VectorIPN8NativeUI19StackScreenListenerEE7pointerEv;2A.;;",128,0,95,0
	.stabs	"Vector<NativeUI::Screen*>:Tt(69,30)=s12mSize:/1(0,3),0,32;mCapacity:/1(0,3),32,32;mData:/1(69,31)=*(69,32)=*(69,33)=xsScreen:,64,32;__base_ctor::(69,34)=#(69,30),(0,6),(69,35)=*(69,30),(0,3),(0,6);:_ZN6MAUtil6VectorIPN8NativeUI6ScreenEEC2Ei;2A.;__comp_ctor::(69,34):_ZN6MAUtil6VectorIPN8NativeUI6ScreenEEC1Ei;2A.;__base_ctor::(69,36)=#(69,30),(0,6),(69,35),(69,37)=*(69,38)=k(69,32),(0,3),(0,6);:_ZN6MAUtil6VectorIPN8NativeUI6ScreenEEC2EPKS3_i;2A.;__comp_ctor::(69,36):_ZN6MAUtil6VectorIPN8NativeUI6ScreenEEC1EPKS3_i;2A.;__base_ctor::(69,39)=#(69,30),(0,6),(69,35),(69,40)=&(69,41)=k(69,30),(0,6);:_ZN6MAUtil6VectorIPN8NativeUI6ScreenEEC2ERKS4_;2A.;__comp_ctor::(69,39):_ZN6MAUtil6VectorIPN8NativeUI6ScreenEEC1ERKS4_;2A.;__base_dtor::(69,42)=#(69,30),(0,6),(69,35),(0,6);:_ZN6MAUtil6VectorIPN8NativeUI6ScreenEED2Ev;2A.;__comp_dtor::(69,42):_ZN6MAUtil6VectorIPN8NativeUI6ScreenEED1Ev;2A.;operator=::(69,43)=#(69,30),(69,44)=&(69,30),(69,35),(69,40),(0,6);:_ZN6MAUtil6VectorIPN8NativeUI6ScreenEEaSERKS4_;2A.;add::(69,45)=#(69,30),(0,6),(69,35),(69,46)=&(69,38),(0,6);:_ZN6MAUtil6VectorIPN8NativeUI6ScreenEE3addERKS3_;2A.(69,36):_ZN6MAUtil6VectorIPN8NativeUI6ScreenEE3addEPKS3_i;2A.;remove::(69,47)=#(69,30),(0,6),(69,35),(69,31),(0,6);:_ZN6MAUtil6VectorIPN8NativeUI6ScreenEE6removeEPS3_;2A.(69,48)=#(69,30),(0,6),(69,35),(0,3),(0,6);:_ZN6MAUtil6VectorIPN8NativeUI6ScreenEE6removeEi;2A.(69,49)=#(69,30),(0,6),(69,35),(0,3),(0,3),(0,6);:_ZN6MAUtil6VectorIPN8NativeUI6ScreenEE6removeEii;2A.;insert::(69,50)=#(69,30),(0,6),(69,35),(0,3),(69,32),(0,6);:_ZN6MAUtil6VectorIPN8NativeUI6ScreenEE6insertEiS3_;2A.;size::(69,51)=#(69,30),(0,3),(69,52)=*(69,41),(0,6);:_ZNK6MAUtil6VectorIPN8NativeUI6ScreenEE4sizeEv;2B.;resize::(69,48):_ZN6MAUtil6VectorIPN8NativeUI6ScreenEE6resizeEi;2A.;reserve::(69,48):_ZN6MAUtil6VectorIPN8NativeUI6ScreenEE7reserveEi;2A.;clear::(69,42):_ZN6MAUtil6VectorIPN8NativeUI6ScreenEE5clearEv;2A.;empty::(69,53)=#(69,30),(0,4),(69,52),(0,6);:_ZNK6MAUtil6VectorIPN8NativeUI6ScreenEE5emptyEv;2B.;capacity::(69,51):_ZNK6MAUtil6VectorIPN8NativeUI6ScreenEE8capacityEv;2B.;begin::(69,54)=#(69,30),(69,31),(69,35),(0,6);:_ZN6MAUtil6VectorIPN8NativeUI6ScreenEE5beginEv;2A.;end::(69,54):_ZN6MAUtil6VectorIPN8NativeUI6ScreenEE3endEv;2A.;begin::(69,55)=#(69,30),(69,37),(69,52),(0,6);:_ZNK6MAUtil6VectorIPN8NativeUI6ScreenEE5beginEv;2B.;end::(69,55):_ZNK6MAUtil6VectorIPN8NativeUI6ScreenEE3endEv;2B.;operator[]::(69,56)=#(69,30),(69,57)=&(69,32),(69,35),(0,3),(0,6);:_ZN6MAUtil6VectorIPN8NativeUI6ScreenEEixEi;2A.(69,58)=#(69,30),(69,46),(69,52),(0,3),(0,6);:_ZNK6MAUtil6VectorIPN8NativeUI6ScreenEEixEi;2B.;pointer::(69,55):_ZNK6MAUtil6VectorIPN8NativeUI6ScreenEE7pointerEv;2B.(69,54):_ZN6MAUtil6VectorIPN8NativeUI6ScreenEE7pointerEv;2A.;;",128,0,95,0
	.stabn	162,0,0,0
	.stabs	"/Applications/MoSync/include/NativeUI/StackScreenListener.h",130,0,0,0
	.stabn	162,0,0,0
	.stabs	"/Applications/MoSync/include/NativeUI/TabScreen.h",130,0,0,0
	.stabs	"Vector<NativeUI::TabScreenListener*>:Tt(71,1)=s12mSize:/1(0,3),0,32;mCapacity:/1(0,3),32,32;mData:/1(71,2)=*(71,3)=*(71,4)=xsTabScreenListener:,64,32;__base_ctor::(71,5)=#(71,1),(0,6),(71,6)=*(71,1),(0,3),(0,6);:_ZN6MAUtil6VectorIPN8NativeUI17TabScreenListenerEEC2Ei;2A.;__comp_ctor::(71,5):_ZN6MAUtil6VectorIPN8NativeUI17TabScreenListenerEEC1Ei;2A.;__base_ctor::(71,7)=#(71,1),(0,6),(71,6),(71,8)=*(71,9)=k(71,3),(0,3),(0,6);:_ZN6MAUtil6VectorIPN8NativeUI17TabScreenListenerEEC2EPKS3_i;2A.;__comp_ctor::(71,7):_ZN6MAUtil6VectorIPN8NativeUI17TabScreenListenerEEC1EPKS3_i;2A.;__base_ctor::(71,10)=#(71,1),(0,6),(71,6),(71,11)=&(71,12)=k(71,1),(0,6);:_ZN6MAUtil6VectorIPN8NativeUI17TabScreenListenerEEC2ERKS4_;2A.;__comp_ctor::(71,10):_ZN6MAUtil6VectorIPN8NativeUI17TabScreenListenerEEC1ERKS4_;2A.;__base_dtor::(71,13)=#(71,1),(0,6),(71,6),(0,6);:_ZN6MAUtil6VectorIPN8NativeUI17TabScreenListenerEED2Ev;2A.;__comp_dtor::(71,13):_ZN6MAUtil6VectorIPN8NativeUI17TabScreenListenerEED1Ev;2A.;operator=::(71,14)=#(71,1),(71,15)=&(71,1),(71,6),(71,11),(0,6);:_ZN6MAUtil6VectorIPN8NativeUI17TabScreenListenerEEaSERKS4_;2A.;add::(71,16)=#(71,1),(0,6),(71,6),(71,17)=&(71,9),(0,6);:_ZN6MAUtil6VectorIPN8NativeUI17TabScreenListenerEE3addERKS3_;2A.(71,7):_ZN6MAUtil6VectorIPN8NativeUI17TabScreenListenerEE3addEPKS3_i;2A.;remove::(71,18)=#(71,1),(0,6),(71,6),(71,2),(0,6);:_ZN6MAUtil6VectorIPN8NativeUI17TabScreenListenerEE6removeEPS3_;2A.(71,19)=#(71,1),(0,6),(71,6),(0,3),(0,6);:_ZN6MAUtil6VectorIPN8NativeUI17TabScreenListenerEE6removeEi;2A.(71,20)=#(71,1),(0,6),(71,6),(0,3),(0,3),(0,6);:_ZN6MAUtil6VectorIPN8NativeUI17TabScreenListenerEE6removeEii;2A.;insert::(71,21)=#(71,1),(0,6),(71,6),(0,3),(71,3),(0,6);:_ZN6MAUtil6VectorIPN8NativeUI17TabScreenListenerEE6insertEiS3_;2A.;size::(71,22)=#(71,1),(0,3),(71,23)=*(71,12),(0,6);:_ZNK6MAUtil6VectorIPN8NativeUI17TabScreenListenerEE4sizeEv;2B.;resize::(71,19):_ZN6MAUtil6VectorIPN8NativeUI17TabScreenListenerEE6resizeEi;2A.;reserve::(71,19):_ZN6MAUtil6VectorIPN8NativeUI17TabScreenListenerEE7reserveEi;2A.;clear::(71,13):_ZN6MAUtil6VectorIPN8NativeUI17TabScreenListenerEE5clearEv;2A.;empty::(71,24)=#(71,1),(0,4),(71,23),(0,6);:_ZNK6MAUtil6VectorIPN8NativeUI17TabScreenListenerEE5emptyEv;2B.;capacity::(71,22):_ZNK6MAUtil6VectorIPN8NativeUI17TabScreenListenerEE8capacityEv;2B.;begin::(71,25)=#(71,1),(71,2),(71,6),(0,6);:_ZN6MAUtil6VectorIPN8NativeUI17TabScreenListenerEE5beginEv;2A.;end::(71,25):_ZN6MAUtil6VectorIPN8NativeUI17TabScreenListenerEE3endEv;2A.;begin::(71,26)=#(71,1),(71,8),(71,23),(0,6);:_ZNK6MAUtil6VectorIPN8NativeUI17TabScreenListenerEE5beginEv;2B.;end::(71,26):_ZNK6MAUtil6VectorIPN8NativeUI17TabScreenListenerEE3endEv;2B.;operator[]::(71,27)=#(71,1),(71,28)=&(71,3),(71,6),(0,3),(0,6);:_ZN6MAUtil6VectorIPN8NativeUI17TabScreenListenerEEixEi;2A.(71,29)=#(71,1),(71,17),(71,23),(0,3),(0,6);:_ZNK6MAUtil6VectorIPN8NativeUI17TabScreenListenerEEixEi;2B.;pointer::(71,26):_ZNK6MAUtil6VectorIPN8NativeUI17TabScreenListenerEE7pointerEv;2B.(71,25):_ZN6MAUtil6VectorIPN8NativeUI17TabScreenListenerEE7pointerEv;2A.;;",128,0,95,0
	.stabn	162,0,0,0
	.stabs	"/Applications/MoSync/include/NativeUI/TabScreenListener.h",130,0,0,0
	.stabn	162,0,0,0
	.stabs	"/Applications/MoSync/include/NativeUI/TimePicker.h",130,0,0,0
	.stabs	"Vector<NativeUI::TimePickerListener*>:Tt(73,1)=s12mSize:/1(0,3),0,32;mCapacity:/1(0,3),32,32;mData:/1(73,2)=*(73,3)=*(73,4)=xsTimePickerListener:,64,32;__base_ctor::(73,5)=#(73,1),(0,6),(73,6)=*(73,1),(0,3),(0,6);:_ZN6MAUtil6VectorIPN8NativeUI18TimePickerListenerEEC2Ei;2A.;__comp_ctor::(73,5):_ZN6MAUtil6VectorIPN8NativeUI18TimePickerListenerEEC1Ei;2A.;__base_ctor::(73,7)=#(73,1),(0,6),(73,6),(73,8)=*(73,9)=k(73,3),(0,3),(0,6);:_ZN6MAUtil6VectorIPN8NativeUI18TimePickerListenerEEC2EPKS3_i;2A.;__comp_ctor::(73,7):_ZN6MAUtil6VectorIPN8NativeUI18TimePickerListenerEEC1EPKS3_i;2A.;__base_ctor::(73,10)=#(73,1),(0,6),(73,6),(73,11)=&(73,12)=k(73,1),(0,6);:_ZN6MAUtil6VectorIPN8NativeUI18TimePickerListenerEEC2ERKS4_;2A.;__comp_ctor::(73,10):_ZN6MAUtil6VectorIPN8NativeUI18TimePickerListenerEEC1ERKS4_;2A.;__base_dtor::(73,13)=#(73,1),(0,6),(73,6),(0,6);:_ZN6MAUtil6VectorIPN8NativeUI18TimePickerListenerEED2Ev;2A.;__comp_dtor::(73,13):_ZN6MAUtil6VectorIPN8NativeUI18TimePickerListenerEED1Ev;2A.;operator=::(73,14)=#(73,1),(73,15)=&(73,1),(73,6),(73,11),(0,6);:_ZN6MAUtil6VectorIPN8NativeUI18TimePickerListenerEEaSERKS4_;2A.;add::(73,16)=#(73,1),(0,6),(73,6),(73,17)=&(73,9),(0,6);:_ZN6MAUtil6VectorIPN8NativeUI18TimePickerListenerEE3addERKS3_;2A.(73,7):_ZN6MAUtil6VectorIPN8NativeUI18TimePickerListenerEE3addEPKS3_i;2A.;remove::(73,18)=#(73,1),(0,6),(73,6),(73,2),(0,6);:_ZN6MAUtil6VectorIPN8NativeUI18TimePickerListenerEE6removeEPS3_;2A.(73,19)=#(73,1),(0,6),(73,6),(0,3),(0,6);:_ZN6MAUtil6VectorIPN8NativeUI18TimePickerListenerEE6removeEi;2A.(73,20)=#(73,1),(0,6),(73,6),(0,3),(0,3),(0,6);:_ZN6MAUtil6VectorIPN8NativeUI18TimePickerListenerEE6removeEii;2A.;insert::(73,21)=#(73,1),(0,6),(73,6),(0,3),(73,3),(0,6);:_ZN6MAUtil6VectorIPN8NativeUI18TimePickerListenerEE6insertEiS3_;2A.;size::(73,22)=#(73,1),(0,3),(73,23)=*(73,12),(0,6);:_ZNK6MAUtil6VectorIPN8NativeUI18TimePickerListenerEE4sizeEv;2B.;resize::(73,19):_ZN6MAUtil6VectorIPN8NativeUI18TimePickerListenerEE6resizeEi;2A.;reserve::(73,19):_ZN6MAUtil6VectorIPN8NativeUI18TimePickerListenerEE7reserveEi;2A.;clear::(73,13):_ZN6MAUtil6VectorIPN8NativeUI18TimePickerListenerEE5clearEv;2A.;empty::(73,24)=#(73,1),(0,4),(73,23),(0,6);:_ZNK6MAUtil6VectorIPN8NativeUI18TimePickerListenerEE5emptyEv;2B.;capacity::(73,22):_ZNK6MAUtil6VectorIPN8NativeUI18TimePickerListenerEE8capacityEv;2B.;begin::(73,25)=#(73,1),(73,2),(73,6),(0,6);:_ZN6MAUtil6VectorIPN8NativeUI18TimePickerListenerEE5beginEv;2A.;end::(73,25):_ZN6MAUtil6VectorIPN8NativeUI18TimePickerListenerEE3endEv;2A.;begin::(73,26)=#(73,1),(73,8),(73,23),(0,6);:_ZNK6MAUtil6VectorIPN8NativeUI18TimePickerListenerEE5beginEv;2B.;end::(73,26):_ZNK6MAUtil6VectorIPN8NativeUI18TimePickerListenerEE3endEv;2B.;operator[]::(73,27)=#(73,1),(73,28)=&(73,3),(73,6),(0,3),(0,6);:_ZN6MAUtil6VectorIPN8NativeUI18TimePickerListenerEEixEi;2A.(73,29)=#(73,1),(73,17),(73,23),(0,3),(0,6);:_ZNK6MAUtil6VectorIPN8NativeUI18TimePickerListenerEEixEi;2B.;pointer::(73,26):_ZNK6MAUtil6VectorIPN8NativeUI18TimePickerListenerEE7pointerEv;2B.(73,25):_ZN6MAUtil6VectorIPN8NativeUI18TimePickerListenerEE7pointerEv;2A.;;",128,0,95,0
	.stabn	162,0,0,0
	.stabs	"/Applications/MoSync/include/NativeUI/TimePickerListener.h",130,0,0,0
	.stabn	162,0,0,0
	.stabs	"/Applications/MoSync/include/NativeUI/ToggleButton.h",130,0,0,0
	.stabs	"Vector<NativeUI::ToggleButtonListener*>:Tt(75,1)=s12mSize:/1(0,3),0,32;mCapacity:/1(0,3),32,32;mData:/1(75,2)=*(75,3)=*(75,4)=xsToggleButtonListener:,64,32;__base_ctor::(75,5)=#(75,1),(0,6),(75,6)=*(75,1),(0,3),(0,6);:_ZN6MAUtil6VectorIPN8NativeUI20ToggleButtonListenerEEC2Ei;2A.;__comp_ctor::(75,5):_ZN6MAUtil6VectorIPN8NativeUI20ToggleButtonListenerEEC1Ei;2A.;__base_ctor::(75,7)=#(75,1),(0,6),(75,6),(75,8)=*(75,9)=k(75,3),(0,3),(0,6);:_ZN6MAUtil6VectorIPN8NativeUI20ToggleButtonListenerEEC2EPKS3_i;2A.;__comp_ctor::(75,7):_ZN6MAUtil6VectorIPN8NativeUI20ToggleButtonListenerEEC1EPKS3_i;2A.;__base_ctor::(75,10)=#(75,1),(0,6),(75,6),(75,11)=&(75,12)=k(75,1),(0,6);:_ZN6MAUtil6VectorIPN8NativeUI20ToggleButtonListenerEEC2ERKS4_;2A.;__comp_ctor::(75,10):_ZN6MAUtil6VectorIPN8NativeUI20ToggleButtonListenerEEC1ERKS4_;2A.;__base_dtor::(75,13)=#(75,1),(0,6),(75,6),(0,6);:_ZN6MAUtil6VectorIPN8NativeUI20ToggleButtonListenerEED2Ev;2A.;__comp_dtor::(75,13):_ZN6MAUtil6VectorIPN8NativeUI20ToggleButtonListenerEED1Ev;2A.;operator=::(75,14)=#(75,1),(75,15)=&(75,1),(75,6),(75,11),(0,6);:_ZN6MAUtil6VectorIPN8NativeUI20ToggleButtonListenerEEaSERKS4_;2A.;add::(75,16)=#(75,1),(0,6),(75,6),(75,17)=&(75,9),(0,6);:_ZN6MAUtil6VectorIPN8NativeUI20ToggleButtonListenerEE3addERKS3_;2A.(75,7):_ZN6MAUtil6VectorIPN8NativeUI20ToggleButtonListenerEE3addEPKS3_i;2A.;remove::(75,18)=#(75,1),(0,6),(75,6),(75,2),(0,6);:_ZN6MAUtil6VectorIPN8NativeUI20ToggleButtonListenerEE6removeEPS3_;2A.(75,19)=#(75,1),(0,6),(75,6),(0,3),(0,6);:_ZN6MAUtil6VectorIPN8NativeUI20ToggleButtonListenerEE6removeEi;2A.(75,20)=#(75,1),(0,6),(75,6),(0,3),(0,3),(0,6);:_ZN6MAUtil6VectorIPN8NativeUI20ToggleButtonListenerEE6removeEii;2A.;insert::(75,21)=#(75,1),(0,6),(75,6),(0,3),(75,3),(0,6);:_ZN6MAUtil6VectorIPN8NativeUI20ToggleButtonListenerEE6insertEiS3_;2A.;size::(75,22)=#(75,1),(0,3),(75,23)=*(75,12),(0,6);:_ZNK6MAUtil6VectorIPN8NativeUI20ToggleButtonListenerEE4sizeEv;2B.;resize::(75,19):_ZN6MAUtil6VectorIPN8NativeUI20ToggleButtonListenerEE6resizeEi;2A.;reserve::(75,19):_ZN6MAUtil6VectorIPN8NativeUI20ToggleButtonListenerEE7reserveEi;2A.;clear::(75,13):_ZN6MAUtil6VectorIPN8NativeUI20ToggleButtonListenerEE5clearEv;2A.;empty::(75,24)=#(75,1),(0,4),(75,23),(0,6);:_ZNK6MAUtil6VectorIPN8NativeUI20ToggleButtonListenerEE5emptyEv;2B.;capacity::(75,22):_ZNK6MAUtil6VectorIPN8NativeUI20ToggleButtonListenerEE8capacityEv;2B.;begin::(75,25)=#(75,1),(75,2),(75,6),(0,6);:_ZN6MAUtil6VectorIPN8NativeUI20ToggleButtonListenerEE5beginEv;2A.;end::(75,25):_ZN6MAUtil6VectorIPN8NativeUI20ToggleButtonListenerEE3endEv;2A.;begin::(75,26)=#(75,1),(75,8),(75,23),(0,6);:_ZNK6MAUtil6VectorIPN8NativeUI20ToggleButtonListenerEE5beginEv;2B.;end::(75,26):_ZNK6MAUtil6VectorIPN8NativeUI20ToggleButtonListenerEE3endEv;2B.;operator[]::(75,27)=#(75,1),(75,28)=&(75,3),(75,6),(0,3),(0,6);:_ZN6MAUtil6VectorIPN8NativeUI20ToggleButtonListenerEEixEi;2A.(75,29)=#(75,1),(75,17),(75,23),(0,3),(0,6);:_ZNK6MAUtil6VectorIPN8NativeUI20ToggleButtonListenerEEixEi;2B.;pointer::(75,26):_ZNK6MAUtil6VectorIPN8NativeUI20ToggleButtonListenerEE7pointerEv;2B.(75,25):_ZN6MAUtil6VectorIPN8NativeUI20ToggleButtonListenerEE7pointerEv;2A.;;",128,0,95,0
	.stabn	162,0,0,0
	.stabs	"/Applications/MoSync/include/NativeUI/ToggleButtonListener.h",130,0,0,0
	.stabn	162,0,0,0
	.stabs	"/Applications/MoSync/include/NativeUI/VerticalLayout.h",130,0,0,0
	.stabn	162,0,0,0
	.stabs	"/Applications/MoSync/include/NativeUI/VideoView.h",130,0,0,0
	.stabs	"Vector<NativeUI::VideoViewListener*>:Tt(78,1)=s12mSize:/1(0,3),0,32;mCapacity:/1(0,3),32,32;mData:/1(78,2)=*(78,3)=*(78,4)=xsVideoViewListener:,64,32;__base_ctor::(78,5)=#(78,1),(0,6),(78,6)=*(78,1),(0,3),(0,6);:_ZN6MAUtil6VectorIPN8NativeUI17VideoViewListenerEEC2Ei;2A.;__comp_ctor::(78,5):_ZN6MAUtil6VectorIPN8NativeUI17VideoViewListenerEEC1Ei;2A.;__base_ctor::(78,7)=#(78,1),(0,6),(78,6),(78,8)=*(78,9)=k(78,3),(0,3),(0,6);:_ZN6MAUtil6VectorIPN8NativeUI17VideoViewListenerEEC2EPKS3_i;2A.;__comp_ctor::(78,7):_ZN6MAUtil6VectorIPN8NativeUI17VideoViewListenerEEC1EPKS3_i;2A.;__base_ctor::(78,10)=#(78,1),(0,6),(78,6),(78,11)=&(78,12)=k(78,1),(0,6);:_ZN6MAUtil6VectorIPN8NativeUI17VideoViewListenerEEC2ERKS4_;2A.;__comp_ctor::(78,10):_ZN6MAUtil6VectorIPN8NativeUI17VideoViewListenerEEC1ERKS4_;2A.;__base_dtor::(78,13)=#(78,1),(0,6),(78,6),(0,6);:_ZN6MAUtil6VectorIPN8NativeUI17VideoViewListenerEED2Ev;2A.;__comp_dtor::(78,13):_ZN6MAUtil6VectorIPN8NativeUI17VideoViewListenerEED1Ev;2A.;operator=::(78,14)=#(78,1),(78,15)=&(78,1),(78,6),(78,11),(0,6);:_ZN6MAUtil6VectorIPN8NativeUI17VideoViewListenerEEaSERKS4_;2A.;add::(78,16)=#(78,1),(0,6),(78,6),(78,17)=&(78,9),(0,6);:_ZN6MAUtil6VectorIPN8NativeUI17VideoViewListenerEE3addERKS3_;2A.(78,7):_ZN6MAUtil6VectorIPN8NativeUI17VideoViewListenerEE3addEPKS3_i;2A.;remove::(78,18)=#(78,1),(0,6),(78,6),(78,2),(0,6);:_ZN6MAUtil6VectorIPN8NativeUI17VideoViewListenerEE6removeEPS3_;2A.(78,19)=#(78,1),(0,6),(78,6),(0,3),(0,6);:_ZN6MAUtil6VectorIPN8NativeUI17VideoViewListenerEE6removeEi;2A.(78,20)=#(78,1),(0,6),(78,6),(0,3),(0,3),(0,6);:_ZN6MAUtil6VectorIPN8NativeUI17VideoViewListenerEE6removeEii;2A.;insert::(78,21)=#(78,1),(0,6),(78,6),(0,3),(78,3),(0,6);:_ZN6MAUtil6VectorIPN8NativeUI17VideoViewListenerEE6insertEiS3_;2A.;size::(78,22)=#(78,1),(0,3),(78,23)=*(78,12),(0,6);:_ZNK6MAUtil6VectorIPN8NativeUI17VideoViewListenerEE4sizeEv;2B.;resize::(78,19):_ZN6MAUtil6VectorIPN8NativeUI17VideoViewListenerEE6resizeEi;2A.;reserve::(78,19):_ZN6MAUtil6VectorIPN8NativeUI17VideoViewListenerEE7reserveEi;2A.;clear::(78,13):_ZN6MAUtil6VectorIPN8NativeUI17VideoViewListenerEE5clearEv;2A.;empty::(78,24)=#(78,1),(0,4),(78,23),(0,6);:_ZNK6MAUtil6VectorIPN8NativeUI17VideoViewListenerEE5emptyEv;2B.;capacity::(78,22):_ZNK6MAUtil6VectorIPN8NativeUI17VideoViewListenerEE8capacityEv;2B.;begin::(78,25)=#(78,1),(78,2),(78,6),(0,6);:_ZN6MAUtil6VectorIPN8NativeUI17VideoViewListenerEE5beginEv;2A.;end::(78,25):_ZN6MAUtil6VectorIPN8NativeUI17VideoViewListenerEE3endEv;2A.;begin::(78,26)=#(78,1),(78,8),(78,23),(0,6);:_ZNK6MAUtil6VectorIPN8NativeUI17VideoViewListenerEE5beginEv;2B.;end::(78,26):_ZNK6MAUtil6VectorIPN8NativeUI17VideoViewListenerEE3endEv;2B.;operator[]::(78,27)=#(78,1),(78,28)=&(78,3),(78,6),(0,3),(0,6);:_ZN6MAUtil6VectorIPN8NativeUI17VideoViewListenerEEixEi;2A.(78,29)=#(78,1),(78,17),(78,23),(0,3),(0,6);:_ZNK6MAUtil6VectorIPN8NativeUI17VideoViewListenerEEixEi;2B.;pointer::(78,26):_ZNK6MAUtil6VectorIPN8NativeUI17VideoViewListenerEE7pointerEv;2B.(78,25):_ZN6MAUtil6VectorIPN8NativeUI17VideoViewListenerEE7pointerEv;2A.;;",128,0,95,0
	.stabn	162,0,0,0
	.stabs	"/Applications/MoSync/include/NativeUI/VideoViewListener.h",130,0,0,0
	.stabn	162,0,0,0
	.stabs	"/Applications/MoSync/include/NativeUI/WebView.h",130,0,0,0
	.stabs	"Vector<NativeUI::WebViewListener*>:Tt(80,1)=s12mSize:/1(0,3),0,32;mCapacity:/1(0,3),32,32;mData:/1(80,2)=*(80,3)=*(80,4)=xsWebViewListener:,64,32;__base_ctor::(80,5)=#(80,1),(0,6),(80,6)=*(80,1),(0,3),(0,6);:_ZN6MAUtil6VectorIPN8NativeUI15WebViewListenerEEC2Ei;2A.;__comp_ctor::(80,5):_ZN6MAUtil6VectorIPN8NativeUI15WebViewListenerEEC1Ei;2A.;__base_ctor::(80,7)=#(80,1),(0,6),(80,6),(80,8)=*(80,9)=k(80,3),(0,3),(0,6);:_ZN6MAUtil6VectorIPN8NativeUI15WebViewListenerEEC2EPKS3_i;2A.;__comp_ctor::(80,7):_ZN6MAUtil6VectorIPN8NativeUI15WebViewListenerEEC1EPKS3_i;2A.;__base_ctor::(80,10)=#(80,1),(0,6),(80,6),(80,11)=&(80,12)=k(80,1),(0,6);:_ZN6MAUtil6VectorIPN8NativeUI15WebViewListenerEEC2ERKS4_;2A.;__comp_ctor::(80,10):_ZN6MAUtil6VectorIPN8NativeUI15WebViewListenerEEC1ERKS4_;2A.;__base_dtor::(80,13)=#(80,1),(0,6),(80,6),(0,6);:_ZN6MAUtil6VectorIPN8NativeUI15WebViewListenerEED2Ev;2A.;__comp_dtor::(80,13):_ZN6MAUtil6VectorIPN8NativeUI15WebViewListenerEED1Ev;2A.;operator=::(80,14)=#(80,1),(80,15)=&(80,1),(80,6),(80,11),(0,6);:_ZN6MAUtil6VectorIPN8NativeUI15WebViewListenerEEaSERKS4_;2A.;add::(80,16)=#(80,1),(0,6),(80,6),(80,17)=&(80,9),(0,6);:_ZN6MAUtil6VectorIPN8NativeUI15WebViewListenerEE3addERKS3_;2A.(80,7):_ZN6MAUtil6VectorIPN8NativeUI15WebViewListenerEE3addEPKS3_i;2A.;remove::(80,18)=#(80,1),(0,6),(80,6),(80,2),(0,6);:_ZN6MAUtil6VectorIPN8NativeUI15WebViewListenerEE6removeEPS3_;2A.(80,19)=#(80,1),(0,6),(80,6),(0,3),(0,6);:_ZN6MAUtil6VectorIPN8NativeUI15WebViewListenerEE6removeEi;2A.(80,20)=#(80,1),(0,6),(80,6),(0,3),(0,3),(0,6);:_ZN6MAUtil6VectorIPN8NativeUI15WebViewListenerEE6removeEii;2A.;insert::(80,21)=#(80,1),(0,6),(80,6),(0,3),(80,3),(0,6);:_ZN6MAUtil6VectorIPN8NativeUI15WebViewListenerEE6insertEiS3_;2A.;size::(80,22)=#(80,1),(0,3),(80,23)=*(80,12),(0,6);:_ZNK6MAUtil6VectorIPN8NativeUI15WebViewListenerEE4sizeEv;2B.;resize::(80,19):_ZN6MAUtil6VectorIPN8NativeUI15WebViewListenerEE6resizeEi;2A.;reserve::(80,19):_ZN6MAUtil6VectorIPN8NativeUI15WebViewListenerEE7reserveEi;2A.;clear::(80,13):_ZN6MAUtil6VectorIPN8NativeUI15WebViewListenerEE5clearEv;2A.;empty::(80,24)=#(80,1),(0,4),(80,23),(0,6);:_ZNK6MAUtil6VectorIPN8NativeUI15WebViewListenerEE5emptyEv;2B.;capacity::(80,22):_ZNK6MAUtil6VectorIPN8NativeUI15WebViewListenerEE8capacityEv;2B.;begin::(80,25)=#(80,1),(80,2),(80,6),(0,6);:_ZN6MAUtil6VectorIPN8NativeUI15WebViewListenerEE5beginEv;2A.;end::(80,25):_ZN6MAUtil6VectorIPN8NativeUI15WebViewListenerEE3endEv;2A.;begin::(80,26)=#(80,1),(80,8),(80,23),(0,6);:_ZNK6MAUtil6VectorIPN8NativeUI15WebViewListenerEE5beginEv;2B.;end::(80,26):_ZNK6MAUtil6VectorIPN8NativeUI15WebViewListenerEE3endEv;2B.;operator[]::(80,27)=#(80,1),(80,28)=&(80,3),(80,6),(0,3),(0,6);:_ZN6MAUtil6VectorIPN8NativeUI15WebViewListenerEEixEi;2A.(80,29)=#(80,1),(80,17),(80,23),(0,3),(0,6);:_ZNK6MAUtil6VectorIPN8NativeUI15WebViewListenerEEixEi;2B.;pointer::(80,26):_ZNK6MAUtil6VectorIPN8NativeUI15WebViewListenerEE7pointerEv;2B.(80,25):_ZN6MAUtil6VectorIPN8NativeUI15WebViewListenerEE7pointerEv;2A.;;",128,0,95,0
	.stabn	162,0,0,0
	.stabs	"/Applications/MoSync/include/NativeUI/WebViewListener.h",130,0,0,0
	.stabn	162,0,0,0
	.stabs	"/Applications/MoSync/include/NativeUI/WidgetManager.h",130,0,0,0
	.stabs	"/Applications/MoSync/include/NativeUI/WidgetEventListener.h",130,0,0,0
	.stabn	162,0,0,0
	.stabs	"Dictionary<const MAHandle,MAUtil::Pair<const MAHandle, NativeUI::Widget*> >:Tt(82,1)=s56mDict:/1(15,32),0,416;mKeyOffset:/1(0,3),416,32;__base_ctor::(82,2)=#(82,1),(0,6),(82,3)=*(82,1),(82,4)=&(82,5)=k(82,1),(0,6);:_ZN6MAUtil10DictionaryIKiNS_4PairIS1_PN8NativeUI6WidgetEEEEC2ERKS7_;2A.;__comp_ctor::(82,2):_ZN6MAUtil10DictionaryIKiNS_4PairIS1_PN8NativeUI6WidgetEEEEC1ERKS7_;2A.;operator=::(82,6)=#(82,1),(82,7)=&(82,1),(82,3),(82,4),(0,6);:_ZN6MAUtil10DictionaryIKiNS_4PairIS1_PN8NativeUI6WidgetEEEEaSERKS7_;2A.;__base_dtor::(82,8)=#(82,1),(0,6),(82,3),(0,6);:_ZN6MAUtil10DictionaryIKiNS_4PairIS1_PN8NativeUI6WidgetEEEED2Ev;2A.;__comp_dtor::(82,8):_ZN6MAUtil10DictionaryIKiNS_4PairIS1_PN8NativeUI6WidgetEEEED1Ev;2A.;find::(82,9)=#(82,1),(82,10)=xsIterator:,(82,3),(82,11)=&(82,12)=k(2,10),(0,6);:_ZN6MAUtil10DictionaryIKiNS_4PairIS1_PN8NativeUI6WidgetEEEE4findERS1_;2A.(82,13)=#(82,1),(82,14)=xsConstIterator:,(82,15)=*(82,5),(82,11),(0,6);:_ZNK6MAUtil10DictionaryIKiNS_4PairIS1_PN8NativeUI6WidgetEEEE4findERS1_;2B.;erase::(82,16)=#(82,1),(0,4),(82,3),(82,11),(0,6);:_ZN6MAUtil10DictionaryIKiNS_4PairIS1_PN8NativeUI6WidgetEEEE5eraseERS1_;2A.(82,17)=#(82,1),(0,6),(82,3),(82,10),(0,6);:_ZN6MAUtil10DictionaryIKiNS_4PairIS1_PN8NativeUI6WidgetEEEE5eraseENS7_8IteratorE;2A.;begin::(82,18)=#(82,1),(82,10),(82,3),(0,6);:_ZN6MAUtil10DictionaryIKiNS_4PairIS1_PN8NativeUI6WidgetEEEE5beginEv;2A.(82,19)=#(82,1),(82,14),(82,15),(0,6);:_ZNK6MAUtil10DictionaryIKiNS_4PairIS1_PN8NativeUI6WidgetEEEE5beginEv;2B.;end::(82,18):_ZN6MAUtil10DictionaryIKiNS_4PairIS1_PN8NativeUI6WidgetEEEE3endEv;2A.(82,19):_ZNK6MAUtil10DictionaryIKiNS_4PairIS1_PN8NativeUI6WidgetEEEE3endEv;2B.;size::(82,20)=#(82,1),(1,1),(82,15),(0,6);:_ZNK6MAUtil10DictionaryIKiNS_4PairIS1_PN8NativeUI6WidgetEEEE4sizeEv;2B.;clear::(82,8):_ZN6MAUtil10DictionaryIKiNS_4PairIS1_PN8NativeUI6WidgetEEEE5clearEv;2A.;init::(82,21)=#(82,1),(0,6),(82,3),(82,22)=*(82,23)=f(0,3),(0,6);:_ZN6MAUtil10DictionaryIKiNS_4PairIS1_PN8NativeUI6WidgetEEEE4initEPFiRS1_S8_E;1A.;alloc::(15,19):_ZN6MAUtil10DictionaryIKiNS_4PairIS1_PN8NativeUI6WidgetEEEE5allocEPv;1A?;free::(15,23):_ZN6MAUtil10DictionaryIKiNS_4PairIS1_PN8NativeUI6WidgetEEEE4freeEP7dnode_tPv;1A?;__base_ctor::(82,24)=#(82,1),(0,6),(82,3),(82,22),(0,3),(0,6);:_ZN6MAUtil10DictionaryIKiNS_4PairIS1_PN8NativeUI6WidgetEEEEC2EPFiRS1_S8_Ei;1A.;__comp_ctor::(82,24):_ZN6MAUtil10DictionaryIKiNS_4PairIS1_PN8NativeUI6WidgetEEEEC1EPFiRS1_S8_Ei;1A.;insert::(82,25)=#(82,1),(82,26)=xsPair<MAUtil::Dictionary<const MAHandle, MAUtil::Pair<const MAHandle, NativeUI::Widget*> >::Iterator,bool>:,(82,3),(82,27)=&(82,28)=k(82,29)=xsPair<const MAHandle,NativeUI::Widget*>:,(0,6);:_ZN6MAUtil10DictionaryIKiNS_4PairIS1_PN8NativeUI6WidgetEEEE6insertERKS6_;1A.;;",128,0,57,0
	.stabs	"Map<MAHandle,NativeUI::Widget*>:Tt(82,30)=s56!1,020,(82,1);__base_ctor::(82,31)=#(82,30),(0,6),(82,32)=*(82,30),(82,22),(0,6);:_ZN6MAUtil3MapIiPN8NativeUI6WidgetEEC2EPFiRKiS6_E;2A.;__comp_ctor::(82,31):_ZN6MAUtil3MapIiPN8NativeUI6WidgetEEC1EPFiRKiS6_E;2A.;insert::(82,33)=#(82,30),(82,26),(82,32),(82,11),(12,91),(0,6);:_ZN6MAUtil3MapIiPN8NativeUI6WidgetEE6insertERKiRKS3_;2A.(82,34)=#(82,30),(82,26),(82,32),(82,35)=&(82,36)=k(82,37)=xsPair<MAHandle,NativeUI::Widget*>:,(0,6);:_ZN6MAUtil3MapIiPN8NativeUI6WidgetEE6insertERKNS_4PairIiS3_EE;2A.;operator[]::(82,38)=#(82,30),(12,102),(82,32),(82,11),(0,6);:_ZN6MAUtil3MapIiPN8NativeUI6WidgetEEixERKi;2A.;operator=::(82,39)=#(82,30),(82,40)=&(82,30),(82,32),(82,41)=&(82,42)=k(82,30),(0,6);:_ZN6MAUtil3MapIiPN8NativeUI6WidgetEEaSERKS4_;2A.;__base_ctor::(82,43)=#(82,30),(0,6),(82,32),(82,41),(0,6);:_ZN6MAUtil3MapIiPN8NativeUI6WidgetEEC2ERKS4_;2A.;__comp_ctor::(82,43):_ZN6MAUtil3MapIiPN8NativeUI6WidgetEEC1ERKS4_;2A.;__base_dtor::(82,44)=#(82,30),(0,6),(82,32),(0,6);:_ZN6MAUtil3MapIiPN8NativeUI6WidgetEED2Ev;2A.;__comp_dtor::(82,44):_ZN6MAUtil3MapIiPN8NativeUI6WidgetEED1Ev;2A.;;",128,0,33,0
	.stabn	162,0,0,0
	.stabn	162,0,0,0
	.stabs	"/Users/brzeszczot/workspace/Sterownik/MainScreen.h",130,0,0,0
	.stabs	"/Applications/MoSync/include/newlib/stlport/string",130,0,0,0
	.stabs	"/Applications/MoSync/include/newlib/stlport/stl/_string.h",130,0,0,0
	.stabs	"/Applications/MoSync/include/newlib/stlport/stl/_alloc.h",130,0,0,0
	.stabs	"/Applications/MoSync/include/newlib/stlport/stl/_cstddef.h",130,0,0,0
	.stabs	"/Applications/MoSync/include/newlib/stlport/stddef.h",130,0,0,0
	.stabs	"/Applications/MoSync/include/newlib/stlport/../stddef.h",130,0,0,0
	.stabs	"wint_t:t(90,1)=(0,3)",128,0,6,0
	.stabs	"ptrdiff_t:t(90,2)=(0,3)",128,0,8,0
	.stabn	162,0,0,0
	.stabn	162,0,0,0
	.stabn	162,0,0,0
	.stabs	"/Applications/MoSync/include/newlib/stlport/stl/_cstdlib.h",130,0,0,0
	.stabs	"/Applications/MoSync/include/newlib/stlport/stdlib.h",130,0,0,0
	.stabs	"/Applications/MoSync/include/newlib/stlport/../stdlib.h",130,0,0,0
	.stabs	"/Applications/MoSync/include/newlib/sys/reent.h",130,0,0,0
	.stabs	"/Applications/MoSync/include/newlib/sys/_types.h",130,0,0,0
	.stabs	"/Applications/MoSync/include/newlib/machine/_types.h",130,0,0,0
	.stabs	"/Applications/MoSync/include/newlib/machine/_default_types.h",130,0,0,0
	.stabs	"__int8_t:t(97,1)=(0,11)",128,0,26,0
	.stabs	"__uint8_t:t(97,2)=(0,10)",128,0,27,0
	.stabs	"__int16_t:t(97,3)=(0,13)",128,0,36,0
	.stabs	"__uint16_t:t(97,4)=(0,12)",128,0,37,0
	.stabs	"__int_least16_t:t(97,5)=(97,3)",128,0,46,0
	.stabs	"__uint_least16_t:t(97,6)=(97,4)",128,0,47,0
	.stabs	"__int32_t:t(97,7)=(0,3)",128,0,58,0
	.stabs	"__uint32_t:t(97,8)=(0,17)",128,0,59,0
	.stabs	"__int_least32_t:t(97,9)=(97,7)",128,0,76,0
	.stabs	"__uint_least32_t:t(97,10)=(97,8)",128,0,77,0
	.stabs	"__int64_t:t(97,11)=(0,15)",128,0,99,0
	.stabs	"__uint64_t:t(97,12)=(0,14)",128,0,100,0
	.stabn	162,0,0,0
	.stabn	162,0,0,0
	.stabs	"/Applications/MoSync/include/newlib/sys/lock.h",130,0,0,0
	.stabs	"_LOCK_T:t(98,1)=(0,3)",128,0,6,0
	.stabs	"_LOCK_RECURSIVE_T:t(98,2)=(0,3)",128,0,7,0
	.stabn	162,0,0,0
	.stabs	"_off_t:t(95,1)=(0,18)",128,0,16,0
	.stabs	"__dev_t:t(95,2)=(0,13)",128,0,24,0
	.stabs	"__uid_t:t(95,3)=(0,12)",128,0,29,0
	.stabs	"__gid_t:t(95,4)=(0,12)",128,0,32,0
	.stabs	"_off64_t:t(95,5)=(0,15)",128,0,36,0
	.stabs	"_fpos_t:t(95,6)=(0,18)",128,0,44,0
	.stabs	"_ssize_t:t(95,7)=(0,3)",128,0,56,0
	.stabs	"_mbstate_t:t(95,8)=s8__count:(0,3),0,32;__value:(95,9)=u4__wch:(90,1),0,32;__wchb:(95,10)=ar(2,57);0;3;(0,10),0,32;operator=::(95,11)=#(95,9),(95,12)=&(95,9),(95,13)=*(95,9),(95,14)=&(95,15)=k(95,9),(0,6);:_ZN10_mbstate_t4$_24aSERKS0_;2A.;__base_ctor::(95,16)=#(95,9),(0,6),(95,13),(95,14),(0,6);:_ZN10_mbstate_t4$_24C2ERKS0_;2A.;__comp_ctor::(95,16):_ZN10_mbstate_t4$_24C1ERKS0_;2A.;__base_ctor::(95,17)=#(95,9),(0,6),(95,13),(0,6);:_ZN10_mbstate_t4$_24C2Ev;2A.;__comp_ctor::(95,17):_ZN10_mbstate_t4$_24C1Ev;2A.;;,32,32;operator=::(95,18)=#(95,8),(95,19)=&(95,8),(95,20)=*(95,8),(95,21)=&(95,22)=k(95,8),(0,6);:_ZN10_mbstate_taSERKS_;2A.;__base_ctor::(95,23)=#(95,8),(0,6),(95,20),(95,21),(0,6);:_ZN10_mbstate_tC2ERKS_;2A.;__comp_ctor::(95,23):_ZN10_mbstate_tC1ERKS_;2A.;__base_ctor::(95,24)=#(95,8),(0,6),(95,20),(0,6);:_ZN10_mbstate_tC2Ev;2A.;__comp_ctor::(95,24):_ZN10_mbstate_tC1Ev;2A.;;",128,0,75,0
	.stabs	"_flock_t:t(95,25)=(98,2)",128,0,79,0
	.stabs	"_iconv_t:t(95,26)=(2,9)",128,0,84,0
	.stabn	162,0,0,0
	.stabs	"__ULong:t(94,1)=(0,16)",128,0,21,0
	.stabs	"_Bigint:Tt(94,2)=s24_next:(94,3)=*(94,2),0,32;_k:(0,3),32,32;_maxwds:(0,3),64,32;_sign:(0,3),96,32;_wds:(0,3),128,32;_x:(94,4)=ar(2,57);0;0;(94,1),160,32;operator=::(94,5)=#(94,2),(94,6)=&(94,2),(94,3),(94,7)=&(94,8)=k(94,2),(0,6);:_ZN7_BigintaSERKS_;2A.;__base_ctor::(94,9)=#(94,2),(0,6),(94,3),(94,7),(0,6);:_ZN7_BigintC2ERKS_;2A.;__comp_ctor::(94,9):_ZN7_BigintC1ERKS_;2A.;__base_ctor::(94,10)=#(94,2),(0,6),(94,3),(0,6);:_ZN7_BigintC2Ev;2A.;__comp_ctor::(94,10):_ZN7_BigintC1Ev;2A.;;",128,0,45,0
	.stabs	"__tm:Tt(94,11)=s36__tm_sec:(0,3),0,32;__tm_min:(0,3),32,32;__tm_hour:(0,3),64,32;__tm_mday:(0,3),96,32;__tm_mon:(0,3),128,32;__tm_year:(0,3),160,32;__tm_wday:(0,3),192,32;__tm_yday:(0,3),224,32;__tm_isdst:(0,3),256,32;operator=::(94,12)=#(94,11),(94,13)=&(94,11),(94,14)=*(94,11),(94,15)=&(94,16)=k(94,11),(0,6);:_ZN4__tmaSERKS_;2A.;__base_ctor::(94,17)=#(94,11),(0,6),(94,14),(94,15),(0,6);:_ZN4__tmC2ERKS_;2A.;__comp_ctor::(94,17):_ZN4__tmC1ERKS_;2A.;__base_ctor::(94,18)=#(94,11),(0,6),(94,14),(0,6);:_ZN4__tmC2Ev;2A.;__comp_ctor::(94,18):_ZN4__tmC1Ev;2A.;;",128,0,53,0
	.stabs	"_on_exit_args:Tt(94,19)=s264_fnargs:(94,20)=ar(2,57);0;31;(2,9),0,1024;_dso_handle:(94,20),1024,1024;_fntypes:(94,1),2048,32;_is_cxa:(94,1),2080,32;operator=::(94,21)=#(94,19),(94,22)=&(94,19),(94,23)=*(94,19),(94,24)=&(94,25)=k(94,19),(0,6);:_ZN13_on_exit_argsaSERKS_;2A.;__base_ctor::(94,26)=#(94,19),(0,6),(94,23),(94,24),(0,6);:_ZN13_on_exit_argsC2ERKS_;2A.;__comp_ctor::(94,26):_ZN13_on_exit_argsC1ERKS_;2A.;__base_ctor::(94,27)=#(94,19),(0,6),(94,23),(0,6);:_ZN13_on_exit_argsC2Ev;2A.;__comp_ctor::(94,27):_ZN13_on_exit_argsC1Ev;2A.;;",128,0,71,0
	.stabs	"_atexit:Tt(94,28)=s400_next:(94,29)=*(94,28),0,32;_ind:(0,3),32,32;_fns:(94,30)=ar(2,57);0;31;(94,31)=*(94,32)=f(0,6),64,1024;_on_exit_args:(94,19),1088,2112;operator=::(94,33)=#(94,28),(94,34)=&(94,28),(94,29),(94,35)=&(94,36)=k(94,28),(0,6);:_ZN7_atexitaSERKS_;2A.;__base_ctor::(94,37)=#(94,28),(0,6),(94,29),(94,35),(0,6);:_ZN7_atexitC2ERKS_;2A.;__comp_ctor::(94,37):_ZN7_atexitC1ERKS_;2A.;__base_ctor::(94,38)=#(94,28),(0,6),(94,29),(0,6);:_ZN7_atexitC2Ev;2A.;__comp_ctor::(94,38):_ZN7_atexitC1Ev;2A.;;",128,0,89,0
	.stabs	"__sbuf:Tt(94,39)=s8_base:(94,40)=*(0,10),0,32;_size:(0,3),32,32;operator=::(94,41)=#(94,39),(94,42)=&(94,39),(94,43)=*(94,39),(94,44)=&(94,45)=k(94,39),(0,6);:_ZN6__sbufaSERKS_;2A.;__base_ctor::(94,46)=#(94,39),(0,6),(94,43),(94,44),(0,6);:_ZN6__sbufC2ERKS_;2A.;__comp_ctor::(94,46):_ZN6__sbufC1ERKS_;2A.;__base_ctor::(94,47)=#(94,39),(0,6),(94,43),(0,6);:_ZN6__sbufC2Ev;2A.;__comp_ctor::(94,47):_ZN6__sbufC1Ev;2A.;;",128,0,105,0
	.stabs	"__sFILE:Tt(94,48)=s100_p:(94,40),0,32;_r:(0,3),32,32;_w:(0,3),64,32;_flags:(0,13),96,16;_file:(0,13),112,16;_bf:(94,39),128,64;_lbfsize:(0,3),192,32;_cookie:(2,9),224,32;_read:(94,49)=*(94,50)=f(0,3),256,32;_write:(94,51)=*(94,52)=f(0,3),288,32;_seek:(94,53)=*(94,54)=f(95,6),320,32;_close:(94,55)=*(94,56)=f(0,3),352,32;_ub:(94,39),384,64;_up:(94,40),448,32;_ur:(0,3),480,32;_ubuf:(94,57)=ar(2,57);0;2;(0,10),512,24;_nbuf:(94,58)=ar(2,57);0;0;(0,10),536,8;_lb:(94,39),544,64;_blksize:(0,3),608,32;_offset:(0,3),640,32;_data:(94,59)=*(94,60)=xs_reent:,672,32;_mbstate:(95,8),704,64;_flags2:(0,3),768,32;operator=::(94,61)=#(94,48),(94,62)=&(94,48),(94,63)=*(94,48),(94,64)=&(94,65)=k(94,48),(0,6);:_ZN7__sFILEaSERKS_;2A.;__base_ctor::(94,66)=#(94,48),(0,6),(94,63),(94,64),(0,6);:_ZN7__sFILEC2ERKS_;2A.;__comp_ctor::(94,66):_ZN7__sFILEC1ERKS_;2A.;__base_ctor::(94,67)=#(94,48),(0,6),(94,63),(0,6);:_ZN7__sFILEC2Ev;2A.;__comp_ctor::(94,67):_ZN7__sFILEC1Ev;2A.;;",128,0,169,0
	.stabs	"__FILE:t(94,68)=(94,48)",128,0,273,0
	.stabs	"_glue:Tt(94,69)=s12_next:(94,70)=*(94,69),0,32;_niobs:(0,3),32,32;_iobs:(94,71)=*(94,68),64,32;operator=::(94,72)=#(94,69),(94,73)=&(94,69),(94,70),(94,74)=&(94,75)=k(94,69),(0,6);:_ZN5_glueaSERKS_;2A.;__base_ctor::(94,76)=#(94,69),(0,6),(94,70),(94,74),(0,6);:_ZN5_glueC2ERKS_;2A.;__comp_ctor::(94,76):_ZN5_glueC1ERKS_;2A.;__base_ctor::(94,77)=#(94,69),(0,6),(94,70),(0,6);:_ZN5_glueC2Ev;2A.;__comp_ctor::(94,77):_ZN5_glueC1Ev;2A.;;",128,0,278,0
	.stabs	"_rand48:Tt(94,78)=s14_seed:(94,79)=ar(2,57);0;2;(0,12),0,48;_mult:(94,79),48,48;_add:(0,12),96,16;operator=::(94,80)=#(94,78),(94,81)=&(94,78),(94,82)=*(94,78),(94,83)=&(94,84)=k(94,78),(0,6);:_ZN7_rand48aSERKS_;2A.;__base_ctor::(94,85)=#(94,78),(0,6),(94,82),(94,83),(0,6);:_ZN7_rand48C2ERKS_;2A.;__comp_ctor::(94,85):_ZN7_rand48C1ERKS_;2A.;__base_ctor::(94,86)=#(94,78),(0,6),(94,82),(0,6);:_ZN7_rand48C2Ev;2A.;__comp_ctor::(94,86):_ZN7_rand48C1Ev;2A.;;",128,0,305,0
	.stabs	"_reent:Tt(94,60)=s1048_errno:(0,3),0,32;_stdin:(94,71),32,32;_stdout:(94,71),64,32;_stderr:(94,71),96,32;_inc:(0,3),128,32;_emergency:(94,87)=ar(2,57);0;24;(0,19),160,200;_current_category:(0,3),384,32;_current_locale:(12,7),416,32;__sdidinit:(0,3),448,32;__cleanup:(94,88)=*(94,89)=f(0,6),480,32;_result:(94,3),512,32;_result_k:(0,3),544,32;_p5s:(94,3),576,32;_freelist:(94,90)=*(94,3),608,32;_cvtlen:(0,3),640,32;_cvtbuf:(2,5),672,32;_new:(94,91)=u240_reent:(94,92)=s204_unused_rand:(0,17),0,32;_strtok_last:(2,5),32,32;_asctime_buf:(94,93)=ar(2,57);0;25;(0,19),64,208;_localtime_buf:(94,11),288,288;_gamma_signgam:(0,3),576,32;_rand_next:(0,14),608,64;_r48:(94,78),672,112;_mblen_state:(95,8),800,64;_mbtowc_state:(95,8),864,64;_wctomb_state:(95,8),928,64;_l64a_buf:(94,94)=ar(2,57);0;7;(0,19),992,64;_signal_buf:(94,95)=ar(2,57);0;23;(0,19),1056,192;_getdate_err:(0,3),1248,32;_mbrlen_state:(95,8),1280,64;_mbrtowc_state:(95,8),1344,64;_mbsrtowcs_state:(95,8),1408,64;_wcrtomb_state:(95,8),1472,64;_wcsrtombs_state:(95,8),1536,64;_h_errno:(0,3),1600,32;operator=::(94,96)=#(94,92),(94,97)=&(94,92),(94,98)=*(94,92),(94,99)=&(94,100)=k(94,92),(0,6);:_ZN6_reent4$_254$_26aSERKS1_;2A.;__base_ctor::(94,101)=#(94,92),(0,6),(94,98),(94,99),(0,6);:_ZN6_reent4$_254$_26C2ERKS1_;2A.;__comp_ctor::(94,101):_ZN6_reent4$_254$_26C1ERKS1_;2A.;__base_ctor::(94,102)=#(94,92),(0,6),(94,98),(0,6);:_ZN6_reent4$_254$_26C2Ev;2A.;__comp_ctor::(94,102):_ZN6_reent4$_254$_26C1Ev;2A.;;,0,1632;_unused:(94,103)=s240_nextf:(94,104)=ar(2,57);0;29;(94,40),0,960;_nmalloc:(94,105)=ar(2,57);0;29;(0,17),960,960;operator=::(94,106)=#(94,103),(94,107)=&(94,103),(94,108)=*(94,103),(94,109)=&(94,110)=k(94,103),(0,6);:_ZN6_reent4$_254$_27aSERKS1_;2A.;__base_ctor::(94,111)=#(94,103),(0,6),(94,108),(94,109),(0,6);:_ZN6_reent4$_254$_27C2ERKS1_;2A.;__comp_ctor::(94,111):_ZN6_reent4$_254$_27C1ERKS1_;2A.;__base_ctor::(94,112)=#(94,103),(0,6),(94,108),(0,6);:_ZN6_reent4$_254$_27C2Ev;2A.;__comp_ctor::(94,112):_ZN6_reent4$_254$_27C1Ev;2A.;;,0,1920;operator=::(94,113)=#(94,91),(94,114)=&(94,91),(94,115)=*(94,91),(94,116)=&(94,117)=k(94,91),(0,6);:_ZN6_reent4$_25aSERKS0_;2A.;__base_ctor::(94,118)=#(94,91),(0,6),(94,115),(94,116),(0,6);:_ZN6_reent4$_25C2ERKS0_;2A.;__comp_ctor::(94,118):_ZN6_reent4$_25C1ERKS0_;2A.;__base_ctor::(94,119)=#(94,91),(0,6),(94,115),(0,6);:_ZN6_reent4$_25C2Ev;2A.;__comp_ctor::(94,119):_ZN6_reent4$_25C1Ev;2A.;;,704,1920;_atexit:(94,29),2624,32;_atexit0:(94,28),2656,3200;_sig_func:(94,120)=*(94,121)=*(94,122)=f(0,6),5856,32;__sglue:(94,69),5888,96;__sf:(94,123)=ar(2,57);0;2;(94,68),5984,2400;operator=::(94,124)=#(94,60),(94,125)=&(94,60),(94,59),(94,126)=&(94,127)=k(94,60),(0,6);:_ZN6_reentaSERKS_;2A.;__base_ctor::(94,128)=#(94,60),(0,6),(94,59),(94,126),(0,6);:_ZN6_reentC2ERKS_;2A.;__comp_ctor::(94,128):_ZN6_reentC1ERKS_;2A.;__base_ctor::(94,129)=#(94,60),(0,6),(94,59),(0,6);:_ZN6_reentC2Ev;2A.;__comp_ctor::(94,129):_ZN6_reentC1Ev;2A.;;",128,0,581,0
	.stabn	162,0,0,0
	.stabs	"/Applications/MoSync/include/newlib/malloc.h",130,0,0,0
	.stabs	"mallinfo:Tt(99,1)=s40arena:(0,3),0,32;ordblks:(0,3),32,32;smblks:(0,3),64,32;hblks:(0,3),96,32;hblkhd:(0,3),128,32;usmblks:(0,3),160,32;fsmblks:(0,3),192,32;uordblks:(0,3),224,32;fordblks:(0,3),256,32;keepcost:(0,3),288,32;operator=::(99,2)=#(99,1),(99,3)=&(99,1),(99,4)=*(99,1),(99,5)=&(99,6)=k(99,1),(0,6);:_ZN8mallinfoaSERKS_;2A.;__base_ctor::(99,7)=#(99,1),(0,6),(99,4),(99,5),(0,6);:_ZN8mallinfoC2ERKS_;2A.;__comp_ctor::(99,7):_ZN8mallinfoC1ERKS_;2A.;__base_ctor::(99,8)=#(99,1),(0,6),(99,4),(0,6);:_ZN8mallinfoC2Ev;2A.;__comp_ctor::(99,8):_ZN8mallinfoC1Ev;2A.;;",128,0,24,0
	.stabn	162,0,0,0
	.stabs	"div_t:t(93,1)=s8quot:(0,3),0,32;rem:(0,3),32,32;operator=::(93,2)=#(93,1),(93,3)=&(93,1),(93,4)=*(93,1),(93,5)=&(93,6)=k(93,1),(0,6);:_ZN5div_taSERKS_;2A.;__base_ctor::(93,7)=#(93,1),(0,6),(93,4),(93,5),(0,6);:_ZN5div_tC2ERKS_;2A.;__comp_ctor::(93,7):_ZN5div_tC1ERKS_;2A.;__base_ctor::(93,8)=#(93,1),(0,6),(93,4),(0,6);:_ZN5div_tC2Ev;2A.;__comp_ctor::(93,8):_ZN5div_tC1Ev;2A.;;",128,0,35,0
	.stabs	"ldiv_t:t(93,9)=s8quot:(0,18),0,32;rem:(0,18),32,32;operator=::(93,10)=#(93,9),(93,11)=&(93,9),(93,12)=*(93,9),(93,13)=&(93,14)=k(93,9),(0,6);:_ZN6ldiv_taSERKS_;2A.;__base_ctor::(93,15)=#(93,9),(0,6),(93,12),(93,13),(0,6);:_ZN6ldiv_tC2ERKS_;2A.;__comp_ctor::(93,15):_ZN6ldiv_tC1ERKS_;2A.;__base_ctor::(93,16)=#(93,9),(0,6),(93,12),(0,6);:_ZN6ldiv_tC2Ev;2A.;__comp_ctor::(93,16):_ZN6ldiv_tC1Ev;2A.;;",128,0,41,0
	.stabs	"lldiv_t:t(93,17)=s16quot:(0,15),0,64;rem:(0,15),64,64;operator=::(93,18)=#(93,17),(93,19)=&(93,17),(93,20)=*(93,17),(93,21)=&(93,22)=k(93,17),(0,6);:_ZN7lldiv_taSERKS_;2A.;__base_ctor::(93,23)=#(93,17),(0,6),(93,20),(93,21),(0,6);:_ZN7lldiv_tC2ERKS_;2A.;__comp_ctor::(93,23):_ZN7lldiv_tC1ERKS_;2A.;__base_ctor::(93,24)=#(93,17),(0,6),(93,20),(0,6);:_ZN7lldiv_tC2Ev;2A.;__comp_ctor::(93,24):_ZN7lldiv_tC1Ev;2A.;;",128,0,48,0
	.stabn	162,0,0,0
	.stabn	162,0,0,0
	.stabs	"/Applications/MoSync/include/newlib/stlport/stl/_cmath.h",130,0,0,0
	.stabs	"/Applications/MoSync/include/newlib/stlport/math.h",130,0,0,0
	.stabs	"/Applications/MoSync/include/newlib/stlport/../math.h",130,0,0,0
	.stabs	"__dmath:Tt(102,1)=u8d:(0,8),0,64;i:(102,2)=ar(2,57);0;1;(94,1),0,64;operator=::(102,3)=#(102,1),(102,4)=&(102,1),(102,5)=*(102,1),(102,6)=&(102,7)=k(102,1),(0,6);:_ZN7__dmathaSERKS_;2A.;__base_ctor::(102,8)=#(102,1),(0,6),(102,5),(102,6),(0,6);:_ZN7__dmathC2ERKS_;2A.;__comp_ctor::(102,8):_ZN7__dmathC1ERKS_;2A.;__base_ctor::(102,9)=#(102,1),(0,6),(102,5),(0,6);:_ZN7__dmathC2Ev;2A.;__comp_ctor::(102,9):_ZN7__dmathC1Ev;2A.;;",128,0,15,0
	.stabs	"__fmath:Tt(102,10)=u4f:(0,9),0,32;i:(94,4),0,32;operator=::(102,11)=#(102,10),(102,12)=&(102,10),(102,13)=*(102,10),(102,14)=&(102,15)=k(102,10),(0,6);:_ZN7__fmathaSERKS_;2A.;__base_ctor::(102,16)=#(102,10),(0,6),(102,13),(102,14),(0,6);:_ZN7__fmathC2ERKS_;2A.;__comp_ctor::(102,16):_ZN7__fmathC1ERKS_;2A.;__base_ctor::(102,17)=#(102,10),(0,6),(102,13),(0,6);:_ZN7__fmathC2Ev;2A.;__comp_ctor::(102,17):_ZN7__fmathC1Ev;2A.;;",128,0,21,0
	.stabs	"float_t:t(102,18)=(0,9)",128,0,148,0
	.stabs	"double_t:t(102,19)=(0,8)",128,0,149,0
	.stabs	"__exception:Tt(102,20)=s36type:(0,3),0,32;name:(12,7),32,32;arg1:(0,8),64,64;arg2:(0,8),128,64;retval:(0,8),192,64;err:(0,3),256,32;operator=::(102,21)=#(102,20),(102,22)=&(102,20),(102,23)=*(102,20),(102,24)=&(102,25)=k(102,20),(0,6);:_ZN11__exceptionaSERKS_;2A.;__base_ctor::(102,26)=#(102,20),(0,6),(102,23),(102,24),(0,6);:_ZN11__exceptionC2ERKS_;2A.;__comp_ctor::(102,26):_ZN11__exceptionC1ERKS_;2A.;__base_ctor::(102,27)=#(102,20),(0,6),(102,23),(0,6);:_ZN11__exceptionC2Ev;2A.;__comp_ctor::(102,27):_ZN11__exceptionC1Ev;2A.;;",128,0,501,0
	.stabs	"__fdlibm_version:t(102,28)=e__fdlibm_ieee:-1,__fdlibm_svid:0,__fdlibm_xopen:1,__fdlibm_posix:2,;",128,0,555,0
	.stabn	162,0,0,0
	.stabn	162,0,0,0
	.stabn	162,0,0,0
	.stabn	162,0,0,0
	.stabs	"/Applications/MoSync/include/newlib/stlport/stl/_algobase.h",130,0,0,0
	.stabs	"/Applications/MoSync/include/newlib/stlport/stl/_pair.h",130,0,0,0
	.stabs	"/Applications/MoSync/include/newlib/stlport/stl/type_traits.h",130,0,0,0
	.stabs	"/Applications/MoSync/include/newlib/stlport/stl/type_manips.h",130,0,0,0
	.stabs	"__true_type:Tt(106,1)=s1operator=::(106,2)=#(106,1),(106,3)=&(106,1),(106,4)=*(106,1),(106,5)=&(106,6)=k(106,1),(0,6);:_ZN11stlpmtx_std11__true_typeaSERKS0_;2A.;__base_ctor::(106,7)=#(106,1),(0,6),(106,4),(106,5),(0,6);:_ZN11stlpmtx_std11__true_typeC2ERKS0_;2A.;__comp_ctor::(106,7):_ZN11stlpmtx_std11__true_typeC1ERKS0_;2A.;__base_ctor::(106,8)=#(106,1),(0,6),(106,4),(0,6);:_ZN11stlpmtx_std11__true_typeC2Ev;2A.;__comp_ctor::(106,8):_ZN11stlpmtx_std11__true_typeC1Ev;2A.;;",128,0,23,0
	.stabs	"__false_type:Tt(106,9)=s1operator=::(106,10)=#(106,9),(106,11)=&(106,9),(106,12)=*(106,9),(106,13)=&(106,14)=k(106,9),(0,6);:_ZN11stlpmtx_std12__false_typeaSERKS0_;2A.;__base_ctor::(106,15)=#(106,9),(0,6),(106,12),(106,13),(0,6);:_ZN11stlpmtx_std12__false_typeC2ERKS0_;2A.;__comp_ctor::(106,15):_ZN11stlpmtx_std12__false_typeC1ERKS0_;2A.;__base_ctor::(106,16)=#(106,9),(0,6),(106,12),(0,6);:_ZN11stlpmtx_std12__false_typeC2Ev;2A.;__comp_ctor::(106,16):_ZN11stlpmtx_std12__false_typeC1Ev;2A.;;",128,0,24,0
	.stabs	"__bool2type<1>:Tt(106,17)=s1operator=::(106,18)=#(106,17),(106,19)=&(106,17),(106,20)=*(106,17),(106,21)=&(106,22)=k(106,17),(0,6);:_ZN11stlpmtx_std11__bool2typeILi1EEaSERKS1_;2A.;__base_ctor::(106,23)=#(106,17),(0,6),(106,20),(106,21),(0,6);:_ZN11stlpmtx_std11__bool2typeILi1EEC2ERKS1_;2A.;__comp_ctor::(106,23):_ZN11stlpmtx_std11__bool2typeILi1EEC1ERKS1_;2A.;__base_ctor::(106,24)=#(106,17),(0,6),(106,20),(0,6);:_ZN11stlpmtx_std11__bool2typeILi1EEC2Ev;2A.;__comp_ctor::(106,24):_ZN11stlpmtx_std11__bool2typeILi1EEC1Ev;2A.;;",128,0,39,0
	.stabs	"__bool2type<0>:Tt(106,25)=s1operator=::(106,26)=#(106,25),(106,27)=&(106,25),(106,28)=*(106,25),(106,29)=&(106,30)=k(106,25),(0,6);:_ZN11stlpmtx_std11__bool2typeILi0EEaSERKS1_;2A.;__base_ctor::(106,31)=#(106,25),(0,6),(106,28),(106,29),(0,6);:_ZN11stlpmtx_std11__bool2typeILi0EEC2ERKS1_;2A.;__comp_ctor::(106,31):_ZN11stlpmtx_std11__bool2typeILi0EEC1ERKS1_;2A.;__base_ctor::(106,32)=#(106,25),(0,6),(106,28),(0,6);:_ZN11stlpmtx_std11__bool2typeILi0EEC2Ev;2A.;__comp_ctor::(106,32):_ZN11stlpmtx_std11__bool2typeILi0EEC1Ev;2A.;;",128,0,42,0
	.stabs	"__type2bool<stlpmtx_std::__true_type>:Tt(106,33)=s1operator=::(106,34)=#(106,33),(106,35)=&(106,33),(106,36)=*(106,33),(106,37)=&(106,38)=k(106,33),(0,6);:_ZN11stlpmtx_std11__type2boolINS_11__true_typeEEaSERKS2_;2A.;__base_ctor::(106,39)=#(106,33),(0,6),(106,36),(106,37),(0,6);:_ZN11stlpmtx_std11__type2boolINS_11__true_typeEEC2ERKS2_;2A.;__comp_ctor::(106,39):_ZN11stlpmtx_std11__type2boolINS_11__true_typeEEC1ERKS2_;2A.;__base_ctor::(106,40)=#(106,33),(0,6),(106,36),(0,6);:_ZN11stlpmtx_std11__type2boolINS_11__true_typeEEC2Ev;2A.;__comp_ctor::(106,40):_ZN11stlpmtx_std11__type2boolINS_11__true_typeEEC1Ev;2A.;;",128,0,49,0
	.stabs	"__type2bool<stlpmtx_std::__false_type>:Tt(106,41)=s1operator=::(106,42)=#(106,41),(106,43)=&(106,41),(106,44)=*(106,41),(106,45)=&(106,46)=k(106,41),(0,6);:_ZN11stlpmtx_std11__type2boolINS_12__false_typeEEaSERKS2_;2A.;__base_ctor::(106,47)=#(106,41),(0,6),(106,44),(106,45),(0,6);:_ZN11stlpmtx_std11__type2boolINS_12__false_typeEEC2ERKS2_;2A.;__comp_ctor::(106,47):_ZN11stlpmtx_std11__type2boolINS_12__false_typeEEC1ERKS2_;2A.;__base_ctor::(106,48)=#(106,41),(0,6),(106,44),(0,6);:_ZN11stlpmtx_std11__type2boolINS_12__false_typeEEC2Ev;2A.;__comp_ctor::(106,48):_ZN11stlpmtx_std11__type2boolINS_12__false_typeEEC1Ev;2A.;;",128,0,52,0
	.stabs	"_Not<stlpmtx_std::__false_type>:Tt(106,49)=s1operator=::(106,50)=#(106,49),(106,51)=&(106,49),(106,52)=*(106,49),(106,53)=&(106,54)=k(106,49),(0,6);:_ZN11stlpmtx_std4_NotINS_12__false_typeEEaSERKS2_;2A.;__base_ctor::(106,55)=#(106,49),(0,6),(106,52),(106,53),(0,6);:_ZN11stlpmtx_std4_NotINS_12__false_typeEEC2ERKS2_;2A.;__comp_ctor::(106,55):_ZN11stlpmtx_std4_NotINS_12__false_typeEEC1ERKS2_;2A.;__base_ctor::(106,56)=#(106,49),(0,6),(106,52),(0,6);:_ZN11stlpmtx_std4_NotINS_12__false_typeEEC2Ev;2A.;__comp_ctor::(106,56):_ZN11stlpmtx_std4_NotINS_12__false_typeEEC1Ev;2A.;;",128,0,59,0
	.stabs	"_Land2<stlpmtx_std::__true_type,stlpmtx_std::__true_type>:Tt(106,57)=s1operator=::(106,58)=#(106,57),(106,59)=&(106,57),(106,60)=*(106,57),(106,61)=&(106,62)=k(106,57),(0,6);:_ZN11stlpmtx_std6_Land2INS_11__true_typeES1_EaSERKS2_;2A.;__base_ctor::(106,63)=#(106,57),(0,6),(106,60),(106,61),(0,6);:_ZN11stlpmtx_std6_Land2INS_11__true_typeES1_EC2ERKS2_;2A.;__comp_ctor::(106,63):_ZN11stlpmtx_std6_Land2INS_11__true_typeES1_EC1ERKS2_;2A.;__base_ctor::(106,64)=#(106,57),(0,6),(106,60),(0,6);:_ZN11stlpmtx_std6_Land2INS_11__true_typeES1_EC2Ev;2A.;__comp_ctor::(106,64):_ZN11stlpmtx_std6_Land2INS_11__true_typeES1_EC1Ev;2A.;;",128,0,66,0
	.stabs	"_Land3<stlpmtx_std::__true_type,stlpmtx_std::__true_type,stlpmtx_std::__true_type>:Tt(106,65)=s1operator=::(106,66)=#(106,65),(106,67)=&(106,65),(106,68)=*(106,65),(106,69)=&(106,70)=k(106,65),(0,6);:_ZN11stlpmtx_std6_Land3INS_11__true_typeES1_S1_EaSERKS2_;2A.;__base_ctor::(106,71)=#(106,65),(0,6),(106,68),(106,69),(0,6);:_ZN11stlpmtx_std6_Land3INS_11__true_typeES1_S1_EC2ERKS2_;2A.;__comp_ctor::(106,71):_ZN11stlpmtx_std6_Land3INS_11__true_typeES1_S1_EC1ERKS2_;2A.;__base_ctor::(106,72)=#(106,65),(0,6),(106,68),(0,6);:_ZN11stlpmtx_std6_Land3INS_11__true_typeES1_S1_EC2Ev;2A.;__comp_ctor::(106,72):_ZN11stlpmtx_std6_Land3INS_11__true_typeES1_S1_EC1Ev;2A.;;",128,0,73,0
	.stabs	"_Lor2<stlpmtx_std::__false_type,stlpmtx_std::__false_type>:Tt(106,73)=s1operator=::(106,74)=#(106,73),(106,75)=&(106,73),(106,76)=*(106,73),(106,77)=&(106,78)=k(106,73),(0,6);:_ZN11stlpmtx_std5_Lor2INS_12__false_typeES1_EaSERKS2_;2A.;__base_ctor::(106,79)=#(106,73),(0,6),(106,76),(106,77),(0,6);:_ZN11stlpmtx_std5_Lor2INS_12__false_typeES1_EC2ERKS2_;2A.;__comp_ctor::(106,79):_ZN11stlpmtx_std5_Lor2INS_12__false_typeES1_EC1ERKS2_;2A.;__base_ctor::(106,80)=#(106,73),(0,6),(106,76),(0,6);:_ZN11stlpmtx_std5_Lor2INS_12__false_typeES1_EC2Ev;2A.;__comp_ctor::(106,80):_ZN11stlpmtx_std5_Lor2INS_12__false_typeES1_EC1Ev;2A.;;",128,0,80,0
	.stabs	"_Lor3<stlpmtx_std::__false_type,stlpmtx_std::__false_type,stlpmtx_std::__false_type>:Tt(106,81)=s1operator=::(106,82)=#(106,81),(106,83)=&(106,81),(106,84)=*(106,81),(106,85)=&(106,86)=k(106,81),(0,6);:_ZN11stlpmtx_std5_Lor3INS_12__false_typeES1_S1_EaSERKS2_;2A.;__base_ctor::(106,87)=#(106,81),(0,6),(106,84),(106,85),(0,6);:_ZN11stlpmtx_std5_Lor3INS_12__false_typeES1_S1_EC2ERKS2_;2A.;__comp_ctor::(106,87):_ZN11stlpmtx_std5_Lor3INS_12__false_typeES1_S1_EC1ERKS2_;2A.;__base_ctor::(106,88)=#(106,81),(0,6),(106,84),(0,6);:_ZN11stlpmtx_std5_Lor3INS_12__false_typeES1_S1_EC2Ev;2A.;__comp_ctor::(106,88):_ZN11stlpmtx_std5_Lor3INS_12__false_typeES1_S1_EC1Ev;2A.;;",128,0,87,0
	.stabs	"_NoVolatilePointerShim:Tt(106,89)=s1__base_ctor::(106,90)=#(106,89),(0,6),(106,91)=*(106,89),(15,5),(0,6);:_ZN11stlpmtx_std22_NoVolatilePointerShimC2EPKv;2A.;__comp_ctor::(106,90):_ZN11stlpmtx_std22_NoVolatilePointerShimC1EPKv;2A.;operator=::(106,92)=#(106,89),(106,93)=&(106,89),(106,91),(106,94)=&(106,95)=k(106,89),(0,6);:_ZN11stlpmtx_std22_NoVolatilePointerShimaSERKS0_;2A.;__base_ctor::(106,96)=#(106,89),(0,6),(106,91),(106,94),(0,6);:_ZN11stlpmtx_std22_NoVolatilePointerShimC2ERKS0_;2A.;__comp_ctor::(106,96):_ZN11stlpmtx_std22_NoVolatilePointerShimC1ERKS0_;2A.;;",128,0,164,0
	.stabn	162,0,0,0
	.stabs	"_IsIntegral<bool>:Tt(105,1)=s1operator=::(105,2)=#(105,1),(105,3)=&(105,1),(105,4)=*(105,1),(105,5)=&(105,6)=k(105,1),(0,6);:_ZN11stlpmtx_std11_IsIntegralIbEaSERKS1_;2A.;__base_ctor::(105,7)=#(105,1),(0,6),(105,4),(105,5),(0,6);:_ZN11stlpmtx_std11_IsIntegralIbEC2ERKS1_;2A.;__comp_ctor::(105,7):_ZN11stlpmtx_std11_IsIntegralIbEC1ERKS1_;2A.;__base_ctor::(105,8)=#(105,1),(0,6),(105,4),(0,6);:_ZN11stlpmtx_std11_IsIntegralIbEC2Ev;2A.;__comp_ctor::(105,8):_ZN11stlpmtx_std11_IsIntegralIbEC1Ev;2A.;;",128,0,84,0
	.stabs	"_IsIntegral<char>:Tt(105,9)=s1operator=::(105,10)=#(105,9),(105,11)=&(105,9),(105,12)=*(105,9),(105,13)=&(105,14)=k(105,9),(0,6);:_ZN11stlpmtx_std11_IsIntegralIcEaSERKS1_;2A.;__base_ctor::(105,15)=#(105,9),(0,6),(105,12),(105,13),(0,6);:_ZN11stlpmtx_std11_IsIntegralIcEC2ERKS1_;2A.;__comp_ctor::(105,15):_ZN11stlpmtx_std11_IsIntegralIcEC1ERKS1_;2A.;__base_ctor::(105,16)=#(105,9),(0,6),(105,12),(0,6);:_ZN11stlpmtx_std11_IsIntegralIcEC2Ev;2A.;__comp_ctor::(105,16):_ZN11stlpmtx_std11_IsIntegralIcEC1Ev;2A.;;",128,0,88,0
	.stabs	"_IsIntegral<signed char>:Tt(105,17)=s1operator=::(105,18)=#(105,17),(105,19)=&(105,17),(105,20)=*(105,17),(105,21)=&(105,22)=k(105,17),(0,6);:_ZN11stlpmtx_std11_IsIntegralIaEaSERKS1_;2A.;__base_ctor::(105,23)=#(105,17),(0,6),(105,20),(105,21),(0,6);:_ZN11stlpmtx_std11_IsIntegralIaEC2ERKS1_;2A.;__comp_ctor::(105,23):_ZN11stlpmtx_std11_IsIntegralIaEC1ERKS1_;2A.;__base_ctor::(105,24)=#(105,17),(0,6),(105,20),(0,6);:_ZN11stlpmtx_std11_IsIntegralIaEC2Ev;2A.;__comp_ctor::(105,24):_ZN11stlpmtx_std11_IsIntegralIaEC1Ev;2A.;;",128,0,92,0
	.stabs	"_IsIntegral<unsigned char>:Tt(105,25)=s1operator=::(105,26)=#(105,25),(105,27)=&(105,25),(105,28)=*(105,25),(105,29)=&(105,30)=k(105,25),(0,6);:_ZN11stlpmtx_std11_IsIntegralIhEaSERKS1_;2A.;__base_ctor::(105,31)=#(105,25),(0,6),(105,28),(105,29),(0,6);:_ZN11stlpmtx_std11_IsIntegralIhEC2ERKS1_;2A.;__comp_ctor::(105,31):_ZN11stlpmtx_std11_IsIntegralIhEC1ERKS1_;2A.;__base_ctor::(105,32)=#(105,25),(0,6),(105,28),(0,6);:_ZN11stlpmtx_std11_IsIntegralIhEC2Ev;2A.;__comp_ctor::(105,32):_ZN11stlpmtx_std11_IsIntegralIhEC1Ev;2A.;;",128,0,96,0
	.stabs	"_IsIntegral<short int>:Tt(105,33)=s1operator=::(105,34)=#(105,33),(105,35)=&(105,33),(105,36)=*(105,33),(105,37)=&(105,38)=k(105,33),(0,6);:_ZN11stlpmtx_std11_IsIntegralIsEaSERKS1_;2A.;__base_ctor::(105,39)=#(105,33),(0,6),(105,36),(105,37),(0,6);:_ZN11stlpmtx_std11_IsIntegralIsEC2ERKS1_;2A.;__comp_ctor::(105,39):_ZN11stlpmtx_std11_IsIntegralIsEC1ERKS1_;2A.;__base_ctor::(105,40)=#(105,33),(0,6),(105,36),(0,6);:_ZN11stlpmtx_std11_IsIntegralIsEC2Ev;2A.;__comp_ctor::(105,40):_ZN11stlpmtx_std11_IsIntegralIsEC1Ev;2A.;;",128,0,104,0
	.stabs	"_IsIntegral<short unsigned int>:Tt(105,41)=s1operator=::(105,42)=#(105,41),(105,43)=&(105,41),(105,44)=*(105,41),(105,45)=&(105,46)=k(105,41),(0,6);:_ZN11stlpmtx_std11_IsIntegralItEaSERKS1_;2A.;__base_ctor::(105,47)=#(105,41),(0,6),(105,44),(105,45),(0,6);:_ZN11stlpmtx_std11_IsIntegralItEC2ERKS1_;2A.;__comp_ctor::(105,47):_ZN11stlpmtx_std11_IsIntegralItEC1ERKS1_;2A.;__base_ctor::(105,48)=#(105,41),(0,6),(105,44),(0,6);:_ZN11stlpmtx_std11_IsIntegralItEC2Ev;2A.;__comp_ctor::(105,48):_ZN11stlpmtx_std11_IsIntegralItEC1Ev;2A.;;",128,0,107,0
	.stabs	"_IsIntegral<int>:Tt(105,49)=s1operator=::(105,50)=#(105,49),(105,51)=&(105,49),(105,52)=*(105,49),(105,53)=&(105,54)=k(105,49),(0,6);:_ZN11stlpmtx_std11_IsIntegralIiEaSERKS1_;2A.;__base_ctor::(105,55)=#(105,49),(0,6),(105,52),(105,53),(0,6);:_ZN11stlpmtx_std11_IsIntegralIiEC2ERKS1_;2A.;__comp_ctor::(105,55):_ZN11stlpmtx_std11_IsIntegralIiEC1ERKS1_;2A.;__base_ctor::(105,56)=#(105,49),(0,6),(105,52),(0,6);:_ZN11stlpmtx_std11_IsIntegralIiEC2Ev;2A.;__comp_ctor::(105,56):_ZN11stlpmtx_std11_IsIntegralIiEC1Ev;2A.;;",128,0,110,0
	.stabs	"_IsIntegral<unsigned int>:Tt(105,57)=s1operator=::(105,58)=#(105,57),(105,59)=&(105,57),(105,60)=*(105,57),(105,61)=&(105,62)=k(105,57),(0,6);:_ZN11stlpmtx_std11_IsIntegralIjEaSERKS1_;2A.;__base_ctor::(105,63)=#(105,57),(0,6),(105,60),(105,61),(0,6);:_ZN11stlpmtx_std11_IsIntegralIjEC2ERKS1_;2A.;__comp_ctor::(105,63):_ZN11stlpmtx_std11_IsIntegralIjEC1ERKS1_;2A.;__base_ctor::(105,64)=#(105,57),(0,6),(105,60),(0,6);:_ZN11stlpmtx_std11_IsIntegralIjEC2Ev;2A.;__comp_ctor::(105,64):_ZN11stlpmtx_std11_IsIntegralIjEC1Ev;2A.;;",128,0,113,0
	.stabs	"_IsIntegral<long int>:Tt(105,65)=s1operator=::(105,66)=#(105,65),(105,67)=&(105,65),(105,68)=*(105,65),(105,69)=&(105,70)=k(105,65),(0,6);:_ZN11stlpmtx_std11_IsIntegralIlEaSERKS1_;2A.;__base_ctor::(105,71)=#(105,65),(0,6),(105,68),(105,69),(0,6);:_ZN11stlpmtx_std11_IsIntegralIlEC2ERKS1_;2A.;__comp_ctor::(105,71):_ZN11stlpmtx_std11_IsIntegralIlEC1ERKS1_;2A.;__base_ctor::(105,72)=#(105,65),(0,6),(105,68),(0,6);:_ZN11stlpmtx_std11_IsIntegralIlEC2Ev;2A.;__comp_ctor::(105,72):_ZN11stlpmtx_std11_IsIntegralIlEC1Ev;2A.;;",128,0,116,0
	.stabs	"_IsIntegral<long unsigned int>:Tt(105,73)=s1operator=::(105,74)=#(105,73),(105,75)=&(105,73),(105,76)=*(105,73),(105,77)=&(105,78)=k(105,73),(0,6);:_ZN11stlpmtx_std11_IsIntegralImEaSERKS1_;2A.;__base_ctor::(105,79)=#(105,73),(0,6),(105,76),(105,77),(0,6);:_ZN11stlpmtx_std11_IsIntegralImEC2ERKS1_;2A.;__comp_ctor::(105,79):_ZN11stlpmtx_std11_IsIntegralImEC1ERKS1_;2A.;__base_ctor::(105,80)=#(105,73),(0,6),(105,76),(0,6);:_ZN11stlpmtx_std11_IsIntegralImEC2Ev;2A.;__comp_ctor::(105,80):_ZN11stlpmtx_std11_IsIntegralImEC1Ev;2A.;;",128,0,119,0
	.stabs	"_IsIntegral<long long int>:Tt(105,81)=s1operator=::(105,82)=#(105,81),(105,83)=&(105,81),(105,84)=*(105,81),(105,85)=&(105,86)=k(105,81),(0,6);:_ZN11stlpmtx_std11_IsIntegralIxEaSERKS1_;2A.;__base_ctor::(105,87)=#(105,81),(0,6),(105,84),(105,85),(0,6);:_ZN11stlpmtx_std11_IsIntegralIxEC2ERKS1_;2A.;__comp_ctor::(105,87):_ZN11stlpmtx_std11_IsIntegralIxEC1ERKS1_;2A.;__base_ctor::(105,88)=#(105,81),(0,6),(105,84),(0,6);:_ZN11stlpmtx_std11_IsIntegralIxEC2Ev;2A.;__comp_ctor::(105,88):_ZN11stlpmtx_std11_IsIntegralIxEC1Ev;2A.;;",128,0,123,0
	.stabs	"_IsIntegral<long long unsigned int>:Tt(105,89)=s1operator=::(105,90)=#(105,89),(105,91)=&(105,89),(105,92)=*(105,89),(105,93)=&(105,94)=k(105,89),(0,6);:_ZN11stlpmtx_std11_IsIntegralIyEaSERKS1_;2A.;__base_ctor::(105,95)=#(105,89),(0,6),(105,92),(105,93),(0,6);:_ZN11stlpmtx_std11_IsIntegralIyEC2ERKS1_;2A.;__comp_ctor::(105,95):_ZN11stlpmtx_std11_IsIntegralIyEC1ERKS1_;2A.;__base_ctor::(105,96)=#(105,89),(0,6),(105,92),(0,6);:_ZN11stlpmtx_std11_IsIntegralIyEC2Ev;2A.;__comp_ctor::(105,96):_ZN11stlpmtx_std11_IsIntegralIyEC1Ev;2A.;;",128,0,126,0
	.stabs	"_IsRational<float>:Tt(105,97)=s1operator=::(105,98)=#(105,97),(105,99)=&(105,97),(105,100)=*(105,97),(105,101)=&(105,102)=k(105,97),(0,6);:_ZN11stlpmtx_std11_IsRationalIfEaSERKS1_;2A.;__base_ctor::(105,103)=#(105,97),(0,6),(105,100),(105,101),(0,6);:_ZN11stlpmtx_std11_IsRationalIfEC2ERKS1_;2A.;__comp_ctor::(105,103):_ZN11stlpmtx_std11_IsRationalIfEC1ERKS1_;2A.;__base_ctor::(105,104)=#(105,97),(0,6),(105,100),(0,6);:_ZN11stlpmtx_std11_IsRationalIfEC2Ev;2A.;__comp_ctor::(105,104):_ZN11stlpmtx_std11_IsRationalIfEC1Ev;2A.;;",128,0,133,0
	.stabs	"_IsRational<double>:Tt(105,105)=s1operator=::(105,106)=#(105,105),(105,107)=&(105,105),(105,108)=*(105,105),(105,109)=&(105,110)=k(105,105),(0,6);:_ZN11stlpmtx_std11_IsRationalIdEaSERKS1_;2A.;__base_ctor::(105,111)=#(105,105),(0,6),(105,108),(105,109),(0,6);:_ZN11stlpmtx_std11_IsRationalIdEC2ERKS1_;2A.;__comp_ctor::(105,111):_ZN11stlpmtx_std11_IsRationalIdEC1ERKS1_;2A.;__base_ctor::(105,112)=#(105,105),(0,6),(105,108),(0,6);:_ZN11stlpmtx_std11_IsRationalIdEC2Ev;2A.;__comp_ctor::(105,112):_ZN11stlpmtx_std11_IsRationalIdEC1Ev;2A.;;",128,0,136,0
	.stabs	"__type_traits_aux<stlpmtx_std::__false_type>:Tt(105,113)=s1operator=::(105,114)=#(105,113),(105,115)=&(105,113),(105,116)=*(105,113),(105,117)=&(105,118)=k(105,113),(0,6);:_ZN11stlpmtx_std17__type_traits_auxINS_12__false_typeEEaSERKS2_;2A.;__base_ctor::(105,119)=#(105,113),(0,6),(105,116),(105,117),(0,6);:_ZN11stlpmtx_std17__type_traits_auxINS_12__false_typeEEC2ERKS2_;2A.;__comp_ctor::(105,119):_ZN11stlpmtx_std17__type_traits_auxINS_12__false_typeEEC1ERKS2_;2A.;__base_ctor::(105,120)=#(105,113),(0,6),(105,116),(0,6);:_ZN11stlpmtx_std17__type_traits_auxINS_12__false_typeEEC2Ev;2A.;__comp_ctor::(105,120):_ZN11stlpmtx_std17__type_traits_auxINS_12__false_typeEEC1Ev;2A.;;",128,0,154,0
	.stabs	"__type_traits_aux<stlpmtx_std::__true_type>:Tt(105,121)=s1operator=::(105,122)=#(105,121),(105,123)=&(105,121),(105,124)=*(105,121),(105,125)=&(105,126)=k(105,121),(0,6);:_ZN11stlpmtx_std17__type_traits_auxINS_11__true_typeEEaSERKS2_;2A.;__base_ctor::(105,127)=#(105,121),(0,6),(105,124),(105,125),(0,6);:_ZN11stlpmtx_std17__type_traits_auxINS_11__true_typeEEC2ERKS2_;2A.;__comp_ctor::(105,127):_ZN11stlpmtx_std17__type_traits_auxINS_11__true_typeEEC1ERKS2_;2A.;__base_ctor::(105,128)=#(105,121),(0,6),(105,124),(0,6);:_ZN11stlpmtx_std17__type_traits_auxINS_11__true_typeEEC2Ev;2A.;__comp_ctor::(105,128):_ZN11stlpmtx_std17__type_traits_auxINS_11__true_typeEEC1Ev;2A.;;",128,0,163,0
	.stabs	"__type_traits<bool>:Tt(105,129)=s1!1,020,(105,121);operator=::(105,130)=#(105,129),(105,131)=&(105,129),(105,132)=*(105,129),(105,133)=&(105,134)=k(105,129),(0,6);:_ZN11stlpmtx_std13__type_traitsIbEaSERKS1_;2A.;__base_ctor::(105,135)=#(105,129),(0,6),(105,132),(105,133),(0,6);:_ZN11stlpmtx_std13__type_traitsIbEC2ERKS1_;2A.;__comp_ctor::(105,135):_ZN11stlpmtx_std13__type_traitsIbEC1ERKS1_;2A.;__base_ctor::(105,136)=#(105,129),(0,6),(105,132),(0,6);:_ZN11stlpmtx_std13__type_traitsIbEC2Ev;2A.;__comp_ctor::(105,136):_ZN11stlpmtx_std13__type_traitsIbEC1Ev;2A.;;",128,0,284,0
	.stabs	"__type_traits<const bool>:Tt(105,137)=s1!1,020,(105,121);operator=::(105,138)=#(105,137),(105,139)=&(105,137),(105,140)=*(105,137),(105,141)=&(105,142)=k(105,137),(0,6);:_ZN11stlpmtx_std13__type_traitsIKbEaSERKS2_;2A.;__base_ctor::(105,143)=#(105,137),(0,6),(105,140),(105,141),(0,6);:_ZN11stlpmtx_std13__type_traitsIKbEC2ERKS2_;2A.;__comp_ctor::(105,143):_ZN11stlpmtx_std13__type_traitsIKbEC1ERKS2_;2A.;__base_ctor::(105,144)=#(105,137),(0,6),(105,140),(0,6);:_ZN11stlpmtx_std13__type_traitsIKbEC2Ev;2A.;__comp_ctor::(105,144):_ZN11stlpmtx_std13__type_traitsIKbEC1Ev;2A.;;",128,0,284,0
	.stabs	"__type_traits<volatile bool>:Tt(105,145)=s1!1,020,(105,121);operator=::(105,146)=#(105,145),(105,147)=&(105,145),(105,148)=*(105,145),(105,149)=&(105,150)=k(105,145),(0,6);:_ZN11stlpmtx_std13__type_traitsIVbEaSERKS2_;2A.;__base_ctor::(105,151)=#(105,145),(0,6),(105,148),(105,149),(0,6);:_ZN11stlpmtx_std13__type_traitsIVbEC2ERKS2_;2A.;__comp_ctor::(105,151):_ZN11stlpmtx_std13__type_traitsIVbEC1ERKS2_;2A.;__base_ctor::(105,152)=#(105,145),(0,6),(105,148),(0,6);:_ZN11stlpmtx_std13__type_traitsIVbEC2Ev;2A.;__comp_ctor::(105,152):_ZN11stlpmtx_std13__type_traitsIVbEC1Ev;2A.;;",128,0,284,0
	.stabs	"__type_traits<const volatile bool>:Tt(105,153)=s1!1,020,(105,121);operator=::(105,154)=#(105,153),(105,155)=&(105,153),(105,156)=*(105,153),(105,157)=&(105,158)=k(105,153),(0,6);:_ZN11stlpmtx_std13__type_traitsIVKbEaSERKS2_;2A.;__base_ctor::(105,159)=#(105,153),(0,6),(105,156),(105,157),(0,6);:_ZN11stlpmtx_std13__type_traitsIVKbEC2ERKS2_;2A.;__comp_ctor::(105,159):_ZN11stlpmtx_std13__type_traitsIVKbEC1ERKS2_;2A.;__base_ctor::(105,160)=#(105,153),(0,6),(105,156),(0,6);:_ZN11stlpmtx_std13__type_traitsIVKbEC2Ev;2A.;__comp_ctor::(105,160):_ZN11stlpmtx_std13__type_traitsIVKbEC1Ev;2A.;;",128,0,284,0
	.stabs	"__type_traits<char>:Tt(105,161)=s1!1,020,(105,121);operator=::(105,162)=#(105,161),(105,163)=&(105,161),(105,164)=*(105,161),(105,165)=&(105,166)=k(105,161),(0,6);:_ZN11stlpmtx_std13__type_traitsIcEaSERKS1_;2A.;__base_ctor::(105,167)=#(105,161),(0,6),(105,164),(105,165),(0,6);:_ZN11stlpmtx_std13__type_traitsIcEC2ERKS1_;2A.;__comp_ctor::(105,167):_ZN11stlpmtx_std13__type_traitsIcEC1ERKS1_;2A.;__base_ctor::(105,168)=#(105,161),(0,6),(105,164),(0,6);:_ZN11stlpmtx_std13__type_traitsIcEC2Ev;2A.;__comp_ctor::(105,168):_ZN11stlpmtx_std13__type_traitsIcEC1Ev;2A.;;",128,0,286,0
	.stabs	"__type_traits<const char>:Tt(105,169)=s1!1,020,(105,121);operator=::(105,170)=#(105,169),(105,171)=&(105,169),(105,172)=*(105,169),(105,173)=&(105,174)=k(105,169),(0,6);:_ZN11stlpmtx_std13__type_traitsIKcEaSERKS2_;2A.;__base_ctor::(105,175)=#(105,169),(0,6),(105,172),(105,173),(0,6);:_ZN11stlpmtx_std13__type_traitsIKcEC2ERKS2_;2A.;__comp_ctor::(105,175):_ZN11stlpmtx_std13__type_traitsIKcEC1ERKS2_;2A.;__base_ctor::(105,176)=#(105,169),(0,6),(105,172),(0,6);:_ZN11stlpmtx_std13__type_traitsIKcEC2Ev;2A.;__comp_ctor::(105,176):_ZN11stlpmtx_std13__type_traitsIKcEC1Ev;2A.;;",128,0,286,0
	.stabs	"__type_traits<volatile char>:Tt(105,177)=s1!1,020,(105,121);operator=::(105,178)=#(105,177),(105,179)=&(105,177),(105,180)=*(105,177),(105,181)=&(105,182)=k(105,177),(0,6);:_ZN11stlpmtx_std13__type_traitsIVcEaSERKS2_;2A.;__base_ctor::(105,183)=#(105,177),(0,6),(105,180),(105,181),(0,6);:_ZN11stlpmtx_std13__type_traitsIVcEC2ERKS2_;2A.;__comp_ctor::(105,183):_ZN11stlpmtx_std13__type_traitsIVcEC1ERKS2_;2A.;__base_ctor::(105,184)=#(105,177),(0,6),(105,180),(0,6);:_ZN11stlpmtx_std13__type_traitsIVcEC2Ev;2A.;__comp_ctor::(105,184):_ZN11stlpmtx_std13__type_traitsIVcEC1Ev;2A.;;",128,0,286,0
	.stabs	"__type_traits<const volatile char>:Tt(105,185)=s1!1,020,(105,121);operator=::(105,186)=#(105,185),(105,187)=&(105,185),(105,188)=*(105,185),(105,189)=&(105,190)=k(105,185),(0,6);:_ZN11stlpmtx_std13__type_traitsIVKcEaSERKS2_;2A.;__base_ctor::(105,191)=#(105,185),(0,6),(105,188),(105,189),(0,6);:_ZN11stlpmtx_std13__type_traitsIVKcEC2ERKS2_;2A.;__comp_ctor::(105,191):_ZN11stlpmtx_std13__type_traitsIVKcEC1ERKS2_;2A.;__base_ctor::(105,192)=#(105,185),(0,6),(105,188),(0,6);:_ZN11stlpmtx_std13__type_traitsIVKcEC2Ev;2A.;__comp_ctor::(105,192):_ZN11stlpmtx_std13__type_traitsIVKcEC1Ev;2A.;;",128,0,286,0
	.stabs	"__type_traits<signed char>:Tt(105,193)=s1!1,020,(105,121);operator=::(105,194)=#(105,193),(105,195)=&(105,193),(105,196)=*(105,193),(105,197)=&(105,198)=k(105,193),(0,6);:_ZN11stlpmtx_std13__type_traitsIaEaSERKS1_;2A.;__base_ctor::(105,199)=#(105,193),(0,6),(105,196),(105,197),(0,6);:_ZN11stlpmtx_std13__type_traitsIaEC2ERKS1_;2A.;__comp_ctor::(105,199):_ZN11stlpmtx_std13__type_traitsIaEC1ERKS1_;2A.;__base_ctor::(105,200)=#(105,193),(0,6),(105,196),(0,6);:_ZN11stlpmtx_std13__type_traitsIaEC2Ev;2A.;__comp_ctor::(105,200):_ZN11stlpmtx_std13__type_traitsIaEC1Ev;2A.;;",128,0,288,0
	.stabs	"__type_traits<const signed char>:Tt(105,201)=s1!1,020,(105,121);operator=::(105,202)=#(105,201),(105,203)=&(105,201),(105,204)=*(105,201),(105,205)=&(105,206)=k(105,201),(0,6);:_ZN11stlpmtx_std13__type_traitsIKaEaSERKS2_;2A.;__base_ctor::(105,207)=#(105,201),(0,6),(105,204),(105,205),(0,6);:_ZN11stlpmtx_std13__type_traitsIKaEC2ERKS2_;2A.;__comp_ctor::(105,207):_ZN11stlpmtx_std13__type_traitsIKaEC1ERKS2_;2A.;__base_ctor::(105,208)=#(105,201),(0,6),(105,204),(0,6);:_ZN11stlpmtx_std13__type_traitsIKaEC2Ev;2A.;__comp_ctor::(105,208):_ZN11stlpmtx_std13__type_traitsIKaEC1Ev;2A.;;",128,0,288,0
	.stabs	"__type_traits<volatile signed char>:Tt(105,209)=s1!1,020,(105,121);operator=::(105,210)=#(105,209),(105,211)=&(105,209),(105,212)=*(105,209),(105,213)=&(105,214)=k(105,209),(0,6);:_ZN11stlpmtx_std13__type_traitsIVaEaSERKS2_;2A.;__base_ctor::(105,215)=#(105,209),(0,6),(105,212),(105,213),(0,6);:_ZN11stlpmtx_std13__type_traitsIVaEC2ERKS2_;2A.;__comp_ctor::(105,215):_ZN11stlpmtx_std13__type_traitsIVaEC1ERKS2_;2A.;__base_ctor::(105,216)=#(105,209),(0,6),(105,212),(0,6);:_ZN11stlpmtx_std13__type_traitsIVaEC2Ev;2A.;__comp_ctor::(105,216):_ZN11stlpmtx_std13__type_traitsIVaEC1Ev;2A.;;",128,0,288,0
	.stabs	"__type_traits<const volatile signed char>:Tt(105,217)=s1!1,020,(105,121);operator=::(105,218)=#(105,217),(105,219)=&(105,217),(105,220)=*(105,217),(105,221)=&(105,222)=k(105,217),(0,6);:_ZN11stlpmtx_std13__type_traitsIVKaEaSERKS2_;2A.;__base_ctor::(105,223)=#(105,217),(0,6),(105,220),(105,221),(0,6);:_ZN11stlpmtx_std13__type_traitsIVKaEC2ERKS2_;2A.;__comp_ctor::(105,223):_ZN11stlpmtx_std13__type_traitsIVKaEC1ERKS2_;2A.;__base_ctor::(105,224)=#(105,217),(0,6),(105,220),(0,6);:_ZN11stlpmtx_std13__type_traitsIVKaEC2Ev;2A.;__comp_ctor::(105,224):_ZN11stlpmtx_std13__type_traitsIVKaEC1Ev;2A.;;",128,0,288,0
	.stabs	"__type_traits<unsigned char>:Tt(105,225)=s1!1,020,(105,121);operator=::(105,226)=#(105,225),(105,227)=&(105,225),(105,228)=*(105,225),(105,229)=&(105,230)=k(105,225),(0,6);:_ZN11stlpmtx_std13__type_traitsIhEaSERKS1_;2A.;__base_ctor::(105,231)=#(105,225),(0,6),(105,228),(105,229),(0,6);:_ZN11stlpmtx_std13__type_traitsIhEC2ERKS1_;2A.;__comp_ctor::(105,231):_ZN11stlpmtx_std13__type_traitsIhEC1ERKS1_;2A.;__base_ctor::(105,232)=#(105,225),(0,6),(105,228),(0,6);:_ZN11stlpmtx_std13__type_traitsIhEC2Ev;2A.;__comp_ctor::(105,232):_ZN11stlpmtx_std13__type_traitsIhEC1Ev;2A.;;",128,0,290,0
	.stabs	"__type_traits<const unsigned char>:Tt(105,233)=s1!1,020,(105,121);operator=::(105,234)=#(105,233),(105,235)=&(105,233),(105,236)=*(105,233),(105,237)=&(105,238)=k(105,233),(0,6);:_ZN11stlpmtx_std13__type_traitsIKhEaSERKS2_;2A.;__base_ctor::(105,239)=#(105,233),(0,6),(105,236),(105,237),(0,6);:_ZN11stlpmtx_std13__type_traitsIKhEC2ERKS2_;2A.;__comp_ctor::(105,239):_ZN11stlpmtx_std13__type_traitsIKhEC1ERKS2_;2A.;__base_ctor::(105,240)=#(105,233),(0,6),(105,236),(0,6);:_ZN11stlpmtx_std13__type_traitsIKhEC2Ev;2A.;__comp_ctor::(105,240):_ZN11stlpmtx_std13__type_traitsIKhEC1Ev;2A.;;",128,0,290,0
	.stabs	"__type_traits<volatile unsigned char>:Tt(105,241)=s1!1,020,(105,121);operator=::(105,242)=#(105,241),(105,243)=&(105,241),(105,244)=*(105,241),(105,245)=&(105,246)=k(105,241),(0,6);:_ZN11stlpmtx_std13__type_traitsIVhEaSERKS2_;2A.;__base_ctor::(105,247)=#(105,241),(0,6),(105,244),(105,245),(0,6);:_ZN11stlpmtx_std13__type_traitsIVhEC2ERKS2_;2A.;__comp_ctor::(105,247):_ZN11stlpmtx_std13__type_traitsIVhEC1ERKS2_;2A.;__base_ctor::(105,248)=#(105,241),(0,6),(105,244),(0,6);:_ZN11stlpmtx_std13__type_traitsIVhEC2Ev;2A.;__comp_ctor::(105,248):_ZN11stlpmtx_std13__type_traitsIVhEC1Ev;2A.;;",128,0,290,0
	.stabs	"__type_traits<const volatile unsigned char>:Tt(105,249)=s1!1,020,(105,121);operator=::(105,250)=#(105,249),(105,251)=&(105,249),(105,252)=*(105,249),(105,253)=&(105,254)=k(105,249),(0,6);:_ZN11stlpmtx_std13__type_traitsIVKhEaSERKS2_;2A.;__base_ctor::(105,255)=#(105,249),(0,6),(105,252),(105,253),(0,6);:_ZN11stlpmtx_std13__type_traitsIVKhEC2ERKS2_;2A.;__comp_ctor::(105,255):_ZN11stlpmtx_std13__type_traitsIVKhEC1ERKS2_;2A.;__base_ctor::(105,256)=#(105,249),(0,6),(105,252),(0,6);:_ZN11stlpmtx_std13__type_traitsIVKhEC2Ev;2A.;__comp_ctor::(105,256):_ZN11stlpmtx_std13__type_traitsIVKhEC1Ev;2A.;;",128,0,290,0
	.stabs	"__type_traits<short int>:Tt(105,257)=s1!1,020,(105,121);operator=::(105,258)=#(105,257),(105,259)=&(105,257),(105,260)=*(105,257),(105,261)=&(105,262)=k(105,257),(0,6);:_ZN11stlpmtx_std13__type_traitsIsEaSERKS1_;2A.;__base_ctor::(105,263)=#(105,257),(0,6),(105,260),(105,261),(0,6);:_ZN11stlpmtx_std13__type_traitsIsEC2ERKS1_;2A.;__comp_ctor::(105,263):_ZN11stlpmtx_std13__type_traitsIsEC1ERKS1_;2A.;__base_ctor::(105,264)=#(105,257),(0,6),(105,260),(0,6);:_ZN11stlpmtx_std13__type_traitsIsEC2Ev;2A.;__comp_ctor::(105,264):_ZN11stlpmtx_std13__type_traitsIsEC1Ev;2A.;;",128,0,295,0
	.stabs	"__type_traits<const short int>:Tt(105,265)=s1!1,020,(105,121);operator=::(105,266)=#(105,265),(105,267)=&(105,265),(105,268)=*(105,265),(105,269)=&(105,270)=k(105,265),(0,6);:_ZN11stlpmtx_std13__type_traitsIKsEaSERKS2_;2A.;__base_ctor::(105,271)=#(105,265),(0,6),(105,268),(105,269),(0,6);:_ZN11stlpmtx_std13__type_traitsIKsEC2ERKS2_;2A.;__comp_ctor::(105,271):_ZN11stlpmtx_std13__type_traitsIKsEC1ERKS2_;2A.;__base_ctor::(105,272)=#(105,265),(0,6),(105,268),(0,6);:_ZN11stlpmtx_std13__type_traitsIKsEC2Ev;2A.;__comp_ctor::(105,272):_ZN11stlpmtx_std13__type_traitsIKsEC1Ev;2A.;;",128,0,295,0
	.stabs	"__type_traits<volatile short int>:Tt(105,273)=s1!1,020,(105,121);operator=::(105,274)=#(105,273),(105,275)=&(105,273),(105,276)=*(105,273),(105,277)=&(105,278)=k(105,273),(0,6);:_ZN11stlpmtx_std13__type_traitsIVsEaSERKS2_;2A.;__base_ctor::(105,279)=#(105,273),(0,6),(105,276),(105,277),(0,6);:_ZN11stlpmtx_std13__type_traitsIVsEC2ERKS2_;2A.;__comp_ctor::(105,279):_ZN11stlpmtx_std13__type_traitsIVsEC1ERKS2_;2A.;__base_ctor::(105,280)=#(105,273),(0,6),(105,276),(0,6);:_ZN11stlpmtx_std13__type_traitsIVsEC2Ev;2A.;__comp_ctor::(105,280):_ZN11stlpmtx_std13__type_traitsIVsEC1Ev;2A.;;",128,0,295,0
	.stabs	"__type_traits<const volatile short int>:Tt(105,281)=s1!1,020,(105,121);operator=::(105,282)=#(105,281),(105,283)=&(105,281),(105,284)=*(105,281),(105,285)=&(105,286)=k(105,281),(0,6);:_ZN11stlpmtx_std13__type_traitsIVKsEaSERKS2_;2A.;__base_ctor::(105,287)=#(105,281),(0,6),(105,284),(105,285),(0,6);:_ZN11stlpmtx_std13__type_traitsIVKsEC2ERKS2_;2A.;__comp_ctor::(105,287):_ZN11stlpmtx_std13__type_traitsIVKsEC1ERKS2_;2A.;__base_ctor::(105,288)=#(105,281),(0,6),(105,284),(0,6);:_ZN11stlpmtx_std13__type_traitsIVKsEC2Ev;2A.;__comp_ctor::(105,288):_ZN11stlpmtx_std13__type_traitsIVKsEC1Ev;2A.;;",128,0,295,0
	.stabs	"__type_traits<short unsigned int>:Tt(105,289)=s1!1,020,(105,121);operator=::(105,290)=#(105,289),(105,291)=&(105,289),(105,292)=*(105,289),(105,293)=&(105,294)=k(105,289),(0,6);:_ZN11stlpmtx_std13__type_traitsItEaSERKS1_;2A.;__base_ctor::(105,295)=#(105,289),(0,6),(105,292),(105,293),(0,6);:_ZN11stlpmtx_std13__type_traitsItEC2ERKS1_;2A.;__comp_ctor::(105,295):_ZN11stlpmtx_std13__type_traitsItEC1ERKS1_;2A.;__base_ctor::(105,296)=#(105,289),(0,6),(105,292),(0,6);:_ZN11stlpmtx_std13__type_traitsItEC2Ev;2A.;__comp_ctor::(105,296):_ZN11stlpmtx_std13__type_traitsItEC1Ev;2A.;;",128,0,296,0
	.stabs	"__type_traits<const short unsigned int>:Tt(105,297)=s1!1,020,(105,121);operator=::(105,298)=#(105,297),(105,299)=&(105,297),(105,300)=*(105,297),(105,301)=&(105,302)=k(105,297),(0,6);:_ZN11stlpmtx_std13__type_traitsIKtEaSERKS2_;2A.;__base_ctor::(105,303)=#(105,297),(0,6),(105,300),(105,301),(0,6);:_ZN11stlpmtx_std13__type_traitsIKtEC2ERKS2_;2A.;__comp_ctor::(105,303):_ZN11stlpmtx_std13__type_traitsIKtEC1ERKS2_;2A.;__base_ctor::(105,304)=#(105,297),(0,6),(105,300),(0,6);:_ZN11stlpmtx_std13__type_traitsIKtEC2Ev;2A.;__comp_ctor::(105,304):_ZN11stlpmtx_std13__type_traitsIKtEC1Ev;2A.;;",128,0,296,0
	.stabs	"__type_traits<volatile short unsigned int>:Tt(105,305)=s1!1,020,(105,121);operator=::(105,306)=#(105,305),(105,307)=&(105,305),(105,308)=*(105,305),(105,309)=&(105,310)=k(105,305),(0,6);:_ZN11stlpmtx_std13__type_traitsIVtEaSERKS2_;2A.;__base_ctor::(105,311)=#(105,305),(0,6),(105,308),(105,309),(0,6);:_ZN11stlpmtx_std13__type_traitsIVtEC2ERKS2_;2A.;__comp_ctor::(105,311):_ZN11stlpmtx_std13__type_traitsIVtEC1ERKS2_;2A.;__base_ctor::(105,312)=#(105,305),(0,6),(105,308),(0,6);:_ZN11stlpmtx_std13__type_traitsIVtEC2Ev;2A.;__comp_ctor::(105,312):_ZN11stlpmtx_std13__type_traitsIVtEC1Ev;2A.;;",128,0,296,0
	.stabs	"__type_traits<const volatile short unsigned int>:Tt(105,313)=s1!1,020,(105,121);operator=::(105,314)=#(105,313),(105,315)=&(105,313),(105,316)=*(105,313),(105,317)=&(105,318)=k(105,313),(0,6);:_ZN11stlpmtx_std13__type_traitsIVKtEaSERKS2_;2A.;__base_ctor::(105,319)=#(105,313),(0,6),(105,316),(105,317),(0,6);:_ZN11stlpmtx_std13__type_traitsIVKtEC2ERKS2_;2A.;__comp_ctor::(105,319):_ZN11stlpmtx_std13__type_traitsIVKtEC1ERKS2_;2A.;__base_ctor::(105,320)=#(105,313),(0,6),(105,316),(0,6);:_ZN11stlpmtx_std13__type_traitsIVKtEC2Ev;2A.;__comp_ctor::(105,320):_ZN11stlpmtx_std13__type_traitsIVKtEC1Ev;2A.;;",128,0,296,0
	.stabs	"__type_traits<int>:Tt(105,321)=s1!1,020,(105,121);operator=::(105,322)=#(105,321),(105,323)=&(105,321),(105,324)=*(105,321),(105,325)=&(105,326)=k(105,321),(0,6);:_ZN11stlpmtx_std13__type_traitsIiEaSERKS1_;2A.;__base_ctor::(105,327)=#(105,321),(0,6),(105,324),(105,325),(0,6);:_ZN11stlpmtx_std13__type_traitsIiEC2ERKS1_;2A.;__comp_ctor::(105,327):_ZN11stlpmtx_std13__type_traitsIiEC1ERKS1_;2A.;__base_ctor::(105,328)=#(105,321),(0,6),(105,324),(0,6);:_ZN11stlpmtx_std13__type_traitsIiEC2Ev;2A.;__comp_ctor::(105,328):_ZN11stlpmtx_std13__type_traitsIiEC1Ev;2A.;;",128,0,297,0
	.stabs	"__type_traits<const int>:Tt(105,329)=s1!1,020,(105,121);operator=::(105,330)=#(105,329),(105,331)=&(105,329),(105,332)=*(105,329),(105,333)=&(105,334)=k(105,329),(0,6);:_ZN11stlpmtx_std13__type_traitsIKiEaSERKS2_;2A.;__base_ctor::(105,335)=#(105,329),(0,6),(105,332),(105,333),(0,6);:_ZN11stlpmtx_std13__type_traitsIKiEC2ERKS2_;2A.;__comp_ctor::(105,335):_ZN11stlpmtx_std13__type_traitsIKiEC1ERKS2_;2A.;__base_ctor::(105,336)=#(105,329),(0,6),(105,332),(0,6);:_ZN11stlpmtx_std13__type_traitsIKiEC2Ev;2A.;__comp_ctor::(105,336):_ZN11stlpmtx_std13__type_traitsIKiEC1Ev;2A.;;",128,0,297,0
	.stabs	"__type_traits<volatile int>:Tt(105,337)=s1!1,020,(105,121);operator=::(105,338)=#(105,337),(105,339)=&(105,337),(105,340)=*(105,337),(105,341)=&(105,342)=k(105,337),(0,6);:_ZN11stlpmtx_std13__type_traitsIViEaSERKS2_;2A.;__base_ctor::(105,343)=#(105,337),(0,6),(105,340),(105,341),(0,6);:_ZN11stlpmtx_std13__type_traitsIViEC2ERKS2_;2A.;__comp_ctor::(105,343):_ZN11stlpmtx_std13__type_traitsIViEC1ERKS2_;2A.;__base_ctor::(105,344)=#(105,337),(0,6),(105,340),(0,6);:_ZN11stlpmtx_std13__type_traitsIViEC2Ev;2A.;__comp_ctor::(105,344):_ZN11stlpmtx_std13__type_traitsIViEC1Ev;2A.;;",128,0,297,0
	.stabs	"__type_traits<const volatile int>:Tt(105,345)=s1!1,020,(105,121);operator=::(105,346)=#(105,345),(105,347)=&(105,345),(105,348)=*(105,345),(105,349)=&(105,350)=k(105,345),(0,6);:_ZN11stlpmtx_std13__type_traitsIVKiEaSERKS2_;2A.;__base_ctor::(105,351)=#(105,345),(0,6),(105,348),(105,349),(0,6);:_ZN11stlpmtx_std13__type_traitsIVKiEC2ERKS2_;2A.;__comp_ctor::(105,351):_ZN11stlpmtx_std13__type_traitsIVKiEC1ERKS2_;2A.;__base_ctor::(105,352)=#(105,345),(0,6),(105,348),(0,6);:_ZN11stlpmtx_std13__type_traitsIVKiEC2Ev;2A.;__comp_ctor::(105,352):_ZN11stlpmtx_std13__type_traitsIVKiEC1Ev;2A.;;",128,0,297,0
	.stabs	"__type_traits<unsigned int>:Tt(105,353)=s1!1,020,(105,121);operator=::(105,354)=#(105,353),(105,355)=&(105,353),(105,356)=*(105,353),(105,357)=&(105,358)=k(105,353),(0,6);:_ZN11stlpmtx_std13__type_traitsIjEaSERKS1_;2A.;__base_ctor::(105,359)=#(105,353),(0,6),(105,356),(105,357),(0,6);:_ZN11stlpmtx_std13__type_traitsIjEC2ERKS1_;2A.;__comp_ctor::(105,359):_ZN11stlpmtx_std13__type_traitsIjEC1ERKS1_;2A.;__base_ctor::(105,360)=#(105,353),(0,6),(105,356),(0,6);:_ZN11stlpmtx_std13__type_traitsIjEC2Ev;2A.;__comp_ctor::(105,360):_ZN11stlpmtx_std13__type_traitsIjEC1Ev;2A.;;",128,0,298,0
	.stabs	"__type_traits<const unsigned int>:Tt(105,361)=s1!1,020,(105,121);operator=::(105,362)=#(105,361),(105,363)=&(105,361),(105,364)=*(105,361),(105,365)=&(105,366)=k(105,361),(0,6);:_ZN11stlpmtx_std13__type_traitsIKjEaSERKS2_;2A.;__base_ctor::(105,367)=#(105,361),(0,6),(105,364),(105,365),(0,6);:_ZN11stlpmtx_std13__type_traitsIKjEC2ERKS2_;2A.;__comp_ctor::(105,367):_ZN11stlpmtx_std13__type_traitsIKjEC1ERKS2_;2A.;__base_ctor::(105,368)=#(105,361),(0,6),(105,364),(0,6);:_ZN11stlpmtx_std13__type_traitsIKjEC2Ev;2A.;__comp_ctor::(105,368):_ZN11stlpmtx_std13__type_traitsIKjEC1Ev;2A.;;",128,0,298,0
	.stabs	"__type_traits<volatile unsigned int>:Tt(105,369)=s1!1,020,(105,121);operator=::(105,370)=#(105,369),(105,371)=&(105,369),(105,372)=*(105,369),(105,373)=&(105,374)=k(105,369),(0,6);:_ZN11stlpmtx_std13__type_traitsIVjEaSERKS2_;2A.;__base_ctor::(105,375)=#(105,369),(0,6),(105,372),(105,373),(0,6);:_ZN11stlpmtx_std13__type_traitsIVjEC2ERKS2_;2A.;__comp_ctor::(105,375):_ZN11stlpmtx_std13__type_traitsIVjEC1ERKS2_;2A.;__base_ctor::(105,376)=#(105,369),(0,6),(105,372),(0,6);:_ZN11stlpmtx_std13__type_traitsIVjEC2Ev;2A.;__comp_ctor::(105,376):_ZN11stlpmtx_std13__type_traitsIVjEC1Ev;2A.;;",128,0,298,0
	.stabs	"__type_traits<const volatile unsigned int>:Tt(105,377)=s1!1,020,(105,121);operator=::(105,378)=#(105,377),(105,379)=&(105,377),(105,380)=*(105,377),(105,381)=&(105,382)=k(105,377),(0,6);:_ZN11stlpmtx_std13__type_traitsIVKjEaSERKS2_;2A.;__base_ctor::(105,383)=#(105,377),(0,6),(105,380),(105,381),(0,6);:_ZN11stlpmtx_std13__type_traitsIVKjEC2ERKS2_;2A.;__comp_ctor::(105,383):_ZN11stlpmtx_std13__type_traitsIVKjEC1ERKS2_;2A.;__base_ctor::(105,384)=#(105,377),(0,6),(105,380),(0,6);:_ZN11stlpmtx_std13__type_traitsIVKjEC2Ev;2A.;__comp_ctor::(105,384):_ZN11stlpmtx_std13__type_traitsIVKjEC1Ev;2A.;;",128,0,298,0
	.stabs	"__type_traits<long int>:Tt(105,385)=s1!1,020,(105,121);operator=::(105,386)=#(105,385),(105,387)=&(105,385),(105,388)=*(105,385),(105,389)=&(105,390)=k(105,385),(0,6);:_ZN11stlpmtx_std13__type_traitsIlEaSERKS1_;2A.;__base_ctor::(105,391)=#(105,385),(0,6),(105,388),(105,389),(0,6);:_ZN11stlpmtx_std13__type_traitsIlEC2ERKS1_;2A.;__comp_ctor::(105,391):_ZN11stlpmtx_std13__type_traitsIlEC1ERKS1_;2A.;__base_ctor::(105,392)=#(105,385),(0,6),(105,388),(0,6);:_ZN11stlpmtx_std13__type_traitsIlEC2Ev;2A.;__comp_ctor::(105,392):_ZN11stlpmtx_std13__type_traitsIlEC1Ev;2A.;;",128,0,299,0
	.stabs	"__type_traits<const long int>:Tt(105,393)=s1!1,020,(105,121);operator=::(105,394)=#(105,393),(105,395)=&(105,393),(105,396)=*(105,393),(105,397)=&(105,398)=k(105,393),(0,6);:_ZN11stlpmtx_std13__type_traitsIKlEaSERKS2_;2A.;__base_ctor::(105,399)=#(105,393),(0,6),(105,396),(105,397),(0,6);:_ZN11stlpmtx_std13__type_traitsIKlEC2ERKS2_;2A.;__comp_ctor::(105,399):_ZN11stlpmtx_std13__type_traitsIKlEC1ERKS2_;2A.;__base_ctor::(105,400)=#(105,393),(0,6),(105,396),(0,6);:_ZN11stlpmtx_std13__type_traitsIKlEC2Ev;2A.;__comp_ctor::(105,400):_ZN11stlpmtx_std13__type_traitsIKlEC1Ev;2A.;;",128,0,299,0
	.stabs	"__type_traits<volatile long int>:Tt(105,401)=s1!1,020,(105,121);operator=::(105,402)=#(105,401),(105,403)=&(105,401),(105,404)=*(105,401),(105,405)=&(105,406)=k(105,401),(0,6);:_ZN11stlpmtx_std13__type_traitsIVlEaSERKS2_;2A.;__base_ctor::(105,407)=#(105,401),(0,6),(105,404),(105,405),(0,6);:_ZN11stlpmtx_std13__type_traitsIVlEC2ERKS2_;2A.;__comp_ctor::(105,407):_ZN11stlpmtx_std13__type_traitsIVlEC1ERKS2_;2A.;__base_ctor::(105,408)=#(105,401),(0,6),(105,404),(0,6);:_ZN11stlpmtx_std13__type_traitsIVlEC2Ev;2A.;__comp_ctor::(105,408):_ZN11stlpmtx_std13__type_traitsIVlEC1Ev;2A.;;",128,0,299,0
	.stabs	"__type_traits<const volatile long int>:Tt(105,409)=s1!1,020,(105,121);operator=::(105,410)=#(105,409),(105,411)=&(105,409),(105,412)=*(105,409),(105,413)=&(105,414)=k(105,409),(0,6);:_ZN11stlpmtx_std13__type_traitsIVKlEaSERKS2_;2A.;__base_ctor::(105,415)=#(105,409),(0,6),(105,412),(105,413),(0,6);:_ZN11stlpmtx_std13__type_traitsIVKlEC2ERKS2_;2A.;__comp_ctor::(105,415):_ZN11stlpmtx_std13__type_traitsIVKlEC1ERKS2_;2A.;__base_ctor::(105,416)=#(105,409),(0,6),(105,412),(0,6);:_ZN11stlpmtx_std13__type_traitsIVKlEC2Ev;2A.;__comp_ctor::(105,416):_ZN11stlpmtx_std13__type_traitsIVKlEC1Ev;2A.;;",128,0,299,0
	.stabs	"__type_traits<long unsigned int>:Tt(105,417)=s1!1,020,(105,121);operator=::(105,418)=#(105,417),(105,419)=&(105,417),(105,420)=*(105,417),(105,421)=&(105,422)=k(105,417),(0,6);:_ZN11stlpmtx_std13__type_traitsImEaSERKS1_;2A.;__base_ctor::(105,423)=#(105,417),(0,6),(105,420),(105,421),(0,6);:_ZN11stlpmtx_std13__type_traitsImEC2ERKS1_;2A.;__comp_ctor::(105,423):_ZN11stlpmtx_std13__type_traitsImEC1ERKS1_;2A.;__base_ctor::(105,424)=#(105,417),(0,6),(105,420),(0,6);:_ZN11stlpmtx_std13__type_traitsImEC2Ev;2A.;__comp_ctor::(105,424):_ZN11stlpmtx_std13__type_traitsImEC1Ev;2A.;;",128,0,300,0
	.stabs	"__type_traits<const long unsigned int>:Tt(105,425)=s1!1,020,(105,121);operator=::(105,426)=#(105,425),(105,427)=&(105,425),(105,428)=*(105,425),(105,429)=&(105,430)=k(105,425),(0,6);:_ZN11stlpmtx_std13__type_traitsIKmEaSERKS2_;2A.;__base_ctor::(105,431)=#(105,425),(0,6),(105,428),(105,429),(0,6);:_ZN11stlpmtx_std13__type_traitsIKmEC2ERKS2_;2A.;__comp_ctor::(105,431):_ZN11stlpmtx_std13__type_traitsIKmEC1ERKS2_;2A.;__base_ctor::(105,432)=#(105,425),(0,6),(105,428),(0,6);:_ZN11stlpmtx_std13__type_traitsIKmEC2Ev;2A.;__comp_ctor::(105,432):_ZN11stlpmtx_std13__type_traitsIKmEC1Ev;2A.;;",128,0,300,0
	.stabs	"__type_traits<volatile long unsigned int>:Tt(105,433)=s1!1,020,(105,121);operator=::(105,434)=#(105,433),(105,435)=&(105,433),(105,436)=*(105,433),(105,437)=&(105,438)=k(105,433),(0,6);:_ZN11stlpmtx_std13__type_traitsIVmEaSERKS2_;2A.;__base_ctor::(105,439)=#(105,433),(0,6),(105,436),(105,437),(0,6);:_ZN11stlpmtx_std13__type_traitsIVmEC2ERKS2_;2A.;__comp_ctor::(105,439):_ZN11stlpmtx_std13__type_traitsIVmEC1ERKS2_;2A.;__base_ctor::(105,440)=#(105,433),(0,6),(105,436),(0,6);:_ZN11stlpmtx_std13__type_traitsIVmEC2Ev;2A.;__comp_ctor::(105,440):_ZN11stlpmtx_std13__type_traitsIVmEC1Ev;2A.;;",128,0,300,0
	.stabs	"__type_traits<const volatile long unsigned int>:Tt(105,441)=s1!1,020,(105,121);operator=::(105,442)=#(105,441),(105,443)=&(105,441),(105,444)=*(105,441),(105,445)=&(105,446)=k(105,441),(0,6);:_ZN11stlpmtx_std13__type_traitsIVKmEaSERKS2_;2A.;__base_ctor::(105,447)=#(105,441),(0,6),(105,444),(105,445),(0,6);:_ZN11stlpmtx_std13__type_traitsIVKmEC2ERKS2_;2A.;__comp_ctor::(105,447):_ZN11stlpmtx_std13__type_traitsIVKmEC1ERKS2_;2A.;__base_ctor::(105,448)=#(105,441),(0,6),(105,444),(0,6);:_ZN11stlpmtx_std13__type_traitsIVKmEC2Ev;2A.;__comp_ctor::(105,448):_ZN11stlpmtx_std13__type_traitsIVKmEC1Ev;2A.;;",128,0,300,0
	.stabs	"__type_traits<long long int>:Tt(105,449)=s1!1,020,(105,121);operator=::(105,450)=#(105,449),(105,451)=&(105,449),(105,452)=*(105,449),(105,453)=&(105,454)=k(105,449),(0,6);:_ZN11stlpmtx_std13__type_traitsIxEaSERKS1_;2A.;__base_ctor::(105,455)=#(105,449),(0,6),(105,452),(105,453),(0,6);:_ZN11stlpmtx_std13__type_traitsIxEC2ERKS1_;2A.;__comp_ctor::(105,455):_ZN11stlpmtx_std13__type_traitsIxEC1ERKS1_;2A.;__base_ctor::(105,456)=#(105,449),(0,6),(105,452),(0,6);:_ZN11stlpmtx_std13__type_traitsIxEC2Ev;2A.;__comp_ctor::(105,456):_ZN11stlpmtx_std13__type_traitsIxEC1Ev;2A.;;",128,0,303,0
	.stabs	"__type_traits<const long long int>:Tt(105,457)=s1!1,020,(105,121);operator=::(105,458)=#(105,457),(105,459)=&(105,457),(105,460)=*(105,457),(105,461)=&(105,462)=k(105,457),(0,6);:_ZN11stlpmtx_std13__type_traitsIKxEaSERKS2_;2A.;__base_ctor::(105,463)=#(105,457),(0,6),(105,460),(105,461),(0,6);:_ZN11stlpmtx_std13__type_traitsIKxEC2ERKS2_;2A.;__comp_ctor::(105,463):_ZN11stlpmtx_std13__type_traitsIKxEC1ERKS2_;2A.;__base_ctor::(105,464)=#(105,457),(0,6),(105,460),(0,6);:_ZN11stlpmtx_std13__type_traitsIKxEC2Ev;2A.;__comp_ctor::(105,464):_ZN11stlpmtx_std13__type_traitsIKxEC1Ev;2A.;;",128,0,303,0
	.stabs	"__type_traits<volatile long long int>:Tt(105,465)=s1!1,020,(105,121);operator=::(105,466)=#(105,465),(105,467)=&(105,465),(105,468)=*(105,465),(105,469)=&(105,470)=k(105,465),(0,6);:_ZN11stlpmtx_std13__type_traitsIVxEaSERKS2_;2A.;__base_ctor::(105,471)=#(105,465),(0,6),(105,468),(105,469),(0,6);:_ZN11stlpmtx_std13__type_traitsIVxEC2ERKS2_;2A.;__comp_ctor::(105,471):_ZN11stlpmtx_std13__type_traitsIVxEC1ERKS2_;2A.;__base_ctor::(105,472)=#(105,465),(0,6),(105,468),(0,6);:_ZN11stlpmtx_std13__type_traitsIVxEC2Ev;2A.;__comp_ctor::(105,472):_ZN11stlpmtx_std13__type_traitsIVxEC1Ev;2A.;;",128,0,303,0
	.stabs	"__type_traits<const volatile long long int>:Tt(105,473)=s1!1,020,(105,121);operator=::(105,474)=#(105,473),(105,475)=&(105,473),(105,476)=*(105,473),(105,477)=&(105,478)=k(105,473),(0,6);:_ZN11stlpmtx_std13__type_traitsIVKxEaSERKS2_;2A.;__base_ctor::(105,479)=#(105,473),(0,6),(105,476),(105,477),(0,6);:_ZN11stlpmtx_std13__type_traitsIVKxEC2ERKS2_;2A.;__comp_ctor::(105,479):_ZN11stlpmtx_std13__type_traitsIVKxEC1ERKS2_;2A.;__base_ctor::(105,480)=#(105,473),(0,6),(105,476),(0,6);:_ZN11stlpmtx_std13__type_traitsIVKxEC2Ev;2A.;__comp_ctor::(105,480):_ZN11stlpmtx_std13__type_traitsIVKxEC1Ev;2A.;;",128,0,303,0
	.stabs	"__type_traits<long long unsigned int>:Tt(105,481)=s1!1,020,(105,121);operator=::(105,482)=#(105,481),(105,483)=&(105,481),(105,484)=*(105,481),(105,485)=&(105,486)=k(105,481),(0,6);:_ZN11stlpmtx_std13__type_traitsIyEaSERKS1_;2A.;__base_ctor::(105,487)=#(105,481),(0,6),(105,484),(105,485),(0,6);:_ZN11stlpmtx_std13__type_traitsIyEC2ERKS1_;2A.;__comp_ctor::(105,487):_ZN11stlpmtx_std13__type_traitsIyEC1ERKS1_;2A.;__base_ctor::(105,488)=#(105,481),(0,6),(105,484),(0,6);:_ZN11stlpmtx_std13__type_traitsIyEC2Ev;2A.;__comp_ctor::(105,488):_ZN11stlpmtx_std13__type_traitsIyEC1Ev;2A.;;",128,0,304,0
	.stabs	"__type_traits<const long long unsigned int>:Tt(105,489)=s1!1,020,(105,121);operator=::(105,490)=#(105,489),(105,491)=&(105,489),(105,492)=*(105,489),(105,493)=&(105,494)=k(105,489),(0,6);:_ZN11stlpmtx_std13__type_traitsIKyEaSERKS2_;2A.;__base_ctor::(105,495)=#(105,489),(0,6),(105,492),(105,493),(0,6);:_ZN11stlpmtx_std13__type_traitsIKyEC2ERKS2_;2A.;__comp_ctor::(105,495):_ZN11stlpmtx_std13__type_traitsIKyEC1ERKS2_;2A.;__base_ctor::(105,496)=#(105,489),(0,6),(105,492),(0,6);:_ZN11stlpmtx_std13__type_traitsIKyEC2Ev;2A.;__comp_ctor::(105,496):_ZN11stlpmtx_std13__type_traitsIKyEC1Ev;2A.;;",128,0,304,0
	.stabs	"__type_traits<volatile long long unsigned int>:Tt(105,497)=s1!1,020,(105,121);operator=::(105,498)=#(105,497),(105,499)=&(105,497),(105,500)=*(105,497),(105,501)=&(105,502)=k(105,497),(0,6);:_ZN11stlpmtx_std13__type_traitsIVyEaSERKS2_;2A.;__base_ctor::(105,503)=#(105,497),(0,6),(105,500),(105,501),(0,6);:_ZN11stlpmtx_std13__type_traitsIVyEC2ERKS2_;2A.;__comp_ctor::(105,503):_ZN11stlpmtx_std13__type_traitsIVyEC1ERKS2_;2A.;__base_ctor::(105,504)=#(105,497),(0,6),(105,500),(0,6);:_ZN11stlpmtx_std13__type_traitsIVyEC2Ev;2A.;__comp_ctor::(105,504):_ZN11stlpmtx_std13__type_traitsIVyEC1Ev;2A.;;",128,0,304,0
	.stabs	"__type_traits<const volatile long long unsigned int>:Tt(105,505)=s1!1,020,(105,121);operator=::(105,506)=#(105,505),(105,507)=&(105,505),(105,508)=*(105,505),(105,509)=&(105,510)=k(105,505),(0,6);:_ZN11stlpmtx_std13__type_traitsIVKyEaSERKS2_;2A.;__base_ctor::(105,511)=#(105,505),(0,6),(105,508),(105,509),(0,6);:_ZN11stlpmtx_std13__type_traitsIVKyEC2ERKS2_;2A.;__comp_ctor::(105,511):_ZN11stlpmtx_std13__type_traitsIVKyEC1ERKS2_;2A.;__base_ctor::(105,512)=#(105,505),(0,6),(105,508),(0,6);:_ZN11stlpmtx_std13__type_traitsIVKyEC2Ev;2A.;__comp_ctor::(105,512):_ZN11stlpmtx_std13__type_traitsIVKyEC1Ev;2A.;;",128,0,304,0
	.stabs	"__type_traits<float>:Tt(105,513)=s1!1,020,(105,121);operator=::(105,514)=#(105,513),(105,515)=&(105,513),(105,516)=*(105,513),(105,517)=&(105,518)=k(105,513),(0,6);:_ZN11stlpmtx_std13__type_traitsIfEaSERKS1_;2A.;__base_ctor::(105,519)=#(105,513),(0,6),(105,516),(105,517),(0,6);:_ZN11stlpmtx_std13__type_traitsIfEC2ERKS1_;2A.;__comp_ctor::(105,519):_ZN11stlpmtx_std13__type_traitsIfEC1ERKS1_;2A.;__base_ctor::(105,520)=#(105,513),(0,6),(105,516),(0,6);:_ZN11stlpmtx_std13__type_traitsIfEC2Ev;2A.;__comp_ctor::(105,520):_ZN11stlpmtx_std13__type_traitsIfEC1Ev;2A.;;",128,0,307,0
	.stabs	"__type_traits<const float>:Tt(105,521)=s1!1,020,(105,121);operator=::(105,522)=#(105,521),(105,523)=&(105,521),(105,524)=*(105,521),(105,525)=&(105,526)=k(105,521),(0,6);:_ZN11stlpmtx_std13__type_traitsIKfEaSERKS2_;2A.;__base_ctor::(105,527)=#(105,521),(0,6),(105,524),(105,525),(0,6);:_ZN11stlpmtx_std13__type_traitsIKfEC2ERKS2_;2A.;__comp_ctor::(105,527):_ZN11stlpmtx_std13__type_traitsIKfEC1ERKS2_;2A.;__base_ctor::(105,528)=#(105,521),(0,6),(105,524),(0,6);:_ZN11stlpmtx_std13__type_traitsIKfEC2Ev;2A.;__comp_ctor::(105,528):_ZN11stlpmtx_std13__type_traitsIKfEC1Ev;2A.;;",128,0,307,0
	.stabs	"__type_traits<volatile float>:Tt(105,529)=s1!1,020,(105,121);operator=::(105,530)=#(105,529),(105,531)=&(105,529),(105,532)=*(105,529),(105,533)=&(105,534)=k(105,529),(0,6);:_ZN11stlpmtx_std13__type_traitsIVfEaSERKS2_;2A.;__base_ctor::(105,535)=#(105,529),(0,6),(105,532),(105,533),(0,6);:_ZN11stlpmtx_std13__type_traitsIVfEC2ERKS2_;2A.;__comp_ctor::(105,535):_ZN11stlpmtx_std13__type_traitsIVfEC1ERKS2_;2A.;__base_ctor::(105,536)=#(105,529),(0,6),(105,532),(0,6);:_ZN11stlpmtx_std13__type_traitsIVfEC2Ev;2A.;__comp_ctor::(105,536):_ZN11stlpmtx_std13__type_traitsIVfEC1Ev;2A.;;",128,0,307,0
	.stabs	"__type_traits<const volatile float>:Tt(105,537)=s1!1,020,(105,121);operator=::(105,538)=#(105,537),(105,539)=&(105,537),(105,540)=*(105,537),(105,541)=&(105,542)=k(105,537),(0,6);:_ZN11stlpmtx_std13__type_traitsIVKfEaSERKS2_;2A.;__base_ctor::(105,543)=#(105,537),(0,6),(105,540),(105,541),(0,6);:_ZN11stlpmtx_std13__type_traitsIVKfEC2ERKS2_;2A.;__comp_ctor::(105,543):_ZN11stlpmtx_std13__type_traitsIVKfEC1ERKS2_;2A.;__base_ctor::(105,544)=#(105,537),(0,6),(105,540),(0,6);:_ZN11stlpmtx_std13__type_traitsIVKfEC2Ev;2A.;__comp_ctor::(105,544):_ZN11stlpmtx_std13__type_traitsIVKfEC1Ev;2A.;;",128,0,307,0
	.stabs	"__type_traits<double>:Tt(105,545)=s1!1,020,(105,121);operator=::(105,546)=#(105,545),(105,547)=&(105,545),(105,548)=*(105,545),(105,549)=&(105,550)=k(105,545),(0,6);:_ZN11stlpmtx_std13__type_traitsIdEaSERKS1_;2A.;__base_ctor::(105,551)=#(105,545),(0,6),(105,548),(105,549),(0,6);:_ZN11stlpmtx_std13__type_traitsIdEC2ERKS1_;2A.;__comp_ctor::(105,551):_ZN11stlpmtx_std13__type_traitsIdEC1ERKS1_;2A.;__base_ctor::(105,552)=#(105,545),(0,6),(105,548),(0,6);:_ZN11stlpmtx_std13__type_traitsIdEC2Ev;2A.;__comp_ctor::(105,552):_ZN11stlpmtx_std13__type_traitsIdEC1Ev;2A.;;",128,0,308,0
	.stabs	"__type_traits<const double>:Tt(105,553)=s1!1,020,(105,121);operator=::(105,554)=#(105,553),(105,555)=&(105,553),(105,556)=*(105,553),(105,557)=&(105,558)=k(105,553),(0,6);:_ZN11stlpmtx_std13__type_traitsIKdEaSERKS2_;2A.;__base_ctor::(105,559)=#(105,553),(0,6),(105,556),(105,557),(0,6);:_ZN11stlpmtx_std13__type_traitsIKdEC2ERKS2_;2A.;__comp_ctor::(105,559):_ZN11stlpmtx_std13__type_traitsIKdEC1ERKS2_;2A.;__base_ctor::(105,560)=#(105,553),(0,6),(105,556),(0,6);:_ZN11stlpmtx_std13__type_traitsIKdEC2Ev;2A.;__comp_ctor::(105,560):_ZN11stlpmtx_std13__type_traitsIKdEC1Ev;2A.;;",128,0,308,0
	.stabs	"__type_traits<volatile double>:Tt(105,561)=s1!1,020,(105,121);operator=::(105,562)=#(105,561),(105,563)=&(105,561),(105,564)=*(105,561),(105,565)=&(105,566)=k(105,561),(0,6);:_ZN11stlpmtx_std13__type_traitsIVdEaSERKS2_;2A.;__base_ctor::(105,567)=#(105,561),(0,6),(105,564),(105,565),(0,6);:_ZN11stlpmtx_std13__type_traitsIVdEC2ERKS2_;2A.;__comp_ctor::(105,567):_ZN11stlpmtx_std13__type_traitsIVdEC1ERKS2_;2A.;__base_ctor::(105,568)=#(105,561),(0,6),(105,564),(0,6);:_ZN11stlpmtx_std13__type_traitsIVdEC2Ev;2A.;__comp_ctor::(105,568):_ZN11stlpmtx_std13__type_traitsIVdEC1Ev;2A.;;",128,0,308,0
	.stabs	"__type_traits<const volatile double>:Tt(105,569)=s1!1,020,(105,121);operator=::(105,570)=#(105,569),(105,571)=&(105,569),(105,572)=*(105,569),(105,573)=&(105,574)=k(105,569),(0,6);:_ZN11stlpmtx_std13__type_traitsIVKdEaSERKS2_;2A.;__base_ctor::(105,575)=#(105,569),(0,6),(105,572),(105,573),(0,6);:_ZN11stlpmtx_std13__type_traitsIVKdEC2ERKS2_;2A.;__comp_ctor::(105,575):_ZN11stlpmtx_std13__type_traitsIVKdEC1ERKS2_;2A.;__base_ctor::(105,576)=#(105,569),(0,6),(105,572),(0,6);:_ZN11stlpmtx_std13__type_traitsIVKdEC2Ev;2A.;__comp_ctor::(105,576):_ZN11stlpmtx_std13__type_traitsIVKdEC1Ev;2A.;;",128,0,308,0
	.stabs	"_NegativeAnswer:Tt(105,577)=s1_Answer::(105,578)=f(106,9):_ZN11stlpmtx_std15_NegativeAnswer7_AnswerEv;2A?;operator=::(105,579)=#(105,577),(105,580)=&(105,577),(105,581)=*(105,577),(105,582)=&(105,583)=k(105,577),(0,6);:_ZN11stlpmtx_std15_NegativeAnsweraSERKS0_;2A.;__base_ctor::(105,584)=#(105,577),(0,6),(105,581),(105,582),(0,6);:_ZN11stlpmtx_std15_NegativeAnswerC2ERKS0_;2A.;__comp_ctor::(105,584):_ZN11stlpmtx_std15_NegativeAnswerC1ERKS0_;2A.;__base_ctor::(105,585)=#(105,577),(0,6),(105,581),(0,6);:_ZN11stlpmtx_std15_NegativeAnswerC2Ev;2A.;__comp_ctor::(105,585):_ZN11stlpmtx_std15_NegativeAnswerC1Ev;2A.;;",128,0,510,0
	.stabn	162,0,0,0
	.stabn	162,0,0,0
	.stabs	"/Applications/MoSync/include/newlib/stlport/stl/_iterator_base.h",130,0,0,0
	.stabs	"input_iterator_tag:Tt(107,1)=s1operator=::(107,2)=#(107,1),(107,3)=&(107,1),(107,4)=*(107,1),(107,5)=&(107,6)=k(107,1),(0,6);:_ZN11stlpmtx_std18input_iterator_tagaSERKS0_;2A.;__base_ctor::(107,7)=#(107,1),(0,6),(107,4),(107,5),(0,6);:_ZN11stlpmtx_std18input_iterator_tagC2ERKS0_;2A.;__comp_ctor::(107,7):_ZN11stlpmtx_std18input_iterator_tagC1ERKS0_;2A.;__base_ctor::(107,8)=#(107,1),(0,6),(107,4),(0,6);:_ZN11stlpmtx_std18input_iterator_tagC2Ev;2A.;__comp_ctor::(107,8):_ZN11stlpmtx_std18input_iterator_tagC1Ev;2A.;;",128,0,51,0
	.stabs	"output_iterator_tag:Tt(107,9)=s1operator=::(107,10)=#(107,9),(107,11)=&(107,9),(107,12)=*(107,9),(107,13)=&(107,14)=k(107,9),(0,6);:_ZN11stlpmtx_std19output_iterator_tagaSERKS0_;2A.;__base_ctor::(107,15)=#(107,9),(0,6),(107,12),(107,13),(0,6);:_ZN11stlpmtx_std19output_iterator_tagC2ERKS0_;2A.;__comp_ctor::(107,15):_ZN11stlpmtx_std19output_iterator_tagC1ERKS0_;2A.;__base_ctor::(107,16)=#(107,9),(0,6),(107,12),(0,6);:_ZN11stlpmtx_std19output_iterator_tagC2Ev;2A.;__comp_ctor::(107,16):_ZN11stlpmtx_std19output_iterator_tagC1Ev;2A.;;",128,0,52,0
	.stabs	"forward_iterator_tag:Tt(107,17)=s1!1,020,(107,1);operator=::(107,18)=#(107,17),(107,19)=&(107,17),(107,20)=*(107,17),(107,21)=&(107,22)=k(107,17),(0,6);:_ZN11stlpmtx_std20forward_iterator_tagaSERKS0_;2A.;__base_ctor::(107,23)=#(107,17),(0,6),(107,20),(107,21),(0,6);:_ZN11stlpmtx_std20forward_iterator_tagC2ERKS0_;2A.;__comp_ctor::(107,23):_ZN11stlpmtx_std20forward_iterator_tagC1ERKS0_;2A.;__base_ctor::(107,24)=#(107,17),(0,6),(107,20),(0,6);:_ZN11stlpmtx_std20forward_iterator_tagC2Ev;2A.;__comp_ctor::(107,24):_ZN11stlpmtx_std20forward_iterator_tagC1Ev;2A.;;",128,0,53,0
	.stabs	"bidirectional_iterator_tag:Tt(107,25)=s1!1,020,(107,17);operator=::(107,26)=#(107,25),(107,27)=&(107,25),(107,28)=*(107,25),(107,29)=&(107,30)=k(107,25),(0,6);:_ZN11stlpmtx_std26bidirectional_iterator_tagaSERKS0_;2A.;__base_ctor::(107,31)=#(107,25),(0,6),(107,28),(107,29),(0,6);:_ZN11stlpmtx_std26bidirectional_iterator_tagC2ERKS0_;2A.;__comp_ctor::(107,31):_ZN11stlpmtx_std26bidirectional_iterator_tagC1ERKS0_;2A.;__base_ctor::(107,32)=#(107,25),(0,6),(107,28),(0,6);:_ZN11stlpmtx_std26bidirectional_iterator_tagC2Ev;2A.;__comp_ctor::(107,32):_ZN11stlpmtx_std26bidirectional_iterator_tagC1Ev;2A.;;",128,0,54,0
	.stabs	"random_access_iterator_tag:Tt(107,33)=s1!1,020,(107,25);operator=::(107,34)=#(107,33),(107,35)=&(107,33),(107,36)=*(107,33),(107,37)=&(107,38)=k(107,33),(0,6);:_ZN11stlpmtx_std26random_access_iterator_tagaSERKS0_;2A.;__base_ctor::(107,39)=#(107,33),(0,6),(107,36),(107,37),(0,6);:_ZN11stlpmtx_std26random_access_iterator_tagC2ERKS0_;2A.;__comp_ctor::(107,39):_ZN11stlpmtx_std26random_access_iterator_tagC1ERKS0_;2A.;__base_ctor::(107,40)=#(107,33),(0,6),(107,36),(0,6);:_ZN11stlpmtx_std26random_access_iterator_tagC2Ev;2A.;__comp_ctor::(107,40):_ZN11stlpmtx_std26random_access_iterator_tagC1Ev;2A.;;",128,0,55,0
	.stabs	"iterator<stlpmtx_std::output_iterator_tag,void,void,void,void>:Tt(107,41)=s1operator=::(107,42)=#(107,41),(107,43)=&(107,41),(107,44)=*(107,41),(107,45)=&(107,46)=k(107,41),(0,6);:_ZN11stlpmtx_std8iteratorINS_19output_iterator_tagEvvvvEaSERKS2_;2A.;__base_ctor::(107,47)=#(107,41),(0,6),(107,44),(107,45),(0,6);:_ZN11stlpmtx_std8iteratorINS_19output_iterator_tagEvvvvEC2ERKS2_;2A.;__comp_ctor::(107,47):_ZN11stlpmtx_std8iteratorINS_19output_iterator_tagEvvvvEC1ERKS2_;2A.;__base_ctor::(107,48)=#(107,41),(0,6),(107,44),(0,6);:_ZN11stlpmtx_std8iteratorINS_19output_iterator_tagEvvvvEC2Ev;2A.;__comp_ctor::(107,48):_ZN11stlpmtx_std8iteratorINS_19output_iterator_tagEvvvvEC1Ev;2A.;;",128,0,67,0
	.stabs	"output_iterator:Tt(107,49)=s1!1,020,(107,41);operator=::(107,50)=#(107,49),(107,51)=&(107,49),(107,52)=*(107,49),(107,53)=&(107,54)=k(107,49),(0,6);:_ZN11stlpmtx_std15output_iteratoraSERKS0_;2A.;__base_ctor::(107,55)=#(107,49),(0,6),(107,52),(107,53),(0,6);:_ZN11stlpmtx_std15output_iteratorC2ERKS0_;2A.;__comp_ctor::(107,55):_ZN11stlpmtx_std15output_iteratorC1ERKS0_;2A.;__base_ctor::(107,56)=#(107,49),(0,6),(107,52),(0,6);:_ZN11stlpmtx_std15output_iteratorC2Ev;2A.;__comp_ctor::(107,56):_ZN11stlpmtx_std15output_iteratorC1Ev;2A.;;",128,0,269,0
	.stabn	162,0,0,0
	.stabs	"/Applications/MoSync/include/newlib/stlport/stl/_algobase.c",130,0,0,0
	.stabs	"_IsCharLikeType<char>:Tt(108,1)=s1operator=::(108,2)=#(108,1),(108,3)=&(108,1),(108,4)=*(108,1),(108,5)=&(108,6)=k(108,1),(0,6);:_ZN11stlpmtx_std4priv15_IsCharLikeTypeIcEaSERKS2_;2A.;__base_ctor::(108,7)=#(108,1),(0,6),(108,4),(108,5),(0,6);:_ZN11stlpmtx_std4priv15_IsCharLikeTypeIcEC2ERKS2_;2A.;__comp_ctor::(108,7):_ZN11stlpmtx_std4priv15_IsCharLikeTypeIcEC1ERKS2_;2A.;__base_ctor::(108,8)=#(108,1),(0,6),(108,4),(0,6);:_ZN11stlpmtx_std4priv15_IsCharLikeTypeIcEC2Ev;2A.;__comp_ctor::(108,8):_ZN11stlpmtx_std4priv15_IsCharLikeTypeIcEC1Ev;2A.;;",128,0,276,0
	.stabs	"_IsCharLikeType<unsigned char>:Tt(108,9)=s1operator=::(108,10)=#(108,9),(108,11)=&(108,9),(108,12)=*(108,9),(108,13)=&(108,14)=k(108,9),(0,6);:_ZN11stlpmtx_std4priv15_IsCharLikeTypeIhEaSERKS2_;2A.;__base_ctor::(108,15)=#(108,9),(0,6),(108,12),(108,13),(0,6);:_ZN11stlpmtx_std4priv15_IsCharLikeTypeIhEC2ERKS2_;2A.;__comp_ctor::(108,15):_ZN11stlpmtx_std4priv15_IsCharLikeTypeIhEC1ERKS2_;2A.;__base_ctor::(108,16)=#(108,9),(0,6),(108,12),(0,6);:_ZN11stlpmtx_std4priv15_IsCharLikeTypeIhEC2Ev;2A.;__comp_ctor::(108,16):_ZN11stlpmtx_std4priv15_IsCharLikeTypeIhEC1Ev;2A.;;",128,0,279,0
	.stabs	"_IsCharLikeType<signed char>:Tt(108,17)=s1operator=::(108,18)=#(108,17),(108,19)=&(108,17),(108,20)=*(108,17),(108,21)=&(108,22)=k(108,17),(0,6);:_ZN11stlpmtx_std4priv15_IsCharLikeTypeIaEaSERKS2_;2A.;__base_ctor::(108,23)=#(108,17),(0,6),(108,20),(108,21),(0,6);:_ZN11stlpmtx_std4priv15_IsCharLikeTypeIaEC2ERKS2_;2A.;__comp_ctor::(108,23):_ZN11stlpmtx_std4priv15_IsCharLikeTypeIaEC1ERKS2_;2A.;__base_ctor::(108,24)=#(108,17),(0,6),(108,20),(0,6);:_ZN11stlpmtx_std4priv15_IsCharLikeTypeIaEC2Ev;2A.;__comp_ctor::(108,24):_ZN11stlpmtx_std4priv15_IsCharLikeTypeIaEC1Ev;2A.;;",128,0,283,0
	.stabn	162,0,0,0
	.stabn	162,0,0,0
	.stabs	"/Applications/MoSync/include/newlib/stlport/stl/_new.h",130,0,0,0
	.stabs	"/Applications/MoSync/include/newlib/stlport/../new",130,0,0,0
	.stabs	"/Applications/MoSync/include/newlib/stlport/../macpp.h",130,0,0,0
	.stabs	"size_t:t(111,1)=(0,16)",128,0,17,0
	.stabn	162,0,0,0
	.stabs	"nothrow_t:Tt(110,1)=s1operator=::(110,2)=#(110,1),(110,3)=&(110,1),(110,4)=*(110,1),(110,5)=&(110,6)=k(110,1),(0,6);:_ZNSt9nothrow_taSERKS_;2A.;__base_ctor::(110,7)=#(110,1),(0,6),(110,4),(110,5),(0,6);:_ZNSt9nothrow_tC2ERKS_;2A.;__comp_ctor::(110,7):_ZNSt9nothrow_tC1ERKS_;2A.;__base_ctor::(110,8)=#(110,1),(0,6),(110,4),(0,6);:_ZNSt9nothrow_tC2Ev;2A.;__comp_ctor::(110,8):_ZNSt9nothrow_tC1Ev;2A.;;",128,0,50,0
	.stabn	162,0,0,0
	.stabs	"/Applications/MoSync/include/newlib/stlport/stl/_cstdio.h",130,0,0,0
	.stabs	"/Applications/MoSync/include/newlib/stlport/stdio.h",130,0,0,0
	.stabs	"/Applications/MoSync/include/newlib/stlport/../stdio.h",130,0,0,0
	.stabs	"/Applications/MoSync/include/newlib/stlport/stdarg.h",130,0,0,0
	.stabs	"/Applications/MoSync/include/newlib/stlport/../stdarg.h",130,0,0,0
	.stabn	162,0,0,0
	.stabn	162,0,0,0
	.stabs	"/Applications/MoSync/include/newlib/sys/types.h",130,0,0,0
	.stabs	"u_int8_t:t(117,1)=(97,2)",128,0,36,0
	.stabs	"u_int16_t:t(117,2)=(97,4)",128,0,39,0
	.stabs	"u_int32_t:t(117,3)=(97,8)",128,0,42,0
	.stabs	"u_int64_t:t(117,4)=(97,12)",128,0,46,0
	.stabs	"u_quad_t:t(117,5)=(97,12)",128,0,49,0
	.stabs	"quad_t:t(117,6)=(97,11)",128,0,50,0
	.stabs	"qaddr_t:t(117,7)=(117,8)=*(117,6)",128,0,51,0
	.stabs	"/Applications/MoSync/include/newlib/machine/types.h",130,0,0,0
	.stabs	"__off_t:t(118,1)=(0,18)",128,0,19,0
	.stabs	"__pid_t:t(118,2)=(0,3)",128,0,20,0
	.stabs	"__loff_t:t(118,3)=(0,15)",128,0,22,0
	.stabn	162,0,0,0
	.stabs	"u_char:t(117,9)=(0,10)",128,0,92,0
	.stabs	"u_short:t(117,10)=(0,12)",128,0,93,0
	.stabs	"u_int:t(117,11)=(0,17)",128,0,94,0
	.stabs	"u_long:t(117,12)=(0,16)",128,0,95,0
	.stabs	"clock_t:t(117,13)=(0,16)",128,0,107,0
	.stabs	"time_t:t(117,14)=(0,18)",128,0,112,0
	.stabs	"timespec:Tt(117,15)=s8tv_sec:(117,14),0,32;tv_nsec:(0,18),32,32;operator=::(117,16)=#(117,15),(117,17)=&(117,15),(117,18)=*(117,15),(117,19)=&(117,20)=k(117,15),(0,6);:_ZN8timespecaSERKS_;2A.;__base_ctor::(117,21)=#(117,15),(0,6),(117,18),(117,19),(0,6);:_ZN8timespecC2ERKS_;2A.;__comp_ctor::(117,21):_ZN8timespecC1ERKS_;2A.;__base_ctor::(117,22)=#(117,15),(0,6),(117,18),(0,6);:_ZN8timespecC2Ev;2A.;__comp_ctor::(117,22):_ZN8timespecC1Ev;2A.;;",128,0,117,0
	.stabs	"itimerspec:Tt(117,23)=s16it_interval:(117,15),0,64;it_value:(117,15),64,64;operator=::(117,24)=#(117,23),(117,25)=&(117,23),(117,26)=*(117,23),(117,27)=&(117,28)=k(117,23),(0,6);:_ZN10itimerspecaSERKS_;2A.;__base_ctor::(117,29)=#(117,23),(0,6),(117,26),(117,27),(0,6);:_ZN10itimerspecC2ERKS_;2A.;__comp_ctor::(117,29):_ZN10itimerspecC1ERKS_;2A.;__base_ctor::(117,30)=#(117,23),(0,6),(117,26),(0,6);:_ZN10itimerspecC2Ev;2A.;__comp_ctor::(117,30):_ZN10itimerspecC1Ev;2A.;;",128,0,122,0
	.stabs	"daddr_t:t(117,31)=(0,18)",128,0,128,0
	.stabs	"caddr_t:t(117,32)=(2,5)",128,0,129,0
	.stabs	"ino_t:t(117,33)=(0,12)",128,0,136,0
	.stabs	"off_t:t(117,34)=(95,1)",128,0,165,0
	.stabs	"dev_t:t(117,35)=(95,2)",128,0,166,0
	.stabs	"uid_t:t(117,36)=(95,3)",128,0,167,0
	.stabs	"gid_t:t(117,37)=(95,4)",128,0,168,0
	.stabs	"pid_t:t(117,38)=(0,3)",128,0,174,0
	.stabs	"key_t:t(117,39)=(0,18)",128,0,182,0
	.stabs	"ssize_t:t(117,40)=(95,7)",128,0,184,0
	.stabs	"mode_t:t(117,41)=(0,17)",128,0,198,0
	.stabs	"nlink_t:t(117,42)=(0,12)",128,0,203,0
	.stabs	"fd_mask:t(117,43)=(0,18)",128,0,225,0
	.stabs	"_types_fd_set:Tt(117,44)=s8fds_bits:(117,45)=ar(2,57);0;1;(117,43),0,64;operator=::(117,46)=#(117,44),(117,47)=&(117,44),(117,48)=*(117,44),(117,49)=&(117,50)=k(117,44),(0,6);:_ZN13_types_fd_setaSERKS_;2A.;__base_ctor::(117,51)=#(117,44),(0,6),(117,48),(117,49),(0,6);:_ZN13_types_fd_setC2ERKS_;2A.;__comp_ctor::(117,51):_ZN13_types_fd_setC1ERKS_;2A.;__base_ctor::(117,52)=#(117,44),(0,6),(117,48),(0,6);:_ZN13_types_fd_setC2Ev;2A.;__comp_ctor::(117,52):_ZN13_types_fd_setC1Ev;2A.;;",128,0,233,0
	.stabs	"_types_fd_set:t(117,53)=(117,44)",128,0,235,0
	.stabs	"clockid_t:t(117,54)=(0,16)",128,0,256,0
	.stabs	"timer_t:t(117,55)=(0,16)",128,0,261,0
	.stabs	"useconds_t:t(117,56)=(0,16)",128,0,265,0
	.stabs	"suseconds_t:t(117,57)=(0,18)",128,0,266,0
	.stabn	162,0,0,0
	.stabs	"FILE:t(114,1)=(94,68)",128,0,50,0
	.stabs	"fpos_t:t(114,2)=(95,6)",128,0,55,0
	.stabs	"cookie_read_function_t:t(114,3)=(114,4)=f(117,40)",128,0,552,0
	.stabs	"cookie_write_function_t:t(114,5)=(114,6)=f(117,40)",128,0,554,0
	.stabs	"cookie_seek_function_t:t(114,7)=(114,8)=f(0,3)",128,0,559,0
	.stabs	"cookie_close_function_t:t(114,9)=(114,10)=f(0,3)",128,0,561,0
	.stabs	"cookie_io_functions_t:t(114,11)=s16read:(114,12)=*(114,3),0,32;write:(114,13)=*(114,5),32,32;seek:(114,14)=*(114,7),64,32;close:(114,15)=*(114,9),96,32;operator=::(114,16)=#(114,11),(114,17)=&(114,11),(114,18)=*(114,11),(114,19)=&(114,20)=k(114,11),(0,6);:_ZN21cookie_io_functions_taSERKS_;2A.;__base_ctor::(114,21)=#(114,11),(0,6),(114,18),(114,19),(0,6);:_ZN21cookie_io_functions_tC2ERKS_;2A.;__comp_ctor::(114,21):_ZN21cookie_io_functions_tC1ERKS_;2A.;__base_ctor::(114,22)=#(114,11),(0,6),(114,18),(0,6);:_ZN21cookie_io_functions_tC2Ev;2A.;__comp_ctor::(114,22):_ZN21cookie_io_functions_tC1Ev;2A.;;",128,0,570,0
	.stabn	162,0,0,0
	.stabn	162,0,0,0
	.stabn	162,0,0,0
	.stabn	162,0,0,0
	.stabs	"__malloc_alloc:Tt(87,1)=s1allocate::(87,2)=f(2,9):_ZN11stlpmtx_std14__malloc_alloc8allocateEm;2A?;deallocate::(87,3)=f(0,6):_ZN11stlpmtx_std14__malloc_alloc10deallocateEPvm;2A?;operator=::(87,4)=#(87,1),(87,5)=&(87,1),(87,6)=*(87,1),(87,7)=&(87,8)=k(87,1),(0,6);:_ZN11stlpmtx_std14__malloc_allocaSERKS0_;2A.;__base_ctor::(87,9)=#(87,1),(0,6),(87,6),(87,7),(0,6);:_ZN11stlpmtx_std14__malloc_allocC2ERKS0_;2A.;__comp_ctor::(87,9):_ZN11stlpmtx_std14__malloc_allocC1ERKS0_;2A.;__base_ctor::(87,10)=#(87,1),(0,6),(87,6),(0,6);:_ZN11stlpmtx_std14__malloc_allocC2Ev;2A.;__comp_ctor::(87,10):_ZN11stlpmtx_std14__malloc_allocC1Ev;2A.;;",128,0,63,0
	.stabs	"__new_alloc:Tt(87,11)=s1allocate::(87,2):_ZN11stlpmtx_std11__new_alloc8allocateEm;2A?;deallocate::(87,3):_ZN11stlpmtx_std11__new_alloc10deallocateEPvm;2A?;operator=::(87,12)=#(87,11),(87,13)=&(87,11),(87,14)=*(87,11),(87,15)=&(87,16)=k(87,11),(0,6);:_ZN11stlpmtx_std11__new_allocaSERKS0_;2A.;__base_ctor::(87,17)=#(87,11),(0,6),(87,14),(87,15),(0,6);:_ZN11stlpmtx_std11__new_allocC2ERKS0_;2A.;__comp_ctor::(87,17):_ZN11stlpmtx_std11__new_allocC1ERKS0_;2A.;__base_ctor::(87,18)=#(87,11),(0,6),(87,14),(0,6);:_ZN11stlpmtx_std11__new_allocC2Ev;2A.;__comp_ctor::(87,18):_ZN11stlpmtx_std11__new_allocC1Ev;2A.;;",128,0,88,0
	.stabs	"__alloc_type:t(87,19)=(87,11)",128,0,220,0
	.stabs	"__sgi_alloc:t(87,20)=(87,19)",128,0,230,0
	.stabs	"__single_client_alloc:t(87,21)=(87,20)",128,0,234,0
	.stabs	"__multithreaded_alloc:t(87,22)=(87,20)",128,0,235,0
	.stabs	"allocator<void>:Tt(87,23)=s1operator=::(87,24)=#(87,23),(87,25)=&(87,23),(87,26)=*(87,23),(87,27)=&(87,28)=k(87,23),(0,6);:_ZN11stlpmtx_std9allocatorIvEaSERKS1_;2A.;__base_ctor::(87,29)=#(87,23),(0,6),(87,26),(87,27),(0,6);:_ZN11stlpmtx_std9allocatorIvEC2ERKS1_;2A.;__comp_ctor::(87,29):_ZN11stlpmtx_std9allocatorIvEC1ERKS1_;2A.;__base_ctor::(87,30)=#(87,23),(0,6),(87,26),(0,6);:_ZN11stlpmtx_std9allocatorIvEC2Ev;2A.;__comp_ctor::(87,30):_ZN11stlpmtx_std9allocatorIvEC1Ev;2A.;;",128,0,364,0
	.stabn	162,0,0,0
	.stabs	"/Applications/MoSync/include/newlib/stlport/stl/_string_fwd.h",130,0,0,0
	.stabs	"/Applications/MoSync/include/newlib/stlport/stl/_iosfwd.h",130,0,0,0
	.stabs	"/Applications/MoSync/include/newlib/stlport/stl/char_traits.h",130,0,0,0
	.stabs	"/Applications/MoSync/include/newlib/stlport/stl/_cwchar.h",130,0,0,0
	.stabs	"/Applications/MoSync/include/newlib/stlport/../wchar.h",130,0,0,0
	.stabs	"mbstate_t:t(123,1)=(95,8)",128,0,47,0
	.stabn	162,0,0,0
	.stabn	162,0,0,0
	.stabs	"streamoff:t(121,1)=(117,34)",128,0,74,0
	.stabs	"streamsize:t(121,2)=(90,2)",128,0,81,0
	.stabs	"streampos:t(121,3)=(121,4)=xsfpos<_mbstate_t>:",128,0,127,0
	.stabs	"wstreampos:t(121,5)=(121,4)",128,0,128,0
	.stabs	"__char_traits_base<char,int>:Tt(121,6)=s1assign::(121,7)=f(0,6):_ZN11stlpmtx_std18__char_traits_baseIciE6assignERcRKc;2A?;eq::(121,8)=f(0,4):_ZN11stlpmtx_std18__char_traits_baseIciE2eqERKcS3_;2A?;lt::(121,8):_ZN11stlpmtx_std18__char_traits_baseIciE2ltERKcS3_;2A?;compare::(121,9)=f(0,3):_ZN11stlpmtx_std18__char_traits_baseIciE7compareEPKcS3_m;2A?;length::(121,10)=f(1,1):_ZN11stlpmtx_std18__char_traits_baseIciE6lengthEPKc;2A?;find::(121,11)=f(12,7):_ZN11stlpmtx_std18__char_traits_baseIciE4findEPKcmRS2_;2A?;move::(121,12)=f(2,5):_ZN11stlpmtx_std18__char_traits_baseIciE4moveEPcPKcm;2A?;copy::(121,12):_ZN11stlpmtx_std18__char_traits_baseIciE4copyEPcPKcm;2A?;assign::(121,13)=f(2,5):_ZN11stlpmtx_std18__char_traits_baseIciE6assignEPcmc;2A?;not_eof::(121,14)=f(0,3):_ZN11stlpmtx_std18__char_traits_baseIciE7not_eofERKi;2A?;to_char_type::(121,15)=f(0,19):_ZN11stlpmtx_std18__char_traits_baseIciE12to_char_typeERKi;2A?;to_int_type::(121,16)=f(0,3):_ZN11stlpmtx_std18__char_traits_baseIciE11to_int_typeERKc;2A?;eq_int_type::(121,17)=f(0,4):_ZN11stlpmtx_std18__char_traits_baseIciE11eq_int_typeERKiS3_;2A?;eof::(121,18)=f(0,3):_ZN11stlpmtx_std18__char_traits_baseIciE3eofEv;2A?;operator=::(121,19)=#(121,6),(121,20)=&(121,6),(121,21)=*(121,6),(121,22)=&(121,23)=k(121,6),(0,6);:_ZN11stlpmtx_std18__char_traits_baseIciEaSERKS1_;2A.;__base_ctor::(121,24)=#(121,6),(0,6),(121,21),(121,22),(0,6);:_ZN11stlpmtx_std18__char_traits_baseIciEC2ERKS1_;2A.;__comp_ctor::(121,24):_ZN11stlpmtx_std18__char_traits_baseIciEC1ERKS1_;2A.;__base_ctor::(121,25)=#(121,6),(0,6),(121,21),(0,6);:_ZN11stlpmtx_std18__char_traits_baseIciEC2Ev;2A.;__comp_ctor::(121,25):_ZN11stlpmtx_std18__char_traits_baseIciEC1Ev;2A.;;",128,0,132,0
	.stabs	"__stlport_class<stlpmtx_std::char_traits<char> >:Tt(121,26)=s1operator=::(121,27)=#(121,26),(121,28)=&(121,26),(121,29)=*(121,26),(121,30)=&(121,31)=k(121,26),(0,6);:_ZN11stlpmtx_std15__stlport_classINS_11char_traitsIcEEEaSERKS3_;2A.;__base_ctor::(121,32)=#(121,26),(0,6),(121,29),(121,30),(0,6);:_ZN11stlpmtx_std15__stlport_classINS_11char_traitsIcEEEC2ERKS3_;2A.;__comp_ctor::(121,32):_ZN11stlpmtx_std15__stlport_classINS_11char_traitsIcEEEC1ERKS3_;2A.;__base_ctor::(121,33)=#(121,26),(0,6),(121,29),(0,6);:_ZN11stlpmtx_std15__stlport_classINS_11char_traitsIcEEEC2Ev;2A.;__comp_ctor::(121,33):_ZN11stlpmtx_std15__stlport_classINS_11char_traitsIcEEEC1Ev;2A.;;",128,0,572,0
	.stabs	"char_traits<char>:Tt(121,34)=s1!2,020,(121,6);020,(121,26);to_char_type::(121,15):_ZN11stlpmtx_std11char_traitsIcE12to_char_typeERKi;2A?;to_int_type::(121,16):_ZN11stlpmtx_std11char_traitsIcE11to_int_typeERKc;2A?;compare::(121,35)=f(0,3):_ZN11stlpmtx_std11char_traitsIcE7compareEPKcS3_m;2A?;length::(121,10):_ZN11stlpmtx_std11char_traitsIcE6lengthEPKc;2A?;assign::(121,7):_ZN11stlpmtx_std11char_traitsIcE6assignERcRKc;2A?(121,36)=f(2,5):_ZN11stlpmtx_std11char_traitsIcE6assignEPcmc;2A?;operator=::(121,37)=#(121,34),(121,38)=&(121,34),(121,39)=*(121,34),(121,40)=&(121,41)=k(121,34),(0,6);:_ZN11stlpmtx_std11char_traitsIcEaSERKS1_;2A.;__base_ctor::(121,42)=#(121,34),(0,6),(121,39),(121,40),(0,6);:_ZN11stlpmtx_std11char_traitsIcEC2ERKS1_;2A.;__comp_ctor::(121,42):_ZN11stlpmtx_std11char_traitsIcEC1ERKS1_;2A.;__base_ctor::(121,43)=#(121,34),(0,6),(121,39),(0,6);:_ZN11stlpmtx_std11char_traitsIcEC2Ev;2A.;__comp_ctor::(121,43):_ZN11stlpmtx_std11char_traitsIcEC1Ev;2A.;;",128,0,211,0
	.stabs	"__char_traits_base<wchar_t,wint_t>:Tt(121,44)=s1assign::(121,45)=f(0,6):_ZN11stlpmtx_std18__char_traits_baseIwiE6assignERwRKw;2A?;eq::(121,46)=f(0,4):_ZN11stlpmtx_std18__char_traits_baseIwiE2eqERKwS3_;2A?;lt::(121,46):_ZN11stlpmtx_std18__char_traits_baseIwiE2ltERKwS3_;2A?;compare::(121,47)=f(0,3):_ZN11stlpmtx_std18__char_traits_baseIwiE7compareEPKwS3_m;2A?;length::(121,48)=f(1,1):_ZN11stlpmtx_std18__char_traits_baseIwiE6lengthEPKw;2A?;find::(121,49)=f(121,50)=*(121,51)=k(0,5):_ZN11stlpmtx_std18__char_traits_baseIwiE4findEPKwmRS2_;2A?;move::(121,52)=f(121,53)=*(0,5):_ZN11stlpmtx_std18__char_traits_baseIwiE4moveEPwPKwm;2A?;copy::(121,52):_ZN11stlpmtx_std18__char_traits_baseIwiE4copyEPwPKwm;2A?;assign::(121,54)=f(121,53):_ZN11stlpmtx_std18__char_traits_baseIwiE6assignEPwmw;2A?;not_eof::(121,55)=f(90,1):_ZN11stlpmtx_std18__char_traits_baseIwiE7not_eofERKi;2A?;to_char_type::(121,56)=f(0,5):_ZN11stlpmtx_std18__char_traits_baseIwiE12to_char_typeERKi;2A?;to_int_type::(121,57)=f(90,1):_ZN11stlpmtx_std18__char_traits_baseIwiE11to_int_typeERKw;2A?;eq_int_type::(121,58)=f(0,4):_ZN11stlpmtx_std18__char_traits_baseIwiE11eq_int_typeERKiS3_;2A?;eof::(121,59)=f(90,1):_ZN11stlpmtx_std18__char_traits_baseIwiE3eofEv;2A?;operator=::(121,60)=#(121,44),(121,61)=&(121,44),(121,62)=*(121,44),(121,63)=&(121,64)=k(121,44),(0,6);:_ZN11stlpmtx_std18__char_traits_baseIwiEaSERKS1_;2A.;__base_ctor::(121,65)=#(121,44),(0,6),(121,62),(121,63),(0,6);:_ZN11stlpmtx_std18__char_traits_baseIwiEC2ERKS1_;2A.;__comp_ctor::(121,65):_ZN11stlpmtx_std18__char_traits_baseIwiEC1ERKS1_;2A.;__base_ctor::(121,66)=#(121,44),(0,6),(121,62),(0,6);:_ZN11stlpmtx_std18__char_traits_baseIwiEC2Ev;2A.;__comp_ctor::(121,66):_ZN11stlpmtx_std18__char_traits_baseIwiEC1Ev;2A.;;",128,0,132,0
	.stabs	"char_traits<wchar_t>:Tt(121,67)=s1!1,020,(121,44);move::(121,68)=f(121,53):_ZN11stlpmtx_std11char_traitsIwE4moveEPwPKwm;2A?;copy::(121,68):_ZN11stlpmtx_std11char_traitsIwE4copyEPwPKwm;2A?;compare::(121,69)=f(0,3):_ZN11stlpmtx_std11char_traitsIwE7compareEPKwS3_m;2A?;assign::(121,70)=f(121,53):_ZN11stlpmtx_std11char_traitsIwE6assignEPwmw;2A?;length::(121,48):_ZN11stlpmtx_std11char_traitsIwE6lengthEPKw;2A?;assign::(121,45):_ZN11stlpmtx_std11char_traitsIwE6assignERwRKw;2A?;operator=::(121,71)=#(121,67),(121,72)=&(121,67),(121,73)=*(121,67),(121,74)=&(121,75)=k(121,67),(0,6);:_ZN11stlpmtx_std11char_traitsIwEaSERKS1_;2A.;__base_ctor::(121,76)=#(121,67),(0,6),(121,73),(121,74),(0,6);:_ZN11stlpmtx_std11char_traitsIwEC2ERKS1_;2A.;__comp_ctor::(121,76):_ZN11stlpmtx_std11char_traitsIwEC1ERKS1_;2A.;__base_ctor::(121,77)=#(121,67),(0,6),(121,73),(0,6);:_ZN11stlpmtx_std11char_traitsIwEC2Ev;2A.;__comp_ctor::(121,77):_ZN11stlpmtx_std11char_traitsIwEC1Ev;2A.;;",128,0,244,0
	.stabn	162,0,0,0
	.stabs	"ios:t(120,1)=(120,2)=xsbasic_ios<char,stlpmtx_std::char_traits<char> >:",128,0,78,0
	.stabs	"wios:t(120,3)=(120,4)=xsbasic_ios<wchar_t,stlpmtx_std::char_traits<wchar_t> >:",128,0,81,0
	.stabs	"istream:t(120,5)=(120,6)=xsbasic_istream<char,stlpmtx_std::char_traits<char> >:",128,0,120,0
	.stabs	"ostream:t(120,7)=(120,8)=xsbasic_ostream<char,stlpmtx_std::char_traits<char> >:",128,0,121,0
	.stabs	"iostream:t(120,9)=(120,10)=xsbasic_iostream<char,stlpmtx_std::char_traits<char> >:",128,0,122,0
	.stabs	"streambuf:t(120,11)=(120,12)=xsbasic_streambuf<char,stlpmtx_std::char_traits<char> >:",128,0,123,0
	.stabs	"stringbuf:t(120,13)=(120,14)=xsbasic_stringbuf<char,stlpmtx_std::char_traits<char>,stlpmtx_std::allocator<char> >:",128,0,125,0
	.stabs	"istringstream:t(120,15)=(120,16)=xsbasic_istringstream<char,stlpmtx_std::char_traits<char>,stlpmtx_std::allocator<char> >:",128,0,126,0
	.stabs	"ostringstream:t(120,17)=(120,18)=xsbasic_ostringstream<char,stlpmtx_std::char_traits<char>,stlpmtx_std::allocator<char> >:",128,0,127,0
	.stabs	"stringstream:t(120,19)=(120,20)=xsbasic_stringstream<char,stlpmtx_std::char_traits<char>,stlpmtx_std::allocator<char> >:",128,0,128,0
	.stabs	"filebuf:t(120,21)=(120,22)=xsbasic_filebuf<char,stlpmtx_std::char_traits<char> >:",128,0,130,0
	.stabs	"ifstream:t(120,23)=(120,24)=xsbasic_ifstream<char,stlpmtx_std::char_traits<char> >:",128,0,131,0
	.stabs	"ofstream:t(120,25)=(120,26)=xsbasic_ofstream<char,stlpmtx_std::char_traits<char> >:",128,0,132,0
	.stabs	"fstream:t(120,27)=(120,28)=xsbasic_fstream<char,stlpmtx_std::char_traits<char> >:",128,0,133,0
	.stabs	"wstreambuf:t(120,29)=(120,30)=xsbasic_streambuf<wchar_t,stlpmtx_std::char_traits<wchar_t> >:",128,0,137,0
	.stabs	"wistream:t(120,31)=(120,32)=xsbasic_istream<wchar_t,stlpmtx_std::char_traits<wchar_t> >:",128,0,138,0
	.stabs	"wostream:t(120,33)=(120,34)=xsbasic_ostream<wchar_t,stlpmtx_std::char_traits<wchar_t> >:",128,0,139,0
	.stabs	"wiostream:t(120,35)=(120,36)=xsbasic_iostream<wchar_t,stlpmtx_std::char_traits<wchar_t> >:",128,0,140,0
	.stabs	"wstringbuf:t(120,37)=(120,38)=xsbasic_stringbuf<wchar_t,stlpmtx_std::char_traits<wchar_t>,stlpmtx_std::allocator<wchar_t> >:",128,0,142,0
	.stabs	"wistringstream:t(120,39)=(120,40)=xsbasic_istringstream<wchar_t,stlpmtx_std::char_traits<wchar_t>,stlpmtx_std::allocator<wchar_t> >:",128,0,143,0
	.stabs	"wostringstream:t(120,41)=(120,42)=xsbasic_ostringstream<wchar_t,stlpmtx_std::char_traits<wchar_t>,stlpmtx_std::allocator<wchar_t> >:",128,0,144,0
	.stabs	"wstringstream:t(120,43)=(120,44)=xsbasic_stringstream<wchar_t,stlpmtx_std::char_traits<wchar_t>,stlpmtx_std::allocator<wchar_t> >:",128,0,145,0
	.stabs	"wfilebuf:t(120,45)=(120,46)=xsbasic_filebuf<wchar_t,stlpmtx_std::char_traits<wchar_t> >:",128,0,147,0
	.stabs	"wifstream:t(120,47)=(120,48)=xsbasic_ifstream<wchar_t,stlpmtx_std::char_traits<wchar_t> >:",128,0,148,0
	.stabs	"wofstream:t(120,49)=(120,50)=xsbasic_ofstream<wchar_t,stlpmtx_std::char_traits<wchar_t> >:",128,0,149,0
	.stabs	"wfstream:t(120,51)=(120,52)=xsbasic_fstream<wchar_t,stlpmtx_std::char_traits<wchar_t> >:",128,0,150,0
	.stabn	162,0,0,0
	.stabs	"string:t(119,1)=(119,2)=xsbasic_string<char,stlpmtx_std::char_traits<char>,stlpmtx_std::allocator<char> >:",128,0,40,0
	.stabs	"wstring:t(119,3)=(119,4)=xsbasic_string<wchar_t,stlpmtx_std::char_traits<wchar_t>,stlpmtx_std::allocator<wchar_t> >:",128,0,43,0
	.stabn	162,0,0,0
	.stabs	"_String_reserve_t:Tt(86,1)=s1operator=::(86,2)=#(86,1),(86,3)=&(86,1),(86,4)=*(86,1),(86,5)=&(86,6)=k(86,1),(0,6);:_ZN11stlpmtx_std4priv17_String_reserve_taSERKS1_;2A.;__base_ctor::(86,7)=#(86,1),(0,6),(86,4),(86,5),(0,6);:_ZN11stlpmtx_std4priv17_String_reserve_tC2ERKS1_;2A.;__comp_ctor::(86,7):_ZN11stlpmtx_std4priv17_String_reserve_tC1ERKS1_;2A.;__base_ctor::(86,8)=#(86,1),(0,6),(86,4),(0,6);:_ZN11stlpmtx_std4priv17_String_reserve_tC2Ev;2A.;__comp_ctor::(86,8):_ZN11stlpmtx_std4priv17_String_reserve_tC1Ev;2A.;;",128,0,99,0
	.stabs	"_String_base<char,stlpmtx_std::allocator<char> >::_Buffers:Tt(86,9)=u16_M_end_of_storage:(2,5),0,32;_M_static_buf:(86,10)=ar(2,57);0;15;(0,19),0,128;operator=::(86,11)=#(86,9),(86,12)=&(86,9),(86,13)=*(86,9),(86,14)=&(86,15)=k(86,9),(0,6);:_ZN11stlpmtx_std4priv12_String_baseIcNS_9allocatorIcEEE8_BuffersaSERKS5_;2A.;__base_ctor::(86,16)=#(86,9),(0,6),(86,13),(86,14),(0,6);:_ZN11stlpmtx_std4priv12_String_baseIcNS_9allocatorIcEEE8_BuffersC2ERKS5_;2A.;__comp_ctor::(86,16):_ZN11stlpmtx_std4priv12_String_baseIcNS_9allocatorIcEEE8_BuffersC1ERKS5_;2A.;__base_ctor::(86,17)=#(86,9),(0,6),(86,13),(0,6);:_ZN11stlpmtx_std4priv12_String_baseIcNS_9allocatorIcEEE8_BuffersC2Ev;2A.;__comp_ctor::(86,17):_ZN11stlpmtx_std4priv12_String_baseIcNS_9allocatorIcEEE8_BuffersC1Ev;2A.;;",128,0,54,0
	.stabs	"__stlport_class<stlpmtx_std::allocator<char> >:Tt(86,18)=s1operator=::(86,19)=#(86,18),(86,20)=&(86,18),(86,21)=*(86,18),(86,22)=&(86,23)=k(86,18),(0,6);:_ZN11stlpmtx_std15__stlport_classINS_9allocatorIcEEEaSERKS3_;2A.;__base_ctor::(86,24)=#(86,18),(0,6),(86,21),(86,22),(0,6);:_ZN11stlpmtx_std15__stlport_classINS_9allocatorIcEEEC2ERKS3_;2A.;__comp_ctor::(86,24):_ZN11stlpmtx_std15__stlport_classINS_9allocatorIcEEEC1ERKS3_;2A.;__base_ctor::(86,25)=#(86,18),(0,6),(86,21),(0,6);:_ZN11stlpmtx_std15__stlport_classINS_9allocatorIcEEEC2Ev;2A.;__comp_ctor::(86,25):_ZN11stlpmtx_std15__stlport_classINS_9allocatorIcEEEC1Ev;2A.;;",128,0,572,0
	.stabs	"allocator<char>:Tt(86,26)=s1!1,020,(86,18);__base_ctor::(86,27)=#(86,26),(0,6),(86,28)=*(86,26),(0,6);:_ZN11stlpmtx_std9allocatorIcEC2Ev;2A.;__comp_ctor::(86,27):_ZN11stlpmtx_std9allocatorIcEC1Ev;2A.;__base_ctor::(86,29)=#(86,26),(0,6),(86,28),(86,30)=&(86,31)=k(86,26),(0,6);:_ZN11stlpmtx_std9allocatorIcEC2ERKS1_;2A.;__comp_ctor::(86,29):_ZN11stlpmtx_std9allocatorIcEC1ERKS1_;2A.;__base_ctor::(86,32)=#(86,26),(0,6),(86,28),(86,33)=xs__move_source<stlpmtx_std::allocator<char> >:,(0,6);:_ZN11stlpmtx_std9allocatorIcEC2ENS_13__move_sourceIS1_EE;2A.;__comp_ctor::(86,32):_ZN11stlpmtx_std9allocatorIcEC1ENS_13__move_sourceIS1_EE;2A.;__base_dtor::(86,27):_ZN11stlpmtx_std9allocatorIcED2Ev;2A.;__comp_dtor::(86,27):_ZN11stlpmtx_std9allocatorIcED1Ev;2A.;address::(86,34)=#(86,26),(2,5),(86,35)=*(86,31),(12,18),(0,6);:_ZNK11stlpmtx_std9allocatorIcE7addressERc;2B.(86,36)=#(86,26),(12,7),(86,35),(12,20),(0,6);:_ZNK11stlpmtx_std9allocatorIcE7addressERKc;2B.;allocate::(86,37)=#(86,26),(2,5),(86,28),(0,16),(15,5),(0,6);:_ZN11stlpmtx_std9allocatorIcE8allocateEmPKv;2A.;deallocate::(86,38)=#(86,26),(0,6),(86,28),(2,5),(0,16),(0,6);:_ZN11stlpmtx_std9allocatorIcE10deallocateEPcm;2A.(86,39)=#(86,26),(0,6),(86,35),(2,5),(0,6);:_ZNK11stlpmtx_std9allocatorIcE10deallocateEPc;2B.;max_size::(86,40)=#(86,26),(1,1),(86,35),(0,6);:_ZNK11stlpmtx_std9allocatorIcE8max_sizeEv;2B.;construct::(86,41)=#(86,26),(0,6),(86,28),(2,5),(12,20),(0,6);:_ZN11stlpmtx_std9allocatorIcE9constructEPcRKc;2A.;destroy::(86,42)=#(86,26),(0,6),(86,28),(2,5),(0,6);:_ZN11stlpmtx_std9allocatorIcE7destroyEPc;2A.;_M_allocate::(86,43)=#(86,26),(2,5),(86,28),(0,16),(86,44)=&(1,1),(0,6);:_ZN11stlpmtx_std9allocatorIcE11_M_allocateEmRm;2A.;operator=::(86,45)=#(86,26),(86,46)=&(86,26),(86,28),(86,30),(0,6);:_ZN11stlpmtx_std9allocatorIcEaSERKS1_;2A.;;",128,0,275,0
	.stabs	"_STLP_alloc_proxy<char*,char,stlpmtx_std::allocator<char> >:Tt(86,47)=s4!1,020,(86,26);_M_data:(2,5),0,32;__base_ctor::(86,48)=#(86,47),(0,6),(86,49)=*(86,47),(86,30),(2,5),(0,6);:_ZN11stlpmtx_std4priv17_STLP_alloc_proxyIPccNS_9allocatorIcEEEC2ERKS4_S2_;2A.;__comp_ctor::(86,48):_ZN11stlpmtx_std4priv17_STLP_alloc_proxyIPccNS_9allocatorIcEEEC1ERKS4_S2_;2A.;__base_ctor::(86,50)=#(86,47),(0,6),(86,49),(86,51)=xs__move_source<stlpmtx_std::priv::_STLP_alloc_proxy<char*, char, stlpmtx_std::allocator<char> > >:,(0,6);:_ZN11stlpmtx_std4priv17_STLP_alloc_proxyIPccNS_9allocatorIcEEEC2ENS_13__move_sourceIS5_EE;2A.;__comp_ctor::(86,50):_ZN11stlpmtx_std4priv17_STLP_alloc_proxyIPccNS_9allocatorIcEEEC1ENS_13__move_sourceIS5_EE;2A.;_M_base::(86,52)=#(86,47),(86,46),(86,49),(0,6);:_ZN11stlpmtx_std4priv17_STLP_alloc_proxyIPccNS_9allocatorIcEEE7_M_baseEv;2A.;_M_swap_alloc::(86,53)=#(86,47),(0,6),(86,49),(86,54)=&(86,47),(106,5),(0,6);:_ZN11stlpmtx_std4priv17_STLP_alloc_proxyIPccNS_9allocatorIcEEE13_M_swap_allocERS5_RKNS_11__true_typeE;0A.(86,55)=#(86,47),(0,6),(86,49),(86,54),(106,13),(0,6);:_ZN11stlpmtx_std4priv17_STLP_alloc_proxyIPccNS_9allocatorIcEEE13_M_swap_allocERS5_RKNS_12__false_typeE;0A.(86,56)=#(86,47),(0,6),(86,49),(86,54),(0,6);:_ZN11stlpmtx_std4priv17_STLP_alloc_proxyIPccNS_9allocatorIcEEE13_M_swap_allocERS5_;2A.;swap::(86,56):_ZN11stlpmtx_std4priv17_STLP_alloc_proxyIPccNS_9allocatorIcEEE4swapERS5_;2A.;allocate::(86,57)=#(86,47),(2,5),(86,49),(0,16),(86,44),(0,6);:_ZN11stlpmtx_std4priv17_STLP_alloc_proxyIPccNS_9allocatorIcEEE8allocateEmRm;2A.(86,58)=#(86,47),(2,5),(86,49),(0,16),(0,6);:_ZN11stlpmtx_std4priv17_STLP_alloc_proxyIPccNS_9allocatorIcEEE8allocateEm;2A.(86,59)=#(86,47),(2,5),(86,49),(0,16),(86,44),(106,5),(0,6);:_ZN11stlpmtx_std4priv17_STLP_alloc_proxyIPccNS_9allocatorIcEEE8allocateEmRmRKNS_11__true_typeE;0A.(86,60)=#(86,47),(2,5),(86,49),(0,16),(86,44),(106,13),(0,6);:_ZN11stlpmtx_std4priv17_STLP_alloc_proxyIPccNS_9allocatorIcEEE8allocateEmRmRKNS_12__false_typeE;0A.;operator=::(86,61)=#(86,47),(86,54),(86,49),(86,62)=&(86,63)=k(86,47),(0,6);:_ZN11stlpmtx_std4priv17_STLP_alloc_proxyIPccNS_9allocatorIcEEEaSERKS5_;2A.;__base_ctor::(86,64)=#(86,47),(0,6),(86,49),(86,62),(0,6);:_ZN11stlpmtx_std4priv17_STLP_alloc_proxyIPccNS_9allocatorIcEEEC2ERKS5_;2A.;__comp_ctor::(86,64):_ZN11stlpmtx_std4priv17_STLP_alloc_proxyIPccNS_9allocatorIcEEEC1ERKS5_;2A.;__base_dtor::(86,65)=#(86,47),(0,6),(86,49),(0,6);:_ZN11stlpmtx_std4priv17_STLP_alloc_proxyIPccNS_9allocatorIcEEED2Ev;2A.;__comp_dtor::(86,65):_ZN11stlpmtx_std4priv17_STLP_alloc_proxyIPccNS_9allocatorIcEEED1Ev;2A.;;",128,0,472,0
	.stabs	"_String_base<char,stlpmtx_std::allocator<char> >:Tt(86,66)=s24_M_buffers:/0(86,9),0,128;_M_finish:/1(2,5),128,32;_M_start_of_storage:/1(86,47),160,32;_M_using_static_buf::(86,67)=#(86,66),(0,4),(86,68)=*(86,69)=k(86,66),(0,6);:_ZNK11stlpmtx_std4priv12_String_baseIcNS_9allocatorIcEEE19_M_using_static_bufEv;1B.;_M_Start::(86,70)=#(86,66),(12,7),(86,68),(0,6);:_ZNK11stlpmtx_std4priv12_String_baseIcNS_9allocatorIcEEE8_M_StartEv;1B.(86,71)=#(86,66),(2,5),(86,72)=*(86,66),(0,6);:_ZN11stlpmtx_std4priv12_String_baseIcNS_9allocatorIcEEE8_M_StartEv;1A.;_M_End::(86,70):_ZNK11stlpmtx_std4priv12_String_baseIcNS_9allocatorIcEEE6_M_EndEv;1B.(86,71):_ZN11stlpmtx_std4priv12_String_baseIcNS_9allocatorIcEEE6_M_EndEv;1A.;_M_capacity::(86,73)=#(86,66),(1,1),(86,68),(0,6);:_ZNK11stlpmtx_std4priv12_String_baseIcNS_9allocatorIcEEE11_M_capacityEv;1B.;_M_rest::(86,73):_ZNK11stlpmtx_std4priv12_String_baseIcNS_9allocatorIcEEE7_M_restEv;1B.;_M_Finish::(86,70):_ZNK11stlpmtx_std4priv12_String_baseIcNS_9allocatorIcEEE9_M_FinishEv;1B.(86,71):_ZN11stlpmtx_std4priv12_String_baseIcNS_9allocatorIcEEE9_M_FinishEv;1A.;_M_allocate_block::(86,74)=#(86,66),(0,6),(86,72),(0,16),(0,6);:_ZN11stlpmtx_std4priv12_String_baseIcNS_9allocatorIcEEE17_M_allocate_blockEm;1A.;_M_deallocate_block::(86,75)=#(86,66),(0,6),(86,72),(0,6);:_ZN11stlpmtx_std4priv12_String_baseIcNS_9allocatorIcEEE19_M_deallocate_blockEv;1A.;max_size::(86,73):_ZNK11stlpmtx_std4priv12_String_baseIcNS_9allocatorIcEEE8max_sizeEv;1B.;__base_ctor::(86,76)=#(86,66),(0,6),(86,72),(86,30),(0,6);:_ZN11stlpmtx_std4priv12_String_baseIcNS_9allocatorIcEEEC2ERKS3_;1A.;__comp_ctor::(86,76):_ZN11stlpmtx_std4priv12_String_baseIcNS_9allocatorIcEEEC1ERKS3_;1A.;__base_ctor::(86,77)=#(86,66),(0,6),(86,72),(86,30),(0,16),(0,6);:_ZN11stlpmtx_std4priv12_String_baseIcNS_9allocatorIcEEEC2ERKS3_m;1A.;__comp_ctor::(86,77):_ZN11stlpmtx_std4priv12_String_baseIcNS_9allocatorIcEEEC1ERKS3_m;1A.;_M_move_src::(86,78)=#(86,66),(0,6),(86,72),(86,79)=&(86,66),(0,6);:_ZN11stlpmtx_std4priv12_String_baseIcNS_9allocatorIcEEE11_M_move_srcERS4_;1A.;__base_ctor::(86,80)=#(86,66),(0,6),(86,72),(86,81)=xs__move_source<stlpmtx_std::priv::_String_base<char, stlpmtx_std::allocator<char> > >:,(0,6);:_ZN11stlpmtx_std4priv12_String_baseIcNS_9allocatorIcEEEC2ENS_13__move_sourceIS4_EE;1A.;__comp_ctor::(86,80):_ZN11stlpmtx_std4priv12_String_baseIcNS_9allocatorIcEEEC1ENS_13__move_sourceIS4_EE;1A.;__base_dtor::(86,75):_ZN11stlpmtx_std4priv12_String_baseIcNS_9allocatorIcEEED2Ev;1A.;__comp_dtor::(86,75):_ZN11stlpmtx_std4priv12_String_baseIcNS_9allocatorIcEEED1Ev;1A.;_M_reset::(86,82)=#(86,66),(0,6),(86,72),(2,5),(2,5),(2,5),(0,6);:_ZN11stlpmtx_std4priv12_String_baseIcNS_9allocatorIcEEE8_M_resetEPcS5_S5_;1A.;_M_swap::(86,78):_ZN11stlpmtx_std4priv12_String_baseIcNS_9allocatorIcEEE7_M_swapERS4_;1A.;_M_throw_length_error::(86,83)=#(86,66),(0,6),(86,68),(0,6);:_ZNK11stlpmtx_std4priv12_String_baseIcNS_9allocatorIcEEE21_M_throw_length_errorEv;1B.;_M_throw_out_of_range::(86,83):_ZNK11stlpmtx_std4priv12_String_baseIcNS_9allocatorIcEEE21_M_throw_out_of_rangeEv;1B.;operator=::(86,84)=#(86,66),(86,79),(86,72),(86,85)=&(86,69),(0,6);:_ZN11stlpmtx_std4priv12_String_baseIcNS_9allocatorIcEEEaSERKS4_;2A.;__base_ctor::(86,86)=#(86,66),(0,6),(86,72),(86,85),(0,6);:_ZN11stlpmtx_std4priv12_String_baseIcNS_9allocatorIcEEEC2ERKS4_;2A.;__comp_ctor::(86,86):_ZN11stlpmtx_std4priv12_String_baseIcNS_9allocatorIcEEEC1ERKS4_;2A.;;",128,0,41,0
	.stabs	"basic_string<char,stlpmtx_std::char_traits<char>,stlpmtx_std::allocator<char> >:Tt(119,2)=s24!1,000,(86,66);npos:/2(86,87)=k(1,1):_ZN11stlpmtx_std12basic_stringIcNS_11char_traitsIcEENS_9allocatorIcEEE4nposE;get_allocator::(86,88)=#(119,2),(86,26),(86,89)=*(86,90)=k(119,2),(0,6);:_ZNK11stlpmtx_std12basic_stringIcNS_11char_traitsIcEENS_9allocatorIcEEE13get_allocatorEv;2B.;__base_ctor::(86,91)=#(119,2),(0,6),(86,92)=*(119,2),(86,30),(0,6);:_ZN11stlpmtx_std12basic_stringIcNS_11char_traitsIcEENS_9allocatorIcEEEC2ERKS4_;2A.;__comp_ctor::(86,91):_ZN11stlpmtx_std12basic_stringIcNS_11char_traitsIcEENS_9allocatorIcEEEC1ERKS4_;2A.;__base_ctor::(86,93)=#(119,2),(0,6),(86,92),(86,1),(0,16),(86,30),(0,6);:_ZN11stlpmtx_std12basic_stringIcNS_11char_traitsIcEENS_9allocatorIcEEEC2ENS_4priv17_String_reserve_tEmRKS4_;2A.;__comp_ctor::(86,93):_ZN11stlpmtx_std12basic_stringIcNS_11char_traitsIcEENS_9allocatorIcEEEC1ENS_4priv17_String_reserve_tEmRKS4_;2A.;__base_ctor::(86,94)=#(119,2),(0,6),(86,92),(86,95)=&(86,90),(0,6);:_ZN11stlpmtx_std12basic_stringIcNS_11char_traitsIcEENS_9allocatorIcEEEC2ERKS5_;2A.;__comp_ctor::(86,94):_ZN11stlpmtx_std12basic_stringIcNS_11char_traitsIcEENS_9allocatorIcEEEC1ERKS5_;2A.;__base_ctor::(86,96)=#(119,2),(0,6),(86,92),(86,95),(0,16),(0,16),(86,30),(0,6);:_ZN11stlpmtx_std12basic_stringIcNS_11char_traitsIcEENS_9allocatorIcEEEC2ERKS5_mmRKS4_;2A.;__comp_ctor::(86,96):_ZN11stlpmtx_std12basic_stringIcNS_11char_traitsIcEENS_9allocatorIcEEEC1ERKS5_mmRKS4_;2A.;__base_ctor::(86,97)=#(119,2),(0,6),(86,92),(12,7),(0,16),(86,30),(0,6);:_ZN11stlpmtx_std12basic_stringIcNS_11char_traitsIcEENS_9allocatorIcEEEC2EPKcmRKS4_;2A.;__comp_ctor::(86,97):_ZN11stlpmtx_std12basic_stringIcNS_11char_traitsIcEENS_9allocatorIcEEEC1EPKcmRKS4_;2A.;__base_ctor::(86,98)=#(119,2),(0,6),(86,92),(12,7),(86,30),(0,6);:_ZN11stlpmtx_std12basic_stringIcNS_11char_traitsIcEENS_9allocatorIcEEEC2EPKcRKS4_;2A.;__comp_ctor::(86,98):_ZN11stlpmtx_std12basic_stringIcNS_11char_traitsIcEENS_9allocatorIcEEEC1EPKcRKS4_;2A.;__base_ctor::(86,99)=#(119,2),(0,6),(86,92),(0,16),(0,19),(86,30),(0,6);:_ZN11stlpmtx_std12basic_stringIcNS_11char_traitsIcEENS_9allocatorIcEEEC2EmcRKS4_;2A.;__comp_ctor::(86,99):_ZN11stlpmtx_std12basic_stringIcNS_11char_traitsIcEENS_9allocatorIcEEEC1EmcRKS4_;2A.;__base_ctor::(86,100)=#(119,2),(0,6),(86,92),(86,101)=xs__move_source<stlpmtx_std::basic_string<char, stlpmtx_std::char_traits<char>, stlpmtx_std::allocator<char> > >:,(0,6);:_ZN11stlpmtx_std12basic_stringIcNS_11char_traitsIcEENS_9allocatorIcEEEC2ENS_13__move_sourceIS5_EE;2A.;__comp_ctor::(86,100):_ZN11stlpmtx_std12basic_stringIcNS_11char_traitsIcEENS_9allocatorIcEEEC1ENS_13__move_sourceIS5_EE;2A.;_M_compute_next_size::(86,102)=#(119,2),(1,1),(86,92),(0,16),(0,6);:_ZN11stlpmtx_std12basic_stringIcNS_11char_traitsIcEENS_9allocatorIcEEE20_M_compute_next_sizeEm;0A.;operator=::(86,103)=#(119,2),(86,104)=&(119,2),(86,92),(86,95),(0,6);:_ZN11stlpmtx_std12basic_stringIcNS_11char_traitsIcEENS_9allocatorIcEEEaSERKS5_;2A.(86,105)=#(119,2),(86,104),(86,92),(12,7),(0,6);:_ZN11stlpmtx_std12basic_stringIcNS_11char_traitsIcEENS_9allocatorIcEEEaSEPKc;2A.(86,106)=#(119,2),(86,104),(86,92),(0,19),(0,6);:_ZN11stlpmtx_std12basic_stringIcNS_11char_traitsIcEENS_9allocatorIcEEEaSEc;2A.;_M_null::(86,107)=f(0,19):_ZN11stlpmtx_std12basic_stringIcNS_11char_traitsIcEENS_9allocatorIcEEE7_M_nullEv;0A?;_M_construct_null::(86,108)=#(119,2),(0,6),(86,89),(2,5),(0,6);:_ZNK11stlpmtx_std12basic_stringIcNS_11char_traitsIcEENS_9allocatorIcEEE17_M_construct_nullEPc;0B.;_M_terminate_string::(86,109)=#(119,2),(0,6),(86,92),(0,6);:_ZN11stlpmtx_std12basic_stringIcNS_11char_traitsIcEENS_9allocatorIcEEE19_M_terminate_stringEv;0A.;_M_inside::(86,110)=#(119,2),(0,4),(86,89),(12,7),(0,6);:_ZNK11stlpmtx_std12basic_stringIcNS_11char_traitsIcEENS_9allocatorIcEEE9_M_insideEPKc;0B.;_M_range_initialize::(86,111)=#(119,2),(0,6),(86,92),(12,7),(12,7),(0,6);:_ZN11stlpmtx_std12basic_stringIcNS_11char_traitsIcEENS_9allocatorIcEEE19_M_range_initializeEPKcS7_;0A.;begin::(86,112)=#(119,2),(2,5),(86,92),(0,6);:_ZN11stlpmtx_std12basic_stringIcNS_11char_traitsIcEENS_9allocatorIcEEE5beginEv;2A.;end::(86,112):_ZN11stlpmtx_std12basic_stringIcNS_11char_traitsIcEENS_9allocatorIcEEE3endEv;2A.;begin::(86,113)=#(119,2),(12,7),(86,89),(0,6);:_ZNK11stlpmtx_std12basic_stringIcNS_11char_traitsIcEENS_9allocatorIcEEE5beginEv;2B.;end::(86,113):_ZNK11stlpmtx_std12basic_stringIcNS_11char_traitsIcEENS_9allocatorIcEEE3endEv;2B.;rbegin::(86,114)=#(119,2),(86,115)=xsreverse_iterator<char*>:,(86,92),(0,6);:_ZN11stlpmtx_std12basic_stringIcNS_11char_traitsIcEENS_9allocatorIcEEE6rbeginEv;2A.;rend::(86,114):_ZN11stlpmtx_std12basic_stringIcNS_11char_traitsIcEENS_9allocatorIcEEE4rendEv;2A.;rbegin::(86,116)=#(119,2),(86,117)=xsreverse_iterator<const char*>:,(86,89),(0,6);:_ZNK11stlpmtx_std12basic_stringIcNS_11char_traitsIcEENS_9allocatorIcEEE6rbeginEv;2B.;rend::(86,116):_ZNK11stlpmtx_std12basic_stringIcNS_11char_traitsIcEENS_9allocatorIcEEE4rendEv;2B.;size::(86,118)=#(119,2),(1,1),(86,89),(0,6);:_ZNK11stlpmtx_std12basic_stringIcNS_11char_traitsIcEENS_9allocatorIcEEE4sizeEv;2B.;length::(86,118):_ZNK11stlpmtx_std12basic_stringIcNS_11char_traitsIcEENS_9allocatorIcEEE6lengthEv;2B.;max_size::(86,118):_ZNK11stlpmtx_std12basic_stringIcNS_11char_traitsIcEENS_9allocatorIcEEE8max_sizeEv;2B.;resize::(86,119)=#(119,2),(0,6),(86,92),(0,16),(0,19),(0,6);:_ZN11stlpmtx_std12basic_stringIcNS_11char_traitsIcEENS_9allocatorIcEEE6resizeEmc;2A.(86,120)=#(119,2),(0,6),(86,92),(0,16),(0,6);:_ZN11stlpmtx_std12basic_stringIcNS_11char_traitsIcEENS_9allocatorIcEEE6resizeEm;2A.;_M_reserve::(86,120):_ZN11stlpmtx_std12basic_stringIcNS_11char_traitsIcEENS_9allocatorIcEEE10_M_reserveEm;0A.;reserve::(86,121)=#(119,2),(0,6),(86,92),(0,16),(0,6);:_ZN11stlpmtx_std12basic_stringIcNS_11char_traitsIcEENS_9allocatorIcEEE7reserveEm;2A.;capacity::(86,118):_ZNK11stlpmtx_std12basic_stringIcNS_11char_traitsIcEENS_9allocatorIcEEE8capacityEv;2B.;clear::(86,109):_ZN11stlpmtx_std12basic_stringIcNS_11char_traitsIcEENS_9allocatorIcEEE5clearEv;2A.;empty::(86,122)=#(119,2),(0,4),(86,89),(0,6);:_ZNK11stlpmtx_std12basic_stringIcNS_11char_traitsIcEENS_9allocatorIcEEE5emptyEv;2B.;operator[]::(86,123)=#(119,2),(12,20),(86,89),(0,16),(0,6);:_ZNK11stlpmtx_std12basic_stringIcNS_11char_traitsIcEENS_9allocatorIcEEEixEm;2B.(86,124)=#(119,2),(12,18),(86,92),(0,16),(0,6);:_ZN11stlpmtx_std12basic_stringIcNS_11char_traitsIcEENS_9allocatorIcEEEixEm;2A.;at::(86,123):_ZNK11stlpmtx_std12basic_stringIcNS_11char_traitsIcEENS_9allocatorIcEEE2atEm;2B.(86,124):_ZN11stlpmtx_std12basic_stringIcNS_11char_traitsIcEENS_9allocatorIcEEE2atEm;2A.;operator+=::(86,103):_ZN11stlpmtx_std12basic_stringIcNS_11char_traitsIcEENS_9allocatorIcEEEpLERKS5_;2A.(86,105):_ZN11stlpmtx_std12basic_stringIcNS_11char_traitsIcEENS_9allocatorIcEEEpLEPKc;2A.(86,106):_ZN11stlpmtx_std12basic_stringIcNS_11char_traitsIcEENS_9allocatorIcEEEpLEc;2A.;_M_append::(86,125)=#(119,2),(86,104),(86,92),(12,7),(12,7),(0,6);:_ZN11stlpmtx_std12basic_stringIcNS_11char_traitsIcEENS_9allocatorIcEEE9_M_appendEPKcS7_;0A.;append::(86,103):_ZN11stlpmtx_std12basic_stringIcNS_11char_traitsIcEENS_9allocatorIcEEE6appendERKS5_;2A.(86,126)=#(119,2),(86,104),(86,92),(86,95),(0,16),(0,16),(0,6);:_ZN11stlpmtx_std12basic_stringIcNS_11char_traitsIcEENS_9allocatorIcEEE6appendERKS5_mm;2A.(86,127)=#(119,2),(86,104),(86,92),(12,7),(0,16),(0,6);:_ZN11stlpmtx_std12basic_stringIcNS_11char_traitsIcEENS_9allocatorIcEEE6appendEPKcm;2A.(86,105):_ZN11stlpmtx_std12basic_stringIcNS_11char_traitsIcEENS_9allocatorIcEEE6appendEPKc;2A.(86,128)=#(119,2),(86,104),(86,92),(0,16),(0,19),(0,6);:_ZN11stlpmtx_std12basic_stringIcNS_11char_traitsIcEENS_9allocatorIcEEE6appendEmc;2A.;push_back::(86,129)=#(119,2),(0,6),(86,92),(0,19),(0,6);:_ZN11stlpmtx_std12basic_stringIcNS_11char_traitsIcEENS_9allocatorIcEEE9push_backEc;2A.;pop_back::(86,109):_ZN11stlpmtx_std12basic_stringIcNS_11char_traitsIcEENS_9allocatorIcEEE8pop_backEv;2A.;assign::(86,103):_ZN11stlpmtx_std12basic_stringIcNS_11char_traitsIcEENS_9allocatorIcEEE6assignERKS5_;2A.(86,126):_ZN11stlpmtx_std12basic_stringIcNS_11char_traitsIcEENS_9allocatorIcEEE6assignERKS5_mm;2A.(86,127):_ZN11stlpmtx_std12basic_stringIcNS_11char_traitsIcEENS_9allocatorIcEEE6assignEPKcm;2A.(86,105):_ZN11stlpmtx_std12basic_stringIcNS_11char_traitsIcEENS_9allocatorIcEEE6assignEPKc;2A.(86,128):_ZN11stlpmtx_std12basic_stringIcNS_11char_traitsIcEENS_9allocatorIcEEE6assignEmc;2A.;_M_assign::(86,125):_ZN11stlpmtx_std12basic_stringIcNS_11char_traitsIcEENS_9allocatorIcEEE9_M_assignEPKcS7_;0A.;insert::(86,130)=#(119,2),(86,104),(86,92),(0,16),(86,95),(0,6);:_ZN11stlpmtx_std12basic_stringIcNS_11char_traitsIcEENS_9allocatorIcEEE6insertEmRKS5_;2A.(86,131)=#(119,2),(86,104),(86,92),(0,16),(86,95),(0,16),(0,16),(0,6);:_ZN11stlpmtx_std12basic_stringIcNS_11char_traitsIcEENS_9allocatorIcEEE6insertEmRKS5_mm;2A.(86,132)=#(119,2),(86,104),(86,92),(0,16),(12,7),(0,16),(0,6);:_ZN11stlpmtx_std12basic_stringIcNS_11char_traitsIcEENS_9allocatorIcEEE6insertEmPKcm;2A.(86,133)=#(119,2),(86,104),(86,92),(0,16),(12,7),(0,6);:_ZN11stlpmtx_std12basic_stringIcNS_11char_traitsIcEENS_9allocatorIcEEE6insertEmPKc;2A.(86,134)=#(119,2),(86,104),(86,92),(0,16),(0,16),(0,19),(0,6);:_ZN11stlpmtx_std12basic_stringIcNS_11char_traitsIcEENS_9allocatorIcEEE6insertEmmc;2A.(86,135)=#(119,2),(2,5),(86,92),(2,5),(0,19),(0,6);:_ZN11stlpmtx_std12basic_stringIcNS_11char_traitsIcEENS_9allocatorIcEEE6insertEPcc;2A.(86,136)=#(119,2),(0,6),(86,92),(2,5),(0,16),(0,19),(0,6);:_ZN11stlpmtx_std12basic_stringIcNS_11char_traitsIcEENS_9allocatorIcEEE6insertEPcmc;2A.;_M_insert::(86,137)=#(119,2),(0,6),(86,92),(2,5),(12,7),(12,7),(0,4),(0,6);:_ZN11stlpmtx_std12basic_stringIcNS_11char_traitsIcEENS_9allocatorIcEEE9_M_insertEPcPKcS8_b;0A.;_M_insert_aux::(86,135):_ZN11stlpmtx_std12basic_stringIcNS_11char_traitsIcEENS_9allocatorIcEEE13_M_insert_auxEPcc;0A.;_M_copy::(86,138)=#(119,2),(0,6),(86,92),(12,7),(12,7),(2,5),(0,6);:_ZN11stlpmtx_std12basic_stringIcNS_11char_traitsIcEENS_9allocatorIcEEE7_M_copyEPKcS7_Pc;0A.;_M_move::(86,138):_ZN11stlpmtx_std12basic_stringIcNS_11char_traitsIcEENS_9allocatorIcEEE7_M_moveEPKcS7_Pc;0A.;_M_copyT::(86,138):_ZN11stlpmtx_std12basic_stringIcNS_11char_traitsIcEENS_9allocatorIcEEE8_M_copyTEPKcS7_Pc;0A.;insert::(86,139)=#(119,2),(0,6),(86,92),(2,5),(12,7),(12,7),(0,6);:_ZN11stlpmtx_std12basic_stringIcNS_11char_traitsIcEENS_9allocatorIcEEE6insertEPcPKcS8_;2A.;erase::(86,140)=#(119,2),(86,104),(86,92),(0,16),(0,16),(0,6);:_ZN11stlpmtx_std12basic_stringIcNS_11char_traitsIcEENS_9allocatorIcEEE5eraseEmm;2A.(86,141)=#(119,2),(2,5),(86,92),(2,5),(0,6);:_ZN11stlpmtx_std12basic_stringIcNS_11char_traitsIcEENS_9allocatorIcEEE5eraseEPc;2A.(86,142)=#(119,2),(2,5),(86,92),(2,5),(2,5),(0,6);:_ZN11stlpmtx_std12basic_stringIcNS_11char_traitsIcEENS_9allocatorIcEEE5eraseEPcS6_;2A.;replace::(86,143)=#(119,2),(86,104),(86,92),(0,16),(0,16),(86,95),(0,6);:_ZN11stlpmtx_std12basic_stringIcNS_11char_traitsIcEENS_9allocatorIcEEE7replaceEmmRKS5_;2A.(86,144)=#(119,2),(86,104),(86,92),(0,16),(0,16),(86,95),(0,16),(0,16),(0,6);:_ZN11stlpmtx_std12basic_stringIcNS_11char_traitsIcEENS_9allocatorIcEEE7replaceEmmRKS5_mm;2A.(86,145)=#(119,2),(86,104),(86,92),(0,16),(0,16),(12,7),(0,16),(0,6);:_ZN11stlpmtx_std12basic_stringIcNS_11char_traitsIcEENS_9allocatorIcEEE7replaceEmmPKcm;2A.(86,146)=#(119,2),(86,104),(86,92),(0,16),(0,16),(12,7),(0,6);:_ZN11stlpmtx_std12basic_stringIcNS_11char_traitsIcEENS_9allocatorIcEEE7replaceEmmPKc;2A.(86,147)=#(119,2),(86,104),(86,92),(0,16),(0,16),(0,16),(0,19),(0,6);:_ZN11stlpmtx_std12basic_stringIcNS_11char_traitsIcEENS_9allocatorIcEEE7replaceEmmmc;2A.(86,148)=#(119,2),(86,104),(86,92),(2,5),(2,5),(86,95),(0,6);:_ZN11stlpmtx_std12basic_stringIcNS_11char_traitsIcEENS_9allocatorIcEEE7replaceEPcS6_RKS5_;2A.(86,149)=#(119,2),(86,104),(86,92),(2,5),(2,5),(12,7),(0,16),(0,6);:_ZN11stlpmtx_std12basic_stringIcNS_11char_traitsIcEENS_9allocatorIcEEE7replaceEPcS6_PKcm;2A.(86,150)=#(119,2),(86,104),(86,92),(2,5),(2,5),(12,7),(0,6);:_ZN11stlpmtx_std12basic_stringIcNS_11char_traitsIcEENS_9allocatorIcEEE7replaceEPcS6_PKc;2A.(86,151)=#(119,2),(86,104),(86,92),(2,5),(2,5),(0,16),(0,19),(0,6);:_ZN11stlpmtx_std12basic_stringIcNS_11char_traitsIcEENS_9allocatorIcEEE7replaceEPcS6_mc;2A.;_M_replace::(86,152)=#(119,2),(86,104),(86,92),(2,5),(2,5),(12,7),(12,7),(0,4),(0,6);:_ZN11stlpmtx_std12basic_stringIcNS_11char_traitsIcEENS_9allocatorIcEEE10_M_replaceEPcS6_PKcS8_b;0A.;replace::(86,153)=#(119,2),(86,104),(86,92),(2,5),(2,5),(12,7),(12,7),(0,6);:_ZN11stlpmtx_std12basic_stringIcNS_11char_traitsIcEENS_9allocatorIcEEE7replaceEPcS6_PKcS8_;2A.;copy::(86,154)=#(119,2),(1,1),(86,89),(2,5),(0,16),(0,16),(0,6);:_ZNK11stlpmtx_std12basic_stringIcNS_11char_traitsIcEENS_9allocatorIcEEE4copyEPcmm;2B.;swap::(86,155)=#(119,2),(0,6),(86,92),(86,104),(0,6);:_ZN11stlpmtx_std12basic_stringIcNS_11char_traitsIcEENS_9allocatorIcEEE4swapERS5_;2A.;c_str::(86,113):_ZNK11stlpmtx_std12basic_stringIcNS_11char_traitsIcEENS_9allocatorIcEEE5c_strEv;2B.;data::(86,113):_ZNK11stlpmtx_std12basic_stringIcNS_11char_traitsIcEENS_9allocatorIcEEE4dataEv;2B.;find::(86,156)=#(119,2),(1,1),(86,89),(86,95),(0,16),(0,6);:_ZNK11stlpmtx_std12basic_stringIcNS_11char_traitsIcEENS_9allocatorIcEEE4findERKS5_m;2B.(86,157)=#(119,2),(1,1),(86,89),(12,7),(0,16),(0,6);:_ZNK11stlpmtx_std12basic_stringIcNS_11char_traitsIcEENS_9allocatorIcEEE4findEPKcm;2B.(86,158)=#(119,2),(1,1),(86,89),(12,7),(0,16),(0,16),(0,6);:_ZNK11stlpmtx_std12basic_stringIcNS_11char_traitsIcEENS_9allocatorIcEEE4findEPKcmm;2B.(86,159)=#(119,2),(1,1),(86,89),(0,19),(0,6);:_ZNK11stlpmtx_std12basic_stringIcNS_11char_traitsIcEENS_9allocatorIcEEE4findEc;2B.(86,160)=#(119,2),(1,1),(86,89),(0,19),(0,16),(0,6);:_ZNK11stlpmtx_std12basic_stringIcNS_11char_traitsIcEENS_9allocatorIcEEE4findEcm;2B.;rfind::(86,161)=#(119,2),(1,1),(86,89),(86,95),(0,16),(0,6);:_ZNK11stlpmtx_std12basic_stringIcNS_11char_traitsIcEENS_9allocatorIcEEE5rfindERKS5_m;2B.(86,162)=#(119,2),(1,1),(86,89),(12,7),(0,16),(0,6);:_ZNK11stlpmtx_std12basic_stringIcNS_11char_traitsIcEENS_9allocatorIcEEE5rfindEPKcm;2B.(86,158):_ZNK11stlpmtx_std12basic_stringIcNS_11char_traitsIcEENS_9allocatorIcEEE5rfindEPKcmm;2B.(86,163)=#(119,2),(1,1),(86,89),(0,19),(0,16),(0,6);:_ZNK11stlpmtx_std12basic_stringIcNS_11char_traitsIcEENS_9allocatorIcEEE5rfindEcm;2B.;find_first_of::(86,156):_ZNK11stlpmtx_std12basic_stringIcNS_11char_traitsIcEENS_9allocatorIcEEE13find_first_ofERKS5_m;2B.(86,157):_ZNK11stlpmtx_std12basic_stringIcNS_11char_traitsIcEENS_9allocatorIcEEE13find_first_ofEPKcm;2B.(86,158):_ZNK11stlpmtx_std12basic_stringIcNS_11char_traitsIcEENS_9allocatorIcEEE13find_first_ofEPKcmm;2B.(86,164)=#(119,2),(1,1),(86,89),(0,19),(0,16),(0,6);:_ZNK11stlpmtx_std12basic_stringIcNS_11char_traitsIcEENS_9allocatorIcEEE13find_first_ofEcm;2B.;find_last_of::(86,161):_ZNK11stlpmtx_std12basic_stringIcNS_11char_traitsIcEENS_9allocatorIcEEE12find_last_ofERKS5_m;2B.(86,162):_ZNK11stlpmtx_std12basic_stringIcNS_11char_traitsIcEENS_9allocatorIcEEE12find_last_ofEPKcm;2B.(86,158):_ZNK11stlpmtx_std12basic_stringIcNS_11char_traitsIcEENS_9allocatorIcEEE12find_last_ofEPKcmm;2B.(86,163):_ZNK11stlpmtx_std12basic_stringIcNS_11char_traitsIcEENS_9allocatorIcEEE12find_last_ofEcm;2B.;find_first_not_of::(86,156):_ZNK11stlpmtx_std12basic_stringIcNS_11char_traitsIcEENS_9allocatorIcEEE17find_first_not_ofERKS5_m;2B.(86,157):_ZNK11stlpmtx_std12basic_stringIcNS_11char_traitsIcEENS_9allocatorIcEEE17find_first_not_ofEPKcm;2B.(86,158):_ZNK11stlpmtx_std12basic_stringIcNS_11char_traitsIcEENS_9allocatorIcEEE17find_first_not_ofEPKcmm;2B.(86,164):_ZNK11stlpmtx_std12basic_stringIcNS_11char_traitsIcEENS_9allocatorIcEEE17find_first_not_ofEcm;2B.;find_last_not_of::(86,161):_ZNK11stlpmtx_std12basic_stringIcNS_11char_traitsIcEENS_9allocatorIcEEE16find_last_not_ofERKS5_m;2B.(86,162):_ZNK11stlpmtx_std12basic_stringIcNS_11char_traitsIcEENS_9allocatorIcEEE16find_last_not_ofEPKcm;2B.(86,158):_ZNK11stlpmtx_std12basic_stringIcNS_11char_traitsIcEENS_9allocatorIcEEE16find_last_not_ofEPKcmm;2B.(86,163):_ZNK11stlpmtx_std12basic_stringIcNS_11char_traitsIcEENS_9allocatorIcEEE16find_last_not_ofEcm;2B.;substr::(86,165)=#(119,2),(119,2),(86,89),(0,16),(0,16),(0,6);:_ZNK11stlpmtx_std12basic_stringIcNS_11char_traitsIcEENS_9allocatorIcEEE6substrEmm;2B.;compare::(86,166)=#(119,2),(0,3),(86,89),(86,95),(0,6);:_ZNK11stlpmtx_std12basic_stringIcNS_11char_traitsIcEENS_9allocatorIcEEE7compareERKS5_;2B.(86,167)=#(119,2),(0,3),(86,89),(0,16),(0,16),(86,95),(0,6);:_ZNK11stlpmtx_std12basic_stringIcNS_11char_traitsIcEENS_9allocatorIcEEE7compareEmmRKS5_;2B.(86,168)=#(119,2),(0,3),(86,89),(0,16),(0,16),(86,95),(0,16),(0,16),(0,6);:_ZNK11stlpmtx_std12basic_stringIcNS_11char_traitsIcEENS_9allocatorIcEEE7compareEmmRKS5_mm;2B.(86,169)=#(119,2),(0,3),(86,89),(12,7),(0,6);:_ZNK11stlpmtx_std12basic_stringIcNS_11char_traitsIcEENS_9allocatorIcEEE7compareEPKc;2B.(86,170)=#(119,2),(0,3),(86,89),(0,16),(0,16),(12,7),(0,6);:_ZNK11stlpmtx_std12basic_stringIcNS_11char_traitsIcEENS_9allocatorIcEEE7compareEmmPKc;2B.(86,171)=#(119,2),(0,3),(86,89),(0,16),(0,16),(12,7),(0,16),(0,6);:_ZNK11stlpmtx_std12basic_stringIcNS_11char_traitsIcEENS_9allocatorIcEEE7compareEmmPKcm;2B.;_M_compare::(86,172)=f(0,3):_ZN11stlpmtx_std12basic_stringIcNS_11char_traitsIcEENS_9allocatorIcEEE10_M_compareEPKcS7_S7_S7_;2A?;__base_dtor::(86,109):_ZN11stlpmtx_std12basic_stringIcNS_11char_traitsIcEENS_9allocatorIcEEED2Ev;2A.;__comp_dtor::(86,109):_ZN11stlpmtx_std12basic_stringIcNS_11char_traitsIcEENS_9allocatorIcEEED1Ev;2A.;;",128,0,32,0
	.stabs	"/Applications/MoSync/include/newlib/stlport/stl/_string.c",130,0,0,0
	.stabs	"/Applications/MoSync/include/newlib/stlport/stl/_function.h",130,0,0,0
	.stabs	"unary_function<long unsigned int,long unsigned int>:Tt(125,1)=s1__base_dtor::(125,2)=#(125,1),(0,6),(125,3)=*(125,1),(0,6);:_ZN11stlpmtx_std14unary_functionImmED2Ev;1A.;__comp_dtor::(125,2):_ZN11stlpmtx_std14unary_functionImmED1Ev;1A.;operator=::(125,4)=#(125,1),(125,5)=&(125,1),(125,3),(125,6)=&(125,7)=k(125,1),(0,6);:_ZN11stlpmtx_std14unary_functionImmEaSERKS1_;2A.;__base_ctor::(125,8)=#(125,1),(0,6),(125,3),(125,6),(0,6);:_ZN11stlpmtx_std14unary_functionImmEC2ERKS1_;2A.;__comp_ctor::(125,8):_ZN11stlpmtx_std14unary_functionImmEC1ERKS1_;2A.;__base_ctor::(125,9)=#(125,1),(0,6),(125,3),(0,6);:_ZN11stlpmtx_std14unary_functionImmEC2Ev;2A.;__comp_ctor::(125,9):_ZN11stlpmtx_std14unary_functionImmEC1Ev;2A.;;",128,0,40,0
	.stabs	"subtractive_rng:Tt(125,10)=s228!1,020,(125,1);_M_table:/0(125,11)=ar(2,57);0;54;(0,16),0,1760;_M_index1:/0(0,16),1760,32;_M_index2:/0(0,16),1792,32;operator()::(125,12)=#(125,10),(0,16),(125,13)=*(125,10),(0,16),(0,6);:_ZN11stlpmtx_std15subtractive_rngclEm;2A.;_M_initialize::(125,14)=#(125,10),(0,6),(125,13),(0,16),(0,6);:_ZN11stlpmtx_std15subtractive_rng13_M_initializeEm;2A.;__base_ctor::(125,15)=#(125,10),(0,6),(125,13),(0,17),(0,6);:_ZN11stlpmtx_std15subtractive_rngC2Ej;2A.;__comp_ctor::(125,15):_ZN11stlpmtx_std15subtractive_rngC1Ej;2A.;__base_ctor::(125,16)=#(125,10),(0,6),(125,13),(0,6);:_ZN11stlpmtx_std15subtractive_rngC2Ev;2A.;__comp_ctor::(125,16):_ZN11stlpmtx_std15subtractive_rngC1Ev;2A.;operator=::(125,17)=#(125,10),(125,18)=&(125,10),(125,13),(125,19)=&(125,20)=k(125,10),(0,6);:_ZN11stlpmtx_std15subtractive_rngaSERKS0_;2A.;__base_ctor::(125,21)=#(125,10),(0,6),(125,13),(125,19),(0,6);:_ZN11stlpmtx_std15subtractive_rngC2ERKS0_;2A.;__comp_ctor::(125,21):_ZN11stlpmtx_std15subtractive_rngC1ERKS0_;2A.;__base_dtor::(125,16):_ZN11stlpmtx_std15subtractive_rngD2Ev;2A.;__comp_dtor::(125,16):_ZN11stlpmtx_std15subtractive_rngD1Ev;2A.;;",128,0,388,0
	.stabn	162,0,0,0
	.stabn	162,0,0,0
	.stabn	162,0,0,0
	.stabs	"/Applications/MoSync/include/newlib/stlport/stl/_string_hash.h",130,0,0,0
	.stabs	"/Applications/MoSync/include/newlib/stlport/stl/_hash_fun.h",130,0,0,0
	.stabs	"hash<char*>:Tt(127,1)=s1operator()::(127,2)=#(127,1),(1,1),(127,3)=*(127,4)=k(127,1),(12,7),(0,6);:_ZNK11stlpmtx_std4hashIPcEclEPKc;2B.;operator=::(127,5)=#(127,1),(127,6)=&(127,1),(127,7)=*(127,1),(127,8)=&(127,4),(0,6);:_ZN11stlpmtx_std4hashIPcEaSERKS2_;2A.;__base_ctor::(127,9)=#(127,1),(0,6),(127,7),(127,8),(0,6);:_ZN11stlpmtx_std4hashIPcEC2ERKS2_;2A.;__comp_ctor::(127,9):_ZN11stlpmtx_std4hashIPcEC1ERKS2_;2A.;__base_ctor::(127,10)=#(127,1),(0,6),(127,7),(0,6);:_ZN11stlpmtx_std4hashIPcEC2Ev;2A.;__comp_ctor::(127,10):_ZN11stlpmtx_std4hashIPcEC1Ev;2A.;;",128,0,56,0
	.stabs	"hash<const char*>:Tt(127,11)=s1operator()::(127,12)=#(127,11),(1,1),(127,13)=*(127,14)=k(127,11),(12,7),(0,6);:_ZNK11stlpmtx_std4hashIPKcEclES2_;2B.;operator=::(127,15)=#(127,11),(127,16)=&(127,11),(127,17)=*(127,11),(127,18)=&(127,14),(0,6);:_ZN11stlpmtx_std4hashIPKcEaSERKS3_;2A.;__base_ctor::(127,19)=#(127,11),(0,6),(127,17),(127,18),(0,6);:_ZN11stlpmtx_std4hashIPKcEC2ERKS3_;2A.;__comp_ctor::(127,19):_ZN11stlpmtx_std4hashIPKcEC1ERKS3_;2A.;__base_ctor::(127,20)=#(127,11),(0,6),(127,17),(0,6);:_ZN11stlpmtx_std4hashIPKcEC2Ev;2A.;__comp_ctor::(127,20):_ZN11stlpmtx_std4hashIPKcEC1Ev;2A.;;",128,0,64,0
	.stabs	"hash<char>:Tt(127,21)=s1operator()::(127,22)=#(127,21),(1,1),(127,23)=*(127,24)=k(127,21),(0,19),(0,6);:_ZNK11stlpmtx_std4hashIcEclEc;2B.;operator=::(127,25)=#(127,21),(127,26)=&(127,21),(127,27)=*(127,21),(127,28)=&(127,24),(0,6);:_ZN11stlpmtx_std4hashIcEaSERKS1_;2A.;__base_ctor::(127,29)=#(127,21),(0,6),(127,27),(127,28),(0,6);:_ZN11stlpmtx_std4hashIcEC2ERKS1_;2A.;__comp_ctor::(127,29):_ZN11stlpmtx_std4hashIcEC1ERKS1_;2A.;__base_ctor::(127,30)=#(127,21),(0,6),(127,27),(0,6);:_ZN11stlpmtx_std4hashIcEC2Ev;2A.;__comp_ctor::(127,30):_ZN11stlpmtx_std4hashIcEC1Ev;2A.;;",128,0,71,0
	.stabs	"hash<unsigned char>:Tt(127,31)=s1operator()::(127,32)=#(127,31),(1,1),(127,33)=*(127,34)=k(127,31),(0,10),(0,6);:_ZNK11stlpmtx_std4hashIhEclEh;2B.;operator=::(127,35)=#(127,31),(127,36)=&(127,31),(127,37)=*(127,31),(127,38)=&(127,34),(0,6);:_ZN11stlpmtx_std4hashIhEaSERKS1_;2A.;__base_ctor::(127,39)=#(127,31),(0,6),(127,37),(127,38),(0,6);:_ZN11stlpmtx_std4hashIhEC2ERKS1_;2A.;__comp_ctor::(127,39):_ZN11stlpmtx_std4hashIhEC1ERKS1_;2A.;__base_ctor::(127,40)=#(127,31),(0,6),(127,37),(0,6);:_ZN11stlpmtx_std4hashIhEC2Ev;2A.;__comp_ctor::(127,40):_ZN11stlpmtx_std4hashIhEC1Ev;2A.;;",128,0,74,0
	.stabs	"hash<signed char>:Tt(127,41)=s1operator()::(127,42)=#(127,41),(1,1),(127,43)=*(127,44)=k(127,41),(0,10),(0,6);:_ZNK11stlpmtx_std4hashIaEclEh;2B.;operator=::(127,45)=#(127,41),(127,46)=&(127,41),(127,47)=*(127,41),(127,48)=&(127,44),(0,6);:_ZN11stlpmtx_std4hashIaEaSERKS1_;2A.;__base_ctor::(127,49)=#(127,41),(0,6),(127,47),(127,48),(0,6);:_ZN11stlpmtx_std4hashIaEC2ERKS1_;2A.;__comp_ctor::(127,49):_ZN11stlpmtx_std4hashIaEC1ERKS1_;2A.;__base_ctor::(127,50)=#(127,41),(0,6),(127,47),(0,6);:_ZN11stlpmtx_std4hashIaEC2Ev;2A.;__comp_ctor::(127,50):_ZN11stlpmtx_std4hashIaEC1Ev;2A.;;",128,0,78,0
	.stabs	"hash<short int>:Tt(127,51)=s1operator()::(127,52)=#(127,51),(1,1),(127,53)=*(127,54)=k(127,51),(0,13),(0,6);:_ZNK11stlpmtx_std4hashIsEclEs;2B.;operator=::(127,55)=#(127,51),(127,56)=&(127,51),(127,57)=*(127,51),(127,58)=&(127,54),(0,6);:_ZN11stlpmtx_std4hashIsEaSERKS1_;2A.;__base_ctor::(127,59)=#(127,51),(0,6),(127,57),(127,58),(0,6);:_ZN11stlpmtx_std4hashIsEC2ERKS1_;2A.;__comp_ctor::(127,59):_ZN11stlpmtx_std4hashIsEC1ERKS1_;2A.;__base_ctor::(127,60)=#(127,51),(0,6),(127,57),(0,6);:_ZN11stlpmtx_std4hashIsEC2Ev;2A.;__comp_ctor::(127,60):_ZN11stlpmtx_std4hashIsEC1Ev;2A.;;",128,0,82,0
	.stabs	"hash<short unsigned int>:Tt(127,61)=s1operator()::(127,62)=#(127,61),(1,1),(127,63)=*(127,64)=k(127,61),(0,12),(0,6);:_ZNK11stlpmtx_std4hashItEclEt;2B.;operator=::(127,65)=#(127,61),(127,66)=&(127,61),(127,67)=*(127,61),(127,68)=&(127,64),(0,6);:_ZN11stlpmtx_std4hashItEaSERKS1_;2A.;__base_ctor::(127,69)=#(127,61),(0,6),(127,67),(127,68),(0,6);:_ZN11stlpmtx_std4hashItEC2ERKS1_;2A.;__comp_ctor::(127,69):_ZN11stlpmtx_std4hashItEC1ERKS1_;2A.;__base_ctor::(127,70)=#(127,61),(0,6),(127,67),(0,6);:_ZN11stlpmtx_std4hashItEC2Ev;2A.;__comp_ctor::(127,70):_ZN11stlpmtx_std4hashItEC1Ev;2A.;;",128,0,85,0
	.stabs	"hash<int>:Tt(127,71)=s1operator()::(127,72)=#(127,71),(1,1),(127,73)=*(127,74)=k(127,71),(0,3),(0,6);:_ZNK11stlpmtx_std4hashIiEclEi;2B.;operator=::(127,75)=#(127,71),(127,76)=&(127,71),(127,77)=*(127,71),(127,78)=&(127,74),(0,6);:_ZN11stlpmtx_std4hashIiEaSERKS1_;2A.;__base_ctor::(127,79)=#(127,71),(0,6),(127,77),(127,78),(0,6);:_ZN11stlpmtx_std4hashIiEC2ERKS1_;2A.;__comp_ctor::(127,79):_ZN11stlpmtx_std4hashIiEC1ERKS1_;2A.;__base_ctor::(127,80)=#(127,71),(0,6),(127,77),(0,6);:_ZN11stlpmtx_std4hashIiEC2Ev;2A.;__comp_ctor::(127,80):_ZN11stlpmtx_std4hashIiEC1Ev;2A.;;",128,0,88,0
	.stabs	"hash<unsigned int>:Tt(127,81)=s1operator()::(127,82)=#(127,81),(1,1),(127,83)=*(127,84)=k(127,81),(0,17),(0,6);:_ZNK11stlpmtx_std4hashIjEclEj;2B.;operator=::(127,85)=#(127,81),(127,86)=&(127,81),(127,87)=*(127,81),(127,88)=&(127,84),(0,6);:_ZN11stlpmtx_std4hashIjEaSERKS1_;2A.;__base_ctor::(127,89)=#(127,81),(0,6),(127,87),(127,88),(0,6);:_ZN11stlpmtx_std4hashIjEC2ERKS1_;2A.;__comp_ctor::(127,89):_ZN11stlpmtx_std4hashIjEC1ERKS1_;2A.;__base_ctor::(127,90)=#(127,81),(0,6),(127,87),(0,6);:_ZN11stlpmtx_std4hashIjEC2Ev;2A.;__comp_ctor::(127,90):_ZN11stlpmtx_std4hashIjEC1Ev;2A.;;",128,0,93,0
	.stabs	"hash<long int>:Tt(127,91)=s1operator()::(127,92)=#(127,91),(1,1),(127,93)=*(127,94)=k(127,91),(0,18),(0,6);:_ZNK11stlpmtx_std4hashIlEclEl;2B.;operator=::(127,95)=#(127,91),(127,96)=&(127,91),(127,97)=*(127,91),(127,98)=&(127,94),(0,6);:_ZN11stlpmtx_std4hashIlEaSERKS1_;2A.;__base_ctor::(127,99)=#(127,91),(0,6),(127,97),(127,98),(0,6);:_ZN11stlpmtx_std4hashIlEC2ERKS1_;2A.;__comp_ctor::(127,99):_ZN11stlpmtx_std4hashIlEC1ERKS1_;2A.;__base_ctor::(127,100)=#(127,91),(0,6),(127,97),(0,6);:_ZN11stlpmtx_std4hashIlEC2Ev;2A.;__comp_ctor::(127,100):_ZN11stlpmtx_std4hashIlEC1Ev;2A.;;",128,0,108,0
	.stabs	"hash<long unsigned int>:Tt(127,101)=s1operator()::(127,102)=#(127,101),(1,1),(127,103)=*(127,104)=k(127,101),(0,16),(0,6);:_ZNK11stlpmtx_std4hashImEclEm;2B.;operator=::(127,105)=#(127,101),(127,106)=&(127,101),(127,107)=*(127,101),(127,108)=&(127,104),(0,6);:_ZN11stlpmtx_std4hashImEaSERKS1_;2A.;__base_ctor::(127,109)=#(127,101),(0,6),(127,107),(127,108),(0,6);:_ZN11stlpmtx_std4hashImEC2ERKS1_;2A.;__comp_ctor::(127,109):_ZN11stlpmtx_std4hashImEC1ERKS1_;2A.;__base_ctor::(127,110)=#(127,101),(0,6),(127,107),(0,6);:_ZN11stlpmtx_std4hashImEC2Ev;2A.;__comp_ctor::(127,110):_ZN11stlpmtx_std4hashImEC1Ev;2A.;;",128,0,111,0
	.stabs	"hash<long long int>:Tt(127,111)=s1operator()::(127,112)=#(127,111),(1,1),(127,113)=*(127,114)=k(127,111),(0,15),(0,6);:_ZNK11stlpmtx_std4hashIxEclEx;2B.;operator=::(127,115)=#(127,111),(127,116)=&(127,111),(127,117)=*(127,111),(127,118)=&(127,114),(0,6);:_ZN11stlpmtx_std4hashIxEaSERKS1_;2A.;__base_ctor::(127,119)=#(127,111),(0,6),(127,117),(127,118),(0,6);:_ZN11stlpmtx_std4hashIxEC2ERKS1_;2A.;__comp_ctor::(127,119):_ZN11stlpmtx_std4hashIxEC1ERKS1_;2A.;__base_ctor::(127,120)=#(127,111),(0,6),(127,117),(0,6);:_ZN11stlpmtx_std4hashIxEC2Ev;2A.;__comp_ctor::(127,120):_ZN11stlpmtx_std4hashIxEC1Ev;2A.;;",128,0,116,0
	.stabs	"hash<long long unsigned int>:Tt(127,121)=s1operator()::(127,122)=#(127,121),(1,1),(127,123)=*(127,124)=k(127,121),(0,14),(0,6);:_ZNK11stlpmtx_std4hashIyEclEy;2B.;operator=::(127,125)=#(127,121),(127,126)=&(127,121),(127,127)=*(127,121),(127,128)=&(127,124),(0,6);:_ZN11stlpmtx_std4hashIyEaSERKS1_;2A.;__base_ctor::(127,129)=#(127,121),(0,6),(127,127),(127,128),(0,6);:_ZN11stlpmtx_std4hashIyEC2ERKS1_;2A.;__comp_ctor::(127,129):_ZN11stlpmtx_std4hashIyEC1ERKS1_;2A.;__base_ctor::(127,130)=#(127,121),(0,6),(127,127),(0,6);:_ZN11stlpmtx_std4hashIyEC2Ev;2A.;__comp_ctor::(127,130):_ZN11stlpmtx_std4hashIyEC1Ev;2A.;;",128,0,119,0
	.stabs	"hash<void*>::__vp:Tt(127,131)=u4s:(1,1),0,32;p:(2,9),0,32;operator=::(127,132)=#(127,131),(127,133)=&(127,131),(127,134)=*(127,131),(127,135)=&(127,136)=k(127,131),(0,6);:_ZN11stlpmtx_std4hashIPvE4__vpaSERKS3_;2A.;__base_ctor::(127,137)=#(127,131),(0,6),(127,134),(127,135),(0,6);:_ZN11stlpmtx_std4hashIPvE4__vpC2ERKS3_;2A.;__comp_ctor::(127,137):_ZN11stlpmtx_std4hashIPvE4__vpC1ERKS3_;2A.;__base_ctor::(127,138)=#(127,131),(0,6),(127,134),(0,6);:_ZN11stlpmtx_std4hashIPvE4__vpC2Ev;2A.;__comp_ctor::(127,138):_ZN11stlpmtx_std4hashIPvE4__vpC1Ev;2A.;;",128,0,127,0
	.stabs	"hash<void*>:Tt(127,139)=s1operator()::(127,140)=#(127,139),(1,1),(127,141)=*(127,142)=k(127,139),(2,9),(0,6);:_ZNK11stlpmtx_std4hashIPvEclES1_;2B.;operator=::(127,143)=#(127,139),(127,144)=&(127,139),(127,145)=*(127,139),(127,146)=&(127,142),(0,6);:_ZN11stlpmtx_std4hashIPvEaSERKS2_;2A.;__base_ctor::(127,147)=#(127,139),(0,6),(127,145),(127,146),(0,6);:_ZN11stlpmtx_std4hashIPvEC2ERKS2_;2A.;__comp_ctor::(127,147):_ZN11stlpmtx_std4hashIPvEC1ERKS2_;2A.;__base_ctor::(127,148)=#(127,139),(0,6),(127,145),(0,6);:_ZN11stlpmtx_std4hashIPvEC2Ev;2A.;__comp_ctor::(127,148):_ZN11stlpmtx_std4hashIPvEC1Ev;2A.;;",128,0,126,0
	.stabn	162,0,0,0
	.stabn	162,0,0,0
	.stabn	162,0,0,0
	.stabs	"/Applications/MoSync/include/newlib/stlport/vector",130,0,0,0
	.stabs	"/Applications/MoSync/include/newlib/stlport/stl/_vector.h",130,0,0,0
	.stabs	"/Applications/MoSync/include/newlib/stlport/stl/_bvector.h",130,0,0,0
	.stabs	"_Bit_reference:Tt(130,1)=s8_M_p:(130,2)=*(0,17),0,32;_M_mask:(0,17),32,32;__base_ctor::(130,3)=#(130,1),(0,6),(130,4)=*(130,1),(130,2),(0,17),(0,6);:_ZN11stlpmtx_std4priv14_Bit_referenceC2EPjj;2A.;__comp_ctor::(130,3):_ZN11stlpmtx_std4priv14_Bit_referenceC1EPjj;2A.;__base_ctor::(130,5)=#(130,1),(0,6),(130,4),(0,6);:_ZN11stlpmtx_std4priv14_Bit_referenceC2Ev;2A.;__comp_ctor::(130,5):_ZN11stlpmtx_std4priv14_Bit_referenceC1Ev;2A.;operator 2::(130,6)=#(130,1),(0,4),(130,7)=*(130,8)=k(130,1),(0,6);:_ZNK11stlpmtx_std4priv14_Bit_referencecvbEv;2B.;operator=::(130,9)=#(130,1),(130,10)=&(130,1),(130,4),(0,4),(0,6);:_ZN11stlpmtx_std4priv14_Bit_referenceaSEb;2A.(130,11)=#(130,1),(130,10),(130,4),(130,12)=&(130,8),(0,6);:_ZN11stlpmtx_std4priv14_Bit_referenceaSERKS1_;2A.;operator==::(130,13)=#(130,1),(0,4),(130,7),(130,12),(0,6);:_ZNK11stlpmtx_std4priv14_Bit_referenceeqERKS1_;2B.;operator<::(130,13):_ZNK11stlpmtx_std4priv14_Bit_referenceltERKS1_;2B.;operator|=::(130,9):_ZN11stlpmtx_std4priv14_Bit_referenceoREb;2A.;operator&=::(130,9):_ZN11stlpmtx_std4priv14_Bit_referenceaNEb;2A.;flip::(130,5):_ZN11stlpmtx_std4priv14_Bit_reference4flipEv;2A.;__base_ctor::(130,14)=#(130,1),(0,6),(130,4),(130,12),(0,6);:_ZN11stlpmtx_std4priv14_Bit_referenceC2ERKS1_;2A.;__comp_ctor::(130,14):_ZN11stlpmtx_std4priv14_Bit_referenceC1ERKS1_;2A.;;",128,0,42,0
	.stabs	"__type_traits<stlpmtx_std::priv::_Bit_reference>:Tt(130,15)=s1operator=::(130,16)=#(130,15),(130,17)=&(130,15),(130,18)=*(130,15),(130,19)=&(130,20)=k(130,15),(0,6);:_ZN11stlpmtx_std13__type_traitsINS_4priv14_Bit_referenceEEaSERKS3_;2A.;__base_ctor::(130,21)=#(130,15),(0,6),(130,18),(130,19),(0,6);:_ZN11stlpmtx_std13__type_traitsINS_4priv14_Bit_referenceEEC2ERKS3_;2A.;__comp_ctor::(130,21):_ZN11stlpmtx_std13__type_traitsINS_4priv14_Bit_referenceEEC1ERKS3_;2A.;__base_ctor::(130,22)=#(130,15),(0,6),(130,18),(0,6);:_ZN11stlpmtx_std13__type_traitsINS_4priv14_Bit_referenceEEC2Ev;2A.;__comp_ctor::(130,22):_ZN11stlpmtx_std13__type_traitsINS_4priv14_Bit_referenceEEC1Ev;2A.;;",128,0,93,0
	.stabs	"_Bit_iterator_base:Tt(130,23)=s8_M_p:(130,2),0,32;_M_offset:(0,17),32,32;_M_bump_up::(130,24)=#(130,23),(0,6),(130,25)=*(130,23),(0,6);:_ZN11stlpmtx_std4priv18_Bit_iterator_base10_M_bump_upEv;2A.;_M_bump_down::(130,24):_ZN11stlpmtx_std4priv18_Bit_iterator_base12_M_bump_downEv;2A.;__base_ctor::(130,24):_ZN11stlpmtx_std4priv18_Bit_iterator_baseC2Ev;2A.;__comp_ctor::(130,24):_ZN11stlpmtx_std4priv18_Bit_iterator_baseC1Ev;2A.;__base_ctor::(130,26)=#(130,23),(0,6),(130,25),(130,2),(0,17),(0,6);:_ZN11stlpmtx_std4priv18_Bit_iterator_baseC2EPjj;2A.;__comp_ctor::(130,26):_ZN11stlpmtx_std4priv18_Bit_iterator_baseC1EPjj;2A.;_M_advance::(130,27)=#(130,23),(0,6),(130,25),(90,2),(0,6);:_ZN11stlpmtx_std4priv18_Bit_iterator_base10_M_advanceEi;2A.;_M_subtract::(130,28)=#(130,23),(90,2),(130,29)=*(130,30)=k(130,23),(130,31)=&(130,30),(0,6);:_ZNK11stlpmtx_std4priv18_Bit_iterator_base11_M_subtractERKS1_;2B.;operator=::(130,32)=#(130,23),(130,33)=&(130,23),(130,25),(130,31),(0,6);:_ZN11stlpmtx_std4priv18_Bit_iterator_baseaSERKS1_;2A.;__base_ctor::(130,34)=#(130,23),(0,6),(130,25),(130,31),(0,6);:_ZN11stlpmtx_std4priv18_Bit_iterator_baseC2ERKS1_;2A.;__comp_ctor::(130,34):_ZN11stlpmtx_std4priv18_Bit_iterator_baseC1ERKS1_;2A.;;",128,0,103,0
	.stabs	"_Bit_const_iterator:t(130,35)=(130,36)=xs_Bit_iter<bool,const bool*>:",128,0,262,0
	.stabs	"_Bit_iterator:t(130,37)=(130,38)=xs_Bit_iter<stlpmtx_std::priv::_Bit_reference,stlpmtx_std::priv::_Bit_reference*>:",128,0,263,0
	.stabs	"_Bit_iter<stlpmtx_std::priv::_Bit_reference,stlpmtx_std::priv::_Bit_reference*>:Tt(130,38)=s8!1,020,(130,23);__base_ctor::(130,39)=#(130,38),(0,6),(130,40)=*(130,38),(130,2),(0,17),(0,6);:_ZN11stlpmtx_std4priv9_Bit_iterINS0_14_Bit_referenceEPS2_EC2EPjj;2A.;__comp_ctor::(130,39):_ZN11stlpmtx_std4priv9_Bit_iterINS0_14_Bit_referenceEPS2_EC1EPjj;2A.;__base_ctor::(130,41)=#(130,38),(0,6),(130,40),(0,6);:_ZN11stlpmtx_std4priv9_Bit_iterINS0_14_Bit_referenceEPS2_EC2Ev;2A.;__comp_ctor::(130,41):_ZN11stlpmtx_std4priv9_Bit_iterINS0_14_Bit_referenceEPS2_EC1Ev;2A.;__base_ctor::(130,42)=#(130,38),(0,6),(130,40),(130,43)=&(130,44)=k(130,38),(0,6);:_ZN11stlpmtx_std4priv9_Bit_iterINS0_14_Bit_referenceEPS2_EC2ERKS4_;2A.;__comp_ctor::(130,42):_ZN11stlpmtx_std4priv9_Bit_iterINS0_14_Bit_referenceEPS2_EC1ERKS4_;2A.;operator*::(130,45)=#(130,38),(130,1),(130,46)=*(130,44),(0,6);:_ZNK11stlpmtx_std4priv9_Bit_iterINS0_14_Bit_referenceEPS2_EdeEv;2B.;operator++::(130,47)=#(130,38),(130,48)=&(130,38),(130,40),(0,6);:_ZN11stlpmtx_std4priv9_Bit_iterINS0_14_Bit_referenceEPS2_EppEv;2A.(130,49)=#(130,38),(130,38),(130,40),(0,3),(0,6);:_ZN11stlpmtx_std4priv9_Bit_iterINS0_14_Bit_referenceEPS2_EppEi;2A.;operator--::(130,47):_ZN11stlpmtx_std4priv9_Bit_iterINS0_14_Bit_referenceEPS2_EmmEv;2A.(130,49):_ZN11stlpmtx_std4priv9_Bit_iterINS0_14_Bit_referenceEPS2_EmmEi;2A.;operator+=::(130,50)=#(130,38),(130,48),(130,40),(0,3),(0,6);:_ZN11stlpmtx_std4priv9_Bit_iterINS0_14_Bit_referenceEPS2_EpLEi;2A.;operator-=::(130,50):_ZN11stlpmtx_std4priv9_Bit_iterINS0_14_Bit_referenceEPS2_EmIEi;2A.;operator+::(130,51)=#(130,38),(130,38),(130,46),(0,3),(0,6);:_ZNK11stlpmtx_std4priv9_Bit_iterINS0_14_Bit_referenceEPS2_EplEi;2B.;operator-::(130,51):_ZNK11stlpmtx_std4priv9_Bit_iterINS0_14_Bit_referenceEPS2_EmiEi;2B.(130,52)=#(130,38),(90,2),(130,46),(130,43),(0,6);:_ZNK11stlpmtx_std4priv9_Bit_iterINS0_14_Bit_referenceEPS2_EmiERKS4_;2B.;operator[]::(130,53)=#(130,38),(130,1),(130,40),(0,3),(0,6);:_ZN11stlpmtx_std4priv9_Bit_iterINS0_14_Bit_referenceEPS2_EixEi;2A.;operator=::(130,54)=#(130,38),(130,48),(130,40),(130,43),(0,6);:_ZN11stlpmtx_std4priv9_Bit_iterINS0_14_Bit_referenceEPS2_EaSERKS4_;2A.;;",128,0,169,0
	.stabn	162,0,0,0
	.stabs	"bit_vector:t(129,1)=(129,2)=xsvector<bool,stlpmtx_std::allocator<bool> >:",128,0,741,0
	.stabn	162,0,0,0
	.stabn	162,0,0,0
	.stabs	"/Applications/MoSync/include/MAUtil/Connection.h",130,0,0,0
	.stabn	162,0,0,0
	.stabs	"__stlport_class<stlpmtx_std::allocator<NativeUI::HorizontalLayout*> >:Tt(84,1)=s1operator=::(84,2)=#(84,1),(84,3)=&(84,1),(84,4)=*(84,1),(84,5)=&(84,6)=k(84,1),(0,6);:_ZN11stlpmtx_std15__stlport_classINS_9allocatorIPN8NativeUI16HorizontalLayoutEEEEaSERKS6_;2A.;__base_ctor::(84,7)=#(84,1),(0,6),(84,4),(84,5),(0,6);:_ZN11stlpmtx_std15__stlport_classINS_9allocatorIPN8NativeUI16HorizontalLayoutEEEEC2ERKS6_;2A.;__comp_ctor::(84,7):_ZN11stlpmtx_std15__stlport_classINS_9allocatorIPN8NativeUI16HorizontalLayoutEEEEC1ERKS6_;2A.;__base_ctor::(84,8)=#(84,1),(0,6),(84,4),(0,6);:_ZN11stlpmtx_std15__stlport_classINS_9allocatorIPN8NativeUI16HorizontalLayoutEEEEC2Ev;2A.;__comp_ctor::(84,8):_ZN11stlpmtx_std15__stlport_classINS_9allocatorIPN8NativeUI16HorizontalLayoutEEEEC1Ev;2A.;;",128,0,572,0
	.stabs	"allocator<NativeUI::HorizontalLayout*>:Tt(84,9)=s1!1,020,(84,1);__base_ctor::(84,10)=#(84,9),(0,6),(84,11)=*(84,9),(0,6);:_ZN11stlpmtx_std9allocatorIPN8NativeUI16HorizontalLayoutEEC2Ev;2A.;__comp_ctor::(84,10):_ZN11stlpmtx_std9allocatorIPN8NativeUI16HorizontalLayoutEEC1Ev;2A.;__base_ctor::(84,12)=#(84,9),(0,6),(84,11),(84,13)=&(84,14)=k(84,9),(0,6);:_ZN11stlpmtx_std9allocatorIPN8NativeUI16HorizontalLayoutEEC2ERKS4_;2A.;__comp_ctor::(84,12):_ZN11stlpmtx_std9allocatorIPN8NativeUI16HorizontalLayoutEEC1ERKS4_;2A.;__base_ctor::(84,15)=#(84,9),(0,6),(84,11),(84,16)=xs__move_source<stlpmtx_std::allocator<NativeUI::HorizontalLayout*> >:,(0,6);:_ZN11stlpmtx_std9allocatorIPN8NativeUI16HorizontalLayoutEEC2ENS_13__move_sourceIS4_EE;2A.;__comp_ctor::(84,15):_ZN11stlpmtx_std9allocatorIPN8NativeUI16HorizontalLayoutEEC1ENS_13__move_sourceIS4_EE;2A.;__base_dtor::(84,10):_ZN11stlpmtx_std9allocatorIPN8NativeUI16HorizontalLayoutEED2Ev;2A.;__comp_dtor::(84,10):_ZN11stlpmtx_std9allocatorIPN8NativeUI16HorizontalLayoutEED1Ev;2A.;address::(84,17)=#(84,9),(84,18)=*(84,19)=*(84,20)=xsHorizontalLayout:,(84,21)=*(84,14),(84,22)=&(84,19),(0,6);:_ZNK11stlpmtx_std9allocatorIPN8NativeUI16HorizontalLayoutEE7addressERS3_;2B.(84,23)=#(84,9),(84,24)=*(84,25)=k(84,19),(84,21),(84,26)=&(84,25),(0,6);:_ZNK11stlpmtx_std9allocatorIPN8NativeUI16HorizontalLayoutEE7addressERKS3_;2B.;allocate::(84,27)=#(84,9),(84,18),(84,11),(0,16),(15,5),(0,6);:_ZN11stlpmtx_std9allocatorIPN8NativeUI16HorizontalLayoutEE8allocateEmPKv;2A.;deallocate::(84,28)=#(84,9),(0,6),(84,11),(84,18),(0,16),(0,6);:_ZN11stlpmtx_std9allocatorIPN8NativeUI16HorizontalLayoutEE10deallocateEPS3_m;2A.(84,29)=#(84,9),(0,6),(84,21),(84,18),(0,6);:_ZNK11stlpmtx_std9allocatorIPN8NativeUI16HorizontalLayoutEE10deallocateEPS3_;2B.;max_size::(84,30)=#(84,9),(1,1),(84,21),(0,6);:_ZNK11stlpmtx_std9allocatorIPN8NativeUI16HorizontalLayoutEE8max_sizeEv;2B.;construct::(84,31)=#(84,9),(0,6),(84,11),(84,18),(84,26),(0,6);:_ZN11stlpmtx_std9allocatorIPN8NativeUI16HorizontalLayoutEE9constructEPS3_RKS3_;2A.;destroy::(84,32)=#(84,9),(0,6),(84,11),(84,18),(0,6);:_ZN11stlpmtx_std9allocatorIPN8NativeUI16HorizontalLayoutEE7destroyEPS3_;2A.;_M_allocate::(84,33)=#(84,9),(84,18),(84,11),(0,16),(86,44),(0,6);:_ZN11stlpmtx_std9allocatorIPN8NativeUI16HorizontalLayoutEE11_M_allocateEmRm;2A.;operator=::(84,34)=#(84,9),(84,35)=&(84,9),(84,11),(84,13),(0,6);:_ZN11stlpmtx_std9allocatorIPN8NativeUI16HorizontalLayoutEEaSERKS4_;2A.;;",128,0,275,0
	.stabs	"_STLP_alloc_proxy<NativeUI::HorizontalLayout**,NativeUI::HorizontalLayout*,stlpmtx_std::allocator<NativeUI::HorizontalLayout*> >:Tt(84,36)=s4!1,020,(84,9);_M_data:(84,18),0,32;__base_ctor::(84,37)=#(84,36),(0,6),(84,38)=*(84,36),(84,13),(84,18),(0,6);:_ZN11stlpmtx_std4priv17_STLP_alloc_proxyIPPN8NativeUI16HorizontalLayoutES4_NS_9allocatorIS4_EEEC2ERKS7_S5_;2A.;__comp_ctor::(84,37):_ZN11stlpmtx_std4priv17_STLP_alloc_proxyIPPN8NativeUI16HorizontalLayoutES4_NS_9allocatorIS4_EEEC1ERKS7_S5_;2A.;__base_ctor::(84,39)=#(84,36),(0,6),(84,38),(84,40)=xs__move_source<stlpmtx_std::priv::_STLP_alloc_proxy<NativeUI::HorizontalLayout**, NativeUI::HorizontalLayout*, stlpmtx_std::allocator<NativeUI::HorizontalLayout*> > >:,(0,6);:_ZN11stlpmtx_std4priv17_STLP_alloc_proxyIPPN8NativeUI16HorizontalLayoutES4_NS_9allocatorIS4_EEEC2ENS_13__move_sourceIS8_EE;2A.;__comp_ctor::(84,39):_ZN11stlpmtx_std4priv17_STLP_alloc_proxyIPPN8NativeUI16HorizontalLayoutES4_NS_9allocatorIS4_EEEC1ENS_13__move_sourceIS8_EE;2A.;_M_base::(84,41)=#(84,36),(84,35),(84,38),(0,6);:_ZN11stlpmtx_std4priv17_STLP_alloc_proxyIPPN8NativeUI16HorizontalLayoutES4_NS_9allocatorIS4_EEE7_M_baseEv;2A.;_M_swap_alloc::(84,42)=#(84,36),(0,6),(84,38),(84,43)=&(84,36),(106,5),(0,6);:_ZN11stlpmtx_std4priv17_STLP_alloc_proxyIPPN8NativeUI16HorizontalLayoutES4_NS_9allocatorIS4_EEE13_M_swap_allocERS8_RKNS_11__true_typeE;0A.(84,44)=#(84,36),(0,6),(84,38),(84,43),(106,13),(0,6);:_ZN11stlpmtx_std4priv17_STLP_alloc_proxyIPPN8NativeUI16HorizontalLayoutES4_NS_9allocatorIS4_EEE13_M_swap_allocERS8_RKNS_12__false_typeE;0A.(84,45)=#(84,36),(0,6),(84,38),(84,43),(0,6);:_ZN11stlpmtx_std4priv17_STLP_alloc_proxyIPPN8NativeUI16HorizontalLayoutES4_NS_9allocatorIS4_EEE13_M_swap_allocERS8_;2A.;swap::(84,45):_ZN11stlpmtx_std4priv17_STLP_alloc_proxyIPPN8NativeUI16HorizontalLayoutES4_NS_9allocatorIS4_EEE4swapERS8_;2A.;allocate::(84,46)=#(84,36),(84,18),(84,38),(0,16),(86,44),(0,6);:_ZN11stlpmtx_std4priv17_STLP_alloc_proxyIPPN8NativeUI16HorizontalLayoutES4_NS_9allocatorIS4_EEE8allocateEmRm;2A.(84,47)=#(84,36),(84,18),(84,38),(0,16),(0,6);:_ZN11stlpmtx_std4priv17_STLP_alloc_proxyIPPN8NativeUI16HorizontalLayoutES4_NS_9allocatorIS4_EEE8allocateEm;2A.(84,48)=#(84,36),(84,18),(84,38),(0,16),(86,44),(106,5),(0,6);:_ZN11stlpmtx_std4priv17_STLP_alloc_proxyIPPN8NativeUI16HorizontalLayoutES4_NS_9allocatorIS4_EEE8allocateEmRmRKNS_11__true_typeE;0A.(84,49)=#(84,36),(84,18),(84,38),(0,16),(86,44),(106,13),(0,6);:_ZN11stlpmtx_std4priv17_STLP_alloc_proxyIPPN8NativeUI16HorizontalLayoutES4_NS_9allocatorIS4_EEE8allocateEmRmRKNS_12__false_typeE;0A.;operator=::(84,50)=#(84,36),(84,43),(84,38),(84,51)=&(84,52)=k(84,36),(0,6);:_ZN11stlpmtx_std4priv17_STLP_alloc_proxyIPPN8NativeUI16HorizontalLayoutES4_NS_9allocatorIS4_EEEaSERKS8_;2A.;__base_ctor::(84,53)=#(84,36),(0,6),(84,38),(84,51),(0,6);:_ZN11stlpmtx_std4priv17_STLP_alloc_proxyIPPN8NativeUI16HorizontalLayoutES4_NS_9allocatorIS4_EEEC2ERKS8_;2A.;__comp_ctor::(84,53):_ZN11stlpmtx_std4priv17_STLP_alloc_proxyIPPN8NativeUI16HorizontalLayoutES4_NS_9allocatorIS4_EEEC1ERKS8_;2A.;__base_dtor::(84,54)=#(84,36),(0,6),(84,38),(0,6);:_ZN11stlpmtx_std4priv17_STLP_alloc_proxyIPPN8NativeUI16HorizontalLayoutES4_NS_9allocatorIS4_EEED2Ev;2A.;__comp_dtor::(84,54):_ZN11stlpmtx_std4priv17_STLP_alloc_proxyIPPN8NativeUI16HorizontalLayoutES4_NS_9allocatorIS4_EEED1Ev;2A.;;",128,0,472,0
	.stabs	"_Vector_base<NativeUI::HorizontalLayout*,stlpmtx_std::allocator<NativeUI::HorizontalLayout*> >:Tt(84,55)=s12_M_start:/1(84,18),0,32;_M_finish:/1(84,18),32,32;_M_end_of_storage:/1(84,36),64,32;__base_ctor::(84,56)=#(84,55),(0,6),(84,57)=*(84,55),(84,13),(0,6);:_ZN11stlpmtx_std4priv12_Vector_baseIPN8NativeUI16HorizontalLayoutENS_9allocatorIS4_EEEC2ERKS6_;2A.;__comp_ctor::(84,56):_ZN11stlpmtx_std4priv12_Vector_baseIPN8NativeUI16HorizontalLayoutENS_9allocatorIS4_EEEC1ERKS6_;2A.;__base_ctor::(84,58)=#(84,55),(0,6),(84,57),(0,16),(84,13),(0,6);:_ZN11stlpmtx_std4priv12_Vector_baseIPN8NativeUI16HorizontalLayoutENS_9allocatorIS4_EEEC2EmRKS6_;2A.;__comp_ctor::(84,58):_ZN11stlpmtx_std4priv12_Vector_baseIPN8NativeUI16HorizontalLayoutENS_9allocatorIS4_EEEC1EmRKS6_;2A.;__base_ctor::(84,59)=#(84,55),(0,6),(84,57),(84,60)=xs__move_source<stlpmtx_std::priv::_Vector_base<NativeUI::HorizontalLayout*, stlpmtx_std::allocator<NativeUI::HorizontalLayout*> > >:,(0,6);:_ZN11stlpmtx_std4priv12_Vector_baseIPN8NativeUI16HorizontalLayoutENS_9allocatorIS4_EEEC2ENS_13__move_sourceIS7_EE;2A.;__comp_ctor::(84,59):_ZN11stlpmtx_std4priv12_Vector_baseIPN8NativeUI16HorizontalLayoutENS_9allocatorIS4_EEEC1ENS_13__move_sourceIS7_EE;2A.;__base_dtor::(84,61)=#(84,55),(0,6),(84,57),(0,6);:_ZN11stlpmtx_std4priv12_Vector_baseIPN8NativeUI16HorizontalLayoutENS_9allocatorIS4_EEED2Ev;2A.;__comp_dtor::(84,61):_ZN11stlpmtx_std4priv12_Vector_baseIPN8NativeUI16HorizontalLayoutENS_9allocatorIS4_EEED1Ev;2A.;_M_throw_length_error::(84,62)=#(84,55),(0,6),(84,63)=*(84,64)=k(84,55),(0,6);:_ZNK11stlpmtx_std4priv12_Vector_baseIPN8NativeUI16HorizontalLayoutENS_9allocatorIS4_EEE21_M_throw_length_errorEv;1B.;_M_throw_out_of_range::(84,62):_ZNK11stlpmtx_std4priv12_Vector_baseIPN8NativeUI16HorizontalLayoutENS_9allocatorIS4_EEE21_M_throw_out_of_rangeEv;1B.;operator=::(84,65)=#(84,55),(84,66)=&(84,55),(84,57),(84,67)=&(84,64),(0,6);:_ZN11stlpmtx_std4priv12_Vector_baseIPN8NativeUI16HorizontalLayoutENS_9allocatorIS4_EEEaSERKS7_;2A.;__base_ctor::(84,68)=#(84,55),(0,6),(84,57),(84,67),(0,6);:_ZN11stlpmtx_std4priv12_Vector_baseIPN8NativeUI16HorizontalLayoutENS_9allocatorIS4_EEEC2ERKS7_;2A.;__comp_ctor::(84,68):_ZN11stlpmtx_std4priv12_Vector_baseIPN8NativeUI16HorizontalLayoutENS_9allocatorIS4_EEEC1ERKS7_;2A.;;",128,0,58,0
	.stabs	"vector<NativeUI::HorizontalLayout*,stlpmtx_std::allocator<NativeUI::HorizontalLayout*> >:Tt(84,69)=s12!1,010,(84,55);get_allocator::(84,70)=#(84,69),(84,9),(84,71)=*(84,72)=k(84,69),(0,6);:_ZNK11stlpmtx_std6vectorIPN8NativeUI16HorizontalLayoutENS_9allocatorIS3_EEE13get_allocatorEv;2B.;_M_insert_overflow_aux::(84,73)=#(84,69),(0,6),(84,74)=*(84,69),(84,18),(84,26),(106,13),(0,16),(0,4),(0,6);:_ZN11stlpmtx_std6vectorIPN8NativeUI16HorizontalLayoutENS_9allocatorIS3_EEE22_M_insert_overflow_auxEPS3_RKS3_RKNS_12__false_typeEmb;0A.(84,75)=#(84,69),(0,6),(84,74),(84,18),(84,26),(106,5),(0,16),(0,4),(0,6);:_ZN11stlpmtx_std6vectorIPN8NativeUI16HorizontalLayoutENS_9allocatorIS3_EEE22_M_insert_overflow_auxEPS3_RKS3_RKNS_11__true_typeEmb;0A.;_M_insert_overflow::(84,76)=#(84,69),(0,6),(84,74),(84,18),(84,26),(106,13),(0,16),(0,4),(0,6);:_ZN11stlpmtx_std6vectorIPN8NativeUI16HorizontalLayoutENS_9allocatorIS3_EEE18_M_insert_overflowEPS3_RKS3_RKNS_12__false_typeEmb;0A.(84,77)=#(84,69),(0,6),(84,74),(84,18),(84,26),(106,5),(0,16),(0,4),(0,6);:_ZN11stlpmtx_std6vectorIPN8NativeUI16HorizontalLayoutENS_9allocatorIS3_EEE18_M_insert_overflowEPS3_RKS3_RKNS_11__true_typeEmb;0A.;_M_range_check::(84,78)=#(84,69),(0,6),(84,71),(0,16),(0,6);:_ZNK11stlpmtx_std6vectorIPN8NativeUI16HorizontalLayoutENS_9allocatorIS3_EEE14_M_range_checkEm;0B.;_M_compute_next_size::(84,79)=#(84,69),(1,1),(84,74),(0,16),(0,6);:_ZN11stlpmtx_std6vectorIPN8NativeUI16HorizontalLayoutENS_9allocatorIS3_EEE20_M_compute_next_sizeEm;0A.;begin::(84,80)=#(84,69),(84,18),(84,74),(0,6);:_ZN11stlpmtx_std6vectorIPN8NativeUI16HorizontalLayoutENS_9allocatorIS3_EEE5beginEv;2A.(84,81)=#(84,69),(84,24),(84,71),(0,6);:_ZNK11stlpmtx_std6vectorIPN8NativeUI16HorizontalLayoutENS_9allocatorIS3_EEE5beginEv;2B.;end::(84,80):_ZN11stlpmtx_std6vectorIPN8NativeUI16HorizontalLayoutENS_9allocatorIS3_EEE3endEv;2A.(84,81):_ZNK11stlpmtx_std6vectorIPN8NativeUI16HorizontalLayoutENS_9allocatorIS3_EEE3endEv;2B.;rbegin::(84,82)=#(84,69),(84,83)=xsreverse_iterator<NativeUI::HorizontalLayout**>:,(84,74),(0,6);:_ZN11stlpmtx_std6vectorIPN8NativeUI16HorizontalLayoutENS_9allocatorIS3_EEE6rbeginEv;2A.(84,84)=#(84,69),(84,85)=xsreverse_iterator<NativeUI::HorizontalLayout* const*>:,(84,71),(0,6);:_ZNK11stlpmtx_std6vectorIPN8NativeUI16HorizontalLayoutENS_9allocatorIS3_EEE6rbeginEv;2B.;rend::(84,82):_ZN11stlpmtx_std6vectorIPN8NativeUI16HorizontalLayoutENS_9allocatorIS3_EEE4rendEv;2A.(84,84):_ZNK11stlpmtx_std6vectorIPN8NativeUI16HorizontalLayoutENS_9allocatorIS3_EEE4rendEv;2B.;size::(84,86)=#(84,69),(1,1),(84,71),(0,6);:_ZNK11stlpmtx_std6vectorIPN8NativeUI16HorizontalLayoutENS_9allocatorIS3_EEE4sizeEv;2B.;max_size::(84,86):_ZNK11stlpmtx_std6vectorIPN8NativeUI16HorizontalLayoutENS_9allocatorIS3_EEE8max_sizeEv;2B.;capacity::(84,86):_ZNK11stlpmtx_std6vectorIPN8NativeUI16HorizontalLayoutENS_9allocatorIS3_EEE8capacityEv;2B.;empty::(84,87)=#(84,69),(0,4),(84,71),(0,6);:_ZNK11stlpmtx_std6vectorIPN8NativeUI16HorizontalLayoutENS_9allocatorIS3_EEE5emptyEv;2B.;operator[]::(84,88)=#(84,69),(84,22),(84,74),(0,16),(0,6);:_ZN11stlpmtx_std6vectorIPN8NativeUI16HorizontalLayoutENS_9allocatorIS3_EEEixEm;2A.(84,89)=#(84,69),(84,26),(84,71),(0,16),(0,6);:_ZNK11stlpmtx_std6vectorIPN8NativeUI16HorizontalLayoutENS_9allocatorIS3_EEEixEm;2B.;front::(84,90)=#(84,69),(84,22),(84,74),(0,6);:_ZN11stlpmtx_std6vectorIPN8NativeUI16HorizontalLayoutENS_9allocatorIS3_EEE5frontEv;2A.(84,91)=#(84,69),(84,26),(84,71),(0,6);:_ZNK11stlpmtx_std6vectorIPN8NativeUI16HorizontalLayoutENS_9allocatorIS3_EEE5frontEv;2B.;back::(84,90):_ZN11stlpmtx_std6vectorIPN8NativeUI16HorizontalLayoutENS_9allocatorIS3_EEE4backEv;2A.(84,91):_ZNK11stlpmtx_std6vectorIPN8NativeUI16HorizontalLayoutENS_9allocatorIS3_EEE4backEv;2B.;at::(84,88):_ZN11stlpmtx_std6vectorIPN8NativeUI16HorizontalLayoutENS_9allocatorIS3_EEE2atEm;2A.(84,89):_ZNK11stlpmtx_std6vectorIPN8NativeUI16HorizontalLayoutENS_9allocatorIS3_EEE2atEm;2B.;__base_ctor::(84,92)=#(84,69),(0,6),(84,74),(84,13),(0,6);:_ZN11stlpmtx_std6vectorIPN8NativeUI16HorizontalLayoutENS_9allocatorIS3_EEEC2ERKS5_;2A.;__comp_ctor::(84,92):_ZN11stlpmtx_std6vectorIPN8NativeUI16HorizontalLayoutENS_9allocatorIS3_EEEC1ERKS5_;2A.;_M_initialize::(84,93)=#(84,69),(0,6),(84,74),(0,16),(84,26),(0,6);:_ZN11stlpmtx_std6vectorIPN8NativeUI16HorizontalLayoutENS_9allocatorIS3_EEE13_M_initializeEmRKS3_;0A.;__base_ctor::(84,94)=#(84,69),(0,6),(84,74),(0,16),(0,6);:_ZN11stlpmtx_std6vectorIPN8NativeUI16HorizontalLayoutENS_9allocatorIS3_EEEC2Em;2A.;__comp_ctor::(84,94):_ZN11stlpmtx_std6vectorIPN8NativeUI16HorizontalLayoutENS_9allocatorIS3_EEEC1Em;2A.;__base_ctor::(84,95)=#(84,69),(0,6),(84,74),(0,16),(84,26),(84,13),(0,6);:_ZN11stlpmtx_std6vectorIPN8NativeUI16HorizontalLayoutENS_9allocatorIS3_EEEC2EmRKS3_RKS5_;2A.;__comp_ctor::(84,95):_ZN11stlpmtx_std6vectorIPN8NativeUI16HorizontalLayoutENS_9allocatorIS3_EEEC1EmRKS3_RKS5_;2A.;__base_ctor::(84,96)=#(84,69),(0,6),(84,74),(84,97)=&(84,72),(0,6);:_ZN11stlpmtx_std6vectorIPN8NativeUI16HorizontalLayoutENS_9allocatorIS3_EEEC2ERKS6_;2A.;__comp_ctor::(84,96):_ZN11stlpmtx_std6vectorIPN8NativeUI16HorizontalLayoutENS_9allocatorIS3_EEEC1ERKS6_;2A.;__base_ctor::(84,98)=#(84,69),(0,6),(84,74),(84,99)=xs__move_source<stlpmtx_std::vector<NativeUI::HorizontalLayout*, stlpmtx_std::allocator<NativeUI::HorizontalLayout*> > >:,(0,6);:_ZN11stlpmtx_std6vectorIPN8NativeUI16HorizontalLayoutENS_9allocatorIS3_EEEC2ENS_13__move_sourceIS6_EE;2A.;__comp_ctor::(84,98):_ZN11stlpmtx_std6vectorIPN8NativeUI16HorizontalLayoutENS_9allocatorIS3_EEEC1ENS_13__move_sourceIS6_EE;2A.;__base_dtor::(84,100)=#(84,69),(0,6),(84,74),(0,6);:_ZN11stlpmtx_std6vectorIPN8NativeUI16HorizontalLayoutENS_9allocatorIS3_EEED2Ev;2A.;__comp_dtor::(84,100):_ZN11stlpmtx_std6vectorIPN8NativeUI16HorizontalLayoutENS_9allocatorIS3_EEED1Ev;2A.;operator=::(84,101)=#(84,69),(84,102)=&(84,69),(84,74),(84,97),(0,6);:_ZN11stlpmtx_std6vectorIPN8NativeUI16HorizontalLayoutENS_9allocatorIS3_EEEaSERKS6_;2A.;reserve::(84,94):_ZN11stlpmtx_std6vectorIPN8NativeUI16HorizontalLayoutENS_9allocatorIS3_EEE7reserveEm;2A.;assign::(84,103)=#(84,69),(0,6),(84,74),(0,16),(84,26),(0,6);:_ZN11stlpmtx_std6vectorIPN8NativeUI16HorizontalLayoutENS_9allocatorIS3_EEE6assignEmRKS3_;2A.;_M_fill_assign::(84,103):_ZN11stlpmtx_std6vectorIPN8NativeUI16HorizontalLayoutENS_9allocatorIS3_EEE14_M_fill_assignEmRKS3_;2A.;push_back::(84,104)=#(84,69),(0,6),(84,74),(84,26),(0,6);:_ZN11stlpmtx_std6vectorIPN8NativeUI16HorizontalLayoutENS_9allocatorIS3_EEE9push_backERKS3_;2A.;insert::(84,105)=#(84,69),(84,18),(84,74),(84,18),(84,26),(0,6);:_ZN11stlpmtx_std6vectorIPN8NativeUI16HorizontalLayoutENS_9allocatorIS3_EEE6insertEPS3_RKS3_;2A.;swap::(84,106)=#(84,69),(0,6),(84,74),(84,102),(0,6);:_ZN11stlpmtx_std6vectorIPN8NativeUI16HorizontalLayoutENS_9allocatorIS3_EEE4swapERS6_;2A.;_M_fill_insert_aux::(84,107)=#(84,69),(0,6),(84,74),(84,18),(0,16),(84,26),(106,5),(0,6);:_ZN11stlpmtx_std6vectorIPN8NativeUI16HorizontalLayoutENS_9allocatorIS3_EEE18_M_fill_insert_auxEPS3_mRKS3_RKNS_11__true_typeE;0A.(84,108)=#(84,69),(0,6),(84,74),(84,18),(0,16),(84,26),(106,13),(0,6);:_ZN11stlpmtx_std6vectorIPN8NativeUI16HorizontalLayoutENS_9allocatorIS3_EEE18_M_fill_insert_auxEPS3_mRKS3_RKNS_12__false_typeE;0A.;_M_fill_insert::(84,109)=#(84,69),(0,6),(84,74),(84,18),(0,16),(84,26),(0,6);:_ZN11stlpmtx_std6vectorIPN8NativeUI16HorizontalLayoutENS_9allocatorIS3_EEE14_M_fill_insertEPS3_mRKS3_;0A.;_M_is_inside::(84,110)=#(84,69),(0,4),(84,71),(84,26),(0,6);:_ZNK11stlpmtx_std6vectorIPN8NativeUI16HorizontalLayoutENS_9allocatorIS3_EEE12_M_is_insideERKS3_;0B.;insert::(84,109):_ZN11stlpmtx_std6vectorIPN8NativeUI16HorizontalLayoutENS_9allocatorIS3_EEE6insertEPS3_mRKS3_;2A.;pop_back::(84,100):_ZN11stlpmtx_std6vectorIPN8NativeUI16HorizontalLayoutENS_9allocatorIS3_EEE8pop_backEv;2A.;_M_erase::(84,111)=#(84,69),(84,18),(84,74),(84,18),(106,5),(0,6);:_ZN11stlpmtx_std6vectorIPN8NativeUI16HorizontalLayoutENS_9allocatorIS3_EEE8_M_eraseEPS3_RKNS_11__true_typeE;0A.(84,112)=#(84,69),(84,18),(84,74),(84,18),(106,13),(0,6);:_ZN11stlpmtx_std6vectorIPN8NativeUI16HorizontalLayoutENS_9allocatorIS3_EEE8_M_eraseEPS3_RKNS_12__false_typeE;0A.(84,113)=#(84,69),(84,18),(84,74),(84,18),(84,18),(106,5),(0,6);:_ZN11stlpmtx_std6vectorIPN8NativeUI16HorizontalLayoutENS_9allocatorIS3_EEE8_M_eraseEPS3_S7_RKNS_11__true_typeE;0A.(84,114)=#(84,69),(84,18),(84,74),(84,18),(84,18),(106,13),(0,6);:_ZN11stlpmtx_std6vectorIPN8NativeUI16HorizontalLayoutENS_9allocatorIS3_EEE8_M_eraseEPS3_S7_RKNS_12__false_typeE;0A.;erase::(84,115)=#(84,69),(84,18),(84,74),(84,18),(0,6);:_ZN11stlpmtx_std6vectorIPN8NativeUI16HorizontalLayoutENS_9allocatorIS3_EEE5eraseEPS3_;2A.(84,116)=#(84,69),(84,18),(84,74),(84,18),(84,18),(0,6);:_ZN11stlpmtx_std6vectorIPN8NativeUI16HorizontalLayoutENS_9allocatorIS3_EEE5eraseEPS3_S7_;2A.;resize::(84,117)=#(84,69),(0,6),(84,74),(0,16),(84,26),(0,6);:_ZN11stlpmtx_std6vectorIPN8NativeUI16HorizontalLayoutENS_9allocatorIS3_EEE6resizeEmRKS3_;2A.;clear::(84,100):_ZN11stlpmtx_std6vectorIPN8NativeUI16HorizontalLayoutENS_9allocatorIS3_EEE5clearEv;2A.;_M_clear::(84,100):_ZN11stlpmtx_std6vectorIPN8NativeUI16HorizontalLayoutENS_9allocatorIS3_EEE8_M_clearEv;0A.;_M_clear_after_move::(84,100):_ZN11stlpmtx_std6vectorIPN8NativeUI16HorizontalLayoutENS_9allocatorIS3_EEE19_M_clear_after_moveEv;0A.;_M_set::(84,118)=#(84,69),(0,6),(84,74),(84,18),(84,18),(84,18),(0,6);:_ZN11stlpmtx_std6vectorIPN8NativeUI16HorizontalLayoutENS_9allocatorIS3_EEE6_M_setEPS3_S7_S7_;0A.;;",128,0,113,0
	.stabs	"__stlport_class<stlpmtx_std::allocator<NativeUI::Label*> >:Tt(84,119)=s1operator=::(84,120)=#(84,119),(84,121)=&(84,119),(84,122)=*(84,119),(84,123)=&(84,124)=k(84,119),(0,6);:_ZN11stlpmtx_std15__stlport_classINS_9allocatorIPN8NativeUI5LabelEEEEaSERKS6_;2A.;__base_ctor::(84,125)=#(84,119),(0,6),(84,122),(84,123),(0,6);:_ZN11stlpmtx_std15__stlport_classINS_9allocatorIPN8NativeUI5LabelEEEEC2ERKS6_;2A.;__comp_ctor::(84,125):_ZN11stlpmtx_std15__stlport_classINS_9allocatorIPN8NativeUI5LabelEEEEC1ERKS6_;2A.;__base_ctor::(84,126)=#(84,119),(0,6),(84,122),(0,6);:_ZN11stlpmtx_std15__stlport_classINS_9allocatorIPN8NativeUI5LabelEEEEC2Ev;2A.;__comp_ctor::(84,126):_ZN11stlpmtx_std15__stlport_classINS_9allocatorIPN8NativeUI5LabelEEEEC1Ev;2A.;;",128,0,572,0
	.stabs	"allocator<NativeUI::Label*>:Tt(84,127)=s1!1,020,(84,119);__base_ctor::(84,128)=#(84,127),(0,6),(84,129)=*(84,127),(0,6);:_ZN11stlpmtx_std9allocatorIPN8NativeUI5LabelEEC2Ev;2A.;__comp_ctor::(84,128):_ZN11stlpmtx_std9allocatorIPN8NativeUI5LabelEEC1Ev;2A.;__base_ctor::(84,130)=#(84,127),(0,6),(84,129),(84,131)=&(84,132)=k(84,127),(0,6);:_ZN11stlpmtx_std9allocatorIPN8NativeUI5LabelEEC2ERKS4_;2A.;__comp_ctor::(84,130):_ZN11stlpmtx_std9allocatorIPN8NativeUI5LabelEEC1ERKS4_;2A.;__base_ctor::(84,133)=#(84,127),(0,6),(84,129),(84,134)=xs__move_source<stlpmtx_std::allocator<NativeUI::Label*> >:,(0,6);:_ZN11stlpmtx_std9allocatorIPN8NativeUI5LabelEEC2ENS_13__move_sourceIS4_EE;2A.;__comp_ctor::(84,133):_ZN11stlpmtx_std9allocatorIPN8NativeUI5LabelEEC1ENS_13__move_sourceIS4_EE;2A.;__base_dtor::(84,128):_ZN11stlpmtx_std9allocatorIPN8NativeUI5LabelEED2Ev;2A.;__comp_dtor::(84,128):_ZN11stlpmtx_std9allocatorIPN8NativeUI5LabelEED1Ev;2A.;address::(84,135)=#(84,127),(84,136)=*(84,137)=*(84,138)=xsLabel:,(84,139)=*(84,132),(84,140)=&(84,137),(0,6);:_ZNK11stlpmtx_std9allocatorIPN8NativeUI5LabelEE7addressERS3_;2B.(84,141)=#(84,127),(84,142)=*(84,143)=k(84,137),(84,139),(84,144)=&(84,143),(0,6);:_ZNK11stlpmtx_std9allocatorIPN8NativeUI5LabelEE7addressERKS3_;2B.;allocate::(84,145)=#(84,127),(84,136),(84,129),(0,16),(15,5),(0,6);:_ZN11stlpmtx_std9allocatorIPN8NativeUI5LabelEE8allocateEmPKv;2A.;deallocate::(84,146)=#(84,127),(0,6),(84,129),(84,136),(0,16),(0,6);:_ZN11stlpmtx_std9allocatorIPN8NativeUI5LabelEE10deallocateEPS3_m;2A.(84,147)=#(84,127),(0,6),(84,139),(84,136),(0,6);:_ZNK11stlpmtx_std9allocatorIPN8NativeUI5LabelEE10deallocateEPS3_;2B.;max_size::(84,148)=#(84,127),(1,1),(84,139),(0,6);:_ZNK11stlpmtx_std9allocatorIPN8NativeUI5LabelEE8max_sizeEv;2B.;construct::(84,149)=#(84,127),(0,6),(84,129),(84,136),(84,144),(0,6);:_ZN11stlpmtx_std9allocatorIPN8NativeUI5LabelEE9constructEPS3_RKS3_;2A.;destroy::(84,150)=#(84,127),(0,6),(84,129),(84,136),(0,6);:_ZN11stlpmtx_std9allocatorIPN8NativeUI5LabelEE7destroyEPS3_;2A.;_M_allocate::(84,151)=#(84,127),(84,136),(84,129),(0,16),(86,44),(0,6);:_ZN11stlpmtx_std9allocatorIPN8NativeUI5LabelEE11_M_allocateEmRm;2A.;operator=::(84,152)=#(84,127),(84,153)=&(84,127),(84,129),(84,131),(0,6);:_ZN11stlpmtx_std9allocatorIPN8NativeUI5LabelEEaSERKS4_;2A.;;",128,0,275,0
	.stabs	"_STLP_alloc_proxy<NativeUI::Label**,NativeUI::Label*,stlpmtx_std::allocator<NativeUI::Label*> >:Tt(84,154)=s4!1,020,(84,127);_M_data:(84,136),0,32;__base_ctor::(84,155)=#(84,154),(0,6),(84,156)=*(84,154),(84,131),(84,136),(0,6);:_ZN11stlpmtx_std4priv17_STLP_alloc_proxyIPPN8NativeUI5LabelES4_NS_9allocatorIS4_EEEC2ERKS7_S5_;2A.;__comp_ctor::(84,155):_ZN11stlpmtx_std4priv17_STLP_alloc_proxyIPPN8NativeUI5LabelES4_NS_9allocatorIS4_EEEC1ERKS7_S5_;2A.;__base_ctor::(84,157)=#(84,154),(0,6),(84,156),(84,158)=xs__move_source<stlpmtx_std::priv::_STLP_alloc_proxy<NativeUI::Label**, NativeUI::Label*, stlpmtx_std::allocator<NativeUI::Label*> > >:,(0,6);:_ZN11stlpmtx_std4priv17_STLP_alloc_proxyIPPN8NativeUI5LabelES4_NS_9allocatorIS4_EEEC2ENS_13__move_sourceIS8_EE;2A.;__comp_ctor::(84,157):_ZN11stlpmtx_std4priv17_STLP_alloc_proxyIPPN8NativeUI5LabelES4_NS_9allocatorIS4_EEEC1ENS_13__move_sourceIS8_EE;2A.;_M_base::(84,159)=#(84,154),(84,153),(84,156),(0,6);:_ZN11stlpmtx_std4priv17_STLP_alloc_proxyIPPN8NativeUI5LabelES4_NS_9allocatorIS4_EEE7_M_baseEv;2A.;_M_swap_alloc::(84,160)=#(84,154),(0,6),(84,156),(84,161)=&(84,154),(106,5),(0,6);:_ZN11stlpmtx_std4priv17_STLP_alloc_proxyIPPN8NativeUI5LabelES4_NS_9allocatorIS4_EEE13_M_swap_allocERS8_RKNS_11__true_typeE;0A.(84,162)=#(84,154),(0,6),(84,156),(84,161),(106,13),(0,6);:_ZN11stlpmtx_std4priv17_STLP_alloc_proxyIPPN8NativeUI5LabelES4_NS_9allocatorIS4_EEE13_M_swap_allocERS8_RKNS_12__false_typeE;0A.(84,163)=#(84,154),(0,6),(84,156),(84,161),(0,6);:_ZN11stlpmtx_std4priv17_STLP_alloc_proxyIPPN8NativeUI5LabelES4_NS_9allocatorIS4_EEE13_M_swap_allocERS8_;2A.;swap::(84,163):_ZN11stlpmtx_std4priv17_STLP_alloc_proxyIPPN8NativeUI5LabelES4_NS_9allocatorIS4_EEE4swapERS8_;2A.;allocate::(84,164)=#(84,154),(84,136),(84,156),(0,16),(86,44),(0,6);:_ZN11stlpmtx_std4priv17_STLP_alloc_proxyIPPN8NativeUI5LabelES4_NS_9allocatorIS4_EEE8allocateEmRm;2A.(84,165)=#(84,154),(84,136),(84,156),(0,16),(0,6);:_ZN11stlpmtx_std4priv17_STLP_alloc_proxyIPPN8NativeUI5LabelES4_NS_9allocatorIS4_EEE8allocateEm;2A.(84,166)=#(84,154),(84,136),(84,156),(0,16),(86,44),(106,5),(0,6);:_ZN11stlpmtx_std4priv17_STLP_alloc_proxyIPPN8NativeUI5LabelES4_NS_9allocatorIS4_EEE8allocateEmRmRKNS_11__true_typeE;0A.(84,167)=#(84,154),(84,136),(84,156),(0,16),(86,44),(106,13),(0,6);:_ZN11stlpmtx_std4priv17_STLP_alloc_proxyIPPN8NativeUI5LabelES4_NS_9allocatorIS4_EEE8allocateEmRmRKNS_12__false_typeE;0A.;operator=::(84,168)=#(84,154),(84,161),(84,156),(84,169)=&(84,170)=k(84,154),(0,6);:_ZN11stlpmtx_std4priv17_STLP_alloc_proxyIPPN8NativeUI5LabelES4_NS_9allocatorIS4_EEEaSERKS8_;2A.;__base_ctor::(84,171)=#(84,154),(0,6),(84,156),(84,169),(0,6);:_ZN11stlpmtx_std4priv17_STLP_alloc_proxyIPPN8NativeUI5LabelES4_NS_9allocatorIS4_EEEC2ERKS8_;2A.;__comp_ctor::(84,171):_ZN11stlpmtx_std4priv17_STLP_alloc_proxyIPPN8NativeUI5LabelES4_NS_9allocatorIS4_EEEC1ERKS8_;2A.;__base_dtor::(84,172)=#(84,154),(0,6),(84,156),(0,6);:_ZN11stlpmtx_std4priv17_STLP_alloc_proxyIPPN8NativeUI5LabelES4_NS_9allocatorIS4_EEED2Ev;2A.;__comp_dtor::(84,172):_ZN11stlpmtx_std4priv17_STLP_alloc_proxyIPPN8NativeUI5LabelES4_NS_9allocatorIS4_EEED1Ev;2A.;;",128,0,472,0
	.stabs	"_Vector_base<NativeUI::Label*,stlpmtx_std::allocator<NativeUI::Label*> >:Tt(84,173)=s12_M_start:/1(84,136),0,32;_M_finish:/1(84,136),32,32;_M_end_of_storage:/1(84,154),64,32;__base_ctor::(84,174)=#(84,173),(0,6),(84,175)=*(84,173),(84,131),(0,6);:_ZN11stlpmtx_std4priv12_Vector_baseIPN8NativeUI5LabelENS_9allocatorIS4_EEEC2ERKS6_;2A.;__comp_ctor::(84,174):_ZN11stlpmtx_std4priv12_Vector_baseIPN8NativeUI5LabelENS_9allocatorIS4_EEEC1ERKS6_;2A.;__base_ctor::(84,176)=#(84,173),(0,6),(84,175),(0,16),(84,131),(0,6);:_ZN11stlpmtx_std4priv12_Vector_baseIPN8NativeUI5LabelENS_9allocatorIS4_EEEC2EmRKS6_;2A.;__comp_ctor::(84,176):_ZN11stlpmtx_std4priv12_Vector_baseIPN8NativeUI5LabelENS_9allocatorIS4_EEEC1EmRKS6_;2A.;__base_ctor::(84,177)=#(84,173),(0,6),(84,175),(84,178)=xs__move_source<stlpmtx_std::priv::_Vector_base<NativeUI::Label*, stlpmtx_std::allocator<NativeUI::Label*> > >:,(0,6);:_ZN11stlpmtx_std4priv12_Vector_baseIPN8NativeUI5LabelENS_9allocatorIS4_EEEC2ENS_13__move_sourceIS7_EE;2A.;__comp_ctor::(84,177):_ZN11stlpmtx_std4priv12_Vector_baseIPN8NativeUI5LabelENS_9allocatorIS4_EEEC1ENS_13__move_sourceIS7_EE;2A.;__base_dtor::(84,179)=#(84,173),(0,6),(84,175),(0,6);:_ZN11stlpmtx_std4priv12_Vector_baseIPN8NativeUI5LabelENS_9allocatorIS4_EEED2Ev;2A.;__comp_dtor::(84,179):_ZN11stlpmtx_std4priv12_Vector_baseIPN8NativeUI5LabelENS_9allocatorIS4_EEED1Ev;2A.;_M_throw_length_error::(84,180)=#(84,173),(0,6),(84,181)=*(84,182)=k(84,173),(0,6);:_ZNK11stlpmtx_std4priv12_Vector_baseIPN8NativeUI5LabelENS_9allocatorIS4_EEE21_M_throw_length_errorEv;1B.;_M_throw_out_of_range::(84,180):_ZNK11stlpmtx_std4priv12_Vector_baseIPN8NativeUI5LabelENS_9allocatorIS4_EEE21_M_throw_out_of_rangeEv;1B.;operator=::(84,183)=#(84,173),(84,184)=&(84,173),(84,175),(84,185)=&(84,182),(0,6);:_ZN11stlpmtx_std4priv12_Vector_baseIPN8NativeUI5LabelENS_9allocatorIS4_EEEaSERKS7_;2A.;__base_ctor::(84,186)=#(84,173),(0,6),(84,175),(84,185),(0,6);:_ZN11stlpmtx_std4priv12_Vector_baseIPN8NativeUI5LabelENS_9allocatorIS4_EEEC2ERKS7_;2A.;__comp_ctor::(84,186):_ZN11stlpmtx_std4priv12_Vector_baseIPN8NativeUI5LabelENS_9allocatorIS4_EEEC1ERKS7_;2A.;;",128,0,58,0
	.stabs	"vector<NativeUI::Label*,stlpmtx_std::allocator<NativeUI::Label*> >:Tt(84,187)=s12!1,010,(84,173);get_allocator::(84,188)=#(84,187),(84,127),(84,189)=*(84,190)=k(84,187),(0,6);:_ZNK11stlpmtx_std6vectorIPN8NativeUI5LabelENS_9allocatorIS3_EEE13get_allocatorEv;2B.;_M_insert_overflow_aux::(84,191)=#(84,187),(0,6),(84,192)=*(84,187),(84,136),(84,144),(106,13),(0,16),(0,4),(0,6);:_ZN11stlpmtx_std6vectorIPN8NativeUI5LabelENS_9allocatorIS3_EEE22_M_insert_overflow_auxEPS3_RKS3_RKNS_12__false_typeEmb;0A.(84,193)=#(84,187),(0,6),(84,192),(84,136),(84,144),(106,5),(0,16),(0,4),(0,6);:_ZN11stlpmtx_std6vectorIPN8NativeUI5LabelENS_9allocatorIS3_EEE22_M_insert_overflow_auxEPS3_RKS3_RKNS_11__true_typeEmb;0A.;_M_insert_overflow::(84,194)=#(84,187),(0,6),(84,192),(84,136),(84,144),(106,13),(0,16),(0,4),(0,6);:_ZN11stlpmtx_std6vectorIPN8NativeUI5LabelENS_9allocatorIS3_EEE18_M_insert_overflowEPS3_RKS3_RKNS_12__false_typeEmb;0A.(84,195)=#(84,187),(0,6),(84,192),(84,136),(84,144),(106,5),(0,16),(0,4),(0,6);:_ZN11stlpmtx_std6vectorIPN8NativeUI5LabelENS_9allocatorIS3_EEE18_M_insert_overflowEPS3_RKS3_RKNS_11__true_typeEmb;0A.;_M_range_check::(84,196)=#(84,187),(0,6),(84,189),(0,16),(0,6);:_ZNK11stlpmtx_std6vectorIPN8NativeUI5LabelENS_9allocatorIS3_EEE14_M_range_checkEm;0B.;_M_compute_next_size::(84,197)=#(84,187),(1,1),(84,192),(0,16),(0,6);:_ZN11stlpmtx_std6vectorIPN8NativeUI5LabelENS_9allocatorIS3_EEE20_M_compute_next_sizeEm;0A.;begin::(84,198)=#(84,187),(84,136),(84,192),(0,6);:_ZN11stlpmtx_std6vectorIPN8NativeUI5LabelENS_9allocatorIS3_EEE5beginEv;2A.(84,199)=#(84,187),(84,142),(84,189),(0,6);:_ZNK11stlpmtx_std6vectorIPN8NativeUI5LabelENS_9allocatorIS3_EEE5beginEv;2B.;end::(84,198):_ZN11stlpmtx_std6vectorIPN8NativeUI5LabelENS_9allocatorIS3_EEE3endEv;2A.(84,199):_ZNK11stlpmtx_std6vectorIPN8NativeUI5LabelENS_9allocatorIS3_EEE3endEv;2B.;rbegin::(84,200)=#(84,187),(84,201)=xsreverse_iterator<NativeUI::Label**>:,(84,192),(0,6);:_ZN11stlpmtx_std6vectorIPN8NativeUI5LabelENS_9allocatorIS3_EEE6rbeginEv;2A.(84,202)=#(84,187),(84,203)=xsreverse_iterator<NativeUI::Label* const*>:,(84,189),(0,6);:_ZNK11stlpmtx_std6vectorIPN8NativeUI5LabelENS_9allocatorIS3_EEE6rbeginEv;2B.;rend::(84,200):_ZN11stlpmtx_std6vectorIPN8NativeUI5LabelENS_9allocatorIS3_EEE4rendEv;2A.(84,202):_ZNK11stlpmtx_std6vectorIPN8NativeUI5LabelENS_9allocatorIS3_EEE4rendEv;2B.;size::(84,204)=#(84,187),(1,1),(84,189),(0,6);:_ZNK11stlpmtx_std6vectorIPN8NativeUI5LabelENS_9allocatorIS3_EEE4sizeEv;2B.;max_size::(84,204):_ZNK11stlpmtx_std6vectorIPN8NativeUI5LabelENS_9allocatorIS3_EEE8max_sizeEv;2B.;capacity::(84,204):_ZNK11stlpmtx_std6vectorIPN8NativeUI5LabelENS_9allocatorIS3_EEE8capacityEv;2B.;empty::(84,205)=#(84,187),(0,4),(84,189),(0,6);:_ZNK11stlpmtx_std6vectorIPN8NativeUI5LabelENS_9allocatorIS3_EEE5emptyEv;2B.;operator[]::(84,206)=#(84,187),(84,140),(84,192),(0,16),(0,6);:_ZN11stlpmtx_std6vectorIPN8NativeUI5LabelENS_9allocatorIS3_EEEixEm;2A.(84,207)=#(84,187),(84,144),(84,189),(0,16),(0,6);:_ZNK11stlpmtx_std6vectorIPN8NativeUI5LabelENS_9allocatorIS3_EEEixEm;2B.;front::(84,208)=#(84,187),(84,140),(84,192),(0,6);:_ZN11stlpmtx_std6vectorIPN8NativeUI5LabelENS_9allocatorIS3_EEE5frontEv;2A.(84,209)=#(84,187),(84,144),(84,189),(0,6);:_ZNK11stlpmtx_std6vectorIPN8NativeUI5LabelENS_9allocatorIS3_EEE5frontEv;2B.;back::(84,208):_ZN11stlpmtx_std6vectorIPN8NativeUI5LabelENS_9allocatorIS3_EEE4backEv;2A.(84,209):_ZNK11stlpmtx_std6vectorIPN8NativeUI5LabelENS_9allocatorIS3_EEE4backEv;2B.;at::(84,206):_ZN11stlpmtx_std6vectorIPN8NativeUI5LabelENS_9allocatorIS3_EEE2atEm;2A.(84,207):_ZNK11stlpmtx_std6vectorIPN8NativeUI5LabelENS_9allocatorIS3_EEE2atEm;2B.;__base_ctor::(84,210)=#(84,187),(0,6),(84,192),(84,131),(0,6);:_ZN11stlpmtx_std6vectorIPN8NativeUI5LabelENS_9allocatorIS3_EEEC2ERKS5_;2A.;__comp_ctor::(84,210):_ZN11stlpmtx_std6vectorIPN8NativeUI5LabelENS_9allocatorIS3_EEEC1ERKS5_;2A.;_M_initialize::(84,211)=#(84,187),(0,6),(84,192),(0,16),(84,144),(0,6);:_ZN11stlpmtx_std6vectorIPN8NativeUI5LabelENS_9allocatorIS3_EEE13_M_initializeEmRKS3_;0A.;__base_ctor::(84,212)=#(84,187),(0,6),(84,192),(0,16),(0,6);:_ZN11stlpmtx_std6vectorIPN8NativeUI5LabelENS_9allocatorIS3_EEEC2Em;2A.;__comp_ctor::(84,212):_ZN11stlpmtx_std6vectorIPN8NativeUI5LabelENS_9allocatorIS3_EEEC1Em;2A.;__base_ctor::(84,213)=#(84,187),(0,6),(84,192),(0,16),(84,144),(84,131),(0,6);:_ZN11stlpmtx_std6vectorIPN8NativeUI5LabelENS_9allocatorIS3_EEEC2EmRKS3_RKS5_;2A.;__comp_ctor::(84,213):_ZN11stlpmtx_std6vectorIPN8NativeUI5LabelENS_9allocatorIS3_EEEC1EmRKS3_RKS5_;2A.;__base_ctor::(84,214)=#(84,187),(0,6),(84,192),(84,215)=&(84,190),(0,6);:_ZN11stlpmtx_std6vectorIPN8NativeUI5LabelENS_9allocatorIS3_EEEC2ERKS6_;2A.;__comp_ctor::(84,214):_ZN11stlpmtx_std6vectorIPN8NativeUI5LabelENS_9allocatorIS3_EEEC1ERKS6_;2A.;__base_ctor::(84,216)=#(84,187),(0,6),(84,192),(84,217)=xs__move_source<stlpmtx_std::vector<NativeUI::Label*, stlpmtx_std::allocator<NativeUI::Label*> > >:,(0,6);:_ZN11stlpmtx_std6vectorIPN8NativeUI5LabelENS_9allocatorIS3_EEEC2ENS_13__move_sourceIS6_EE;2A.;__comp_ctor::(84,216):_ZN11stlpmtx_std6vectorIPN8NativeUI5LabelENS_9allocatorIS3_EEEC1ENS_13__move_sourceIS6_EE;2A.;__base_dtor::(84,218)=#(84,187),(0,6),(84,192),(0,6);:_ZN11stlpmtx_std6vectorIPN8NativeUI5LabelENS_9allocatorIS3_EEED2Ev;2A.;__comp_dtor::(84,218):_ZN11stlpmtx_std6vectorIPN8NativeUI5LabelENS_9allocatorIS3_EEED1Ev;2A.;operator=::(84,219)=#(84,187),(84,220)=&(84,187),(84,192),(84,215),(0,6);:_ZN11stlpmtx_std6vectorIPN8NativeUI5LabelENS_9allocatorIS3_EEEaSERKS6_;2A.;reserve::(84,212):_ZN11stlpmtx_std6vectorIPN8NativeUI5LabelENS_9allocatorIS3_EEE7reserveEm;2A.;assign::(84,221)=#(84,187),(0,6),(84,192),(0,16),(84,144),(0,6);:_ZN11stlpmtx_std6vectorIPN8NativeUI5LabelENS_9allocatorIS3_EEE6assignEmRKS3_;2A.;_M_fill_assign::(84,221):_ZN11stlpmtx_std6vectorIPN8NativeUI5LabelENS_9allocatorIS3_EEE14_M_fill_assignEmRKS3_;2A.;push_back::(84,222)=#(84,187),(0,6),(84,192),(84,144),(0,6);:_ZN11stlpmtx_std6vectorIPN8NativeUI5LabelENS_9allocatorIS3_EEE9push_backERKS3_;2A.;insert::(84,223)=#(84,187),(84,136),(84,192),(84,136),(84,144),(0,6);:_ZN11stlpmtx_std6vectorIPN8NativeUI5LabelENS_9allocatorIS3_EEE6insertEPS3_RKS3_;2A.;swap::(84,224)=#(84,187),(0,6),(84,192),(84,220),(0,6);:_ZN11stlpmtx_std6vectorIPN8NativeUI5LabelENS_9allocatorIS3_EEE4swapERS6_;2A.;_M_fill_insert_aux::(84,225)=#(84,187),(0,6),(84,192),(84,136),(0,16),(84,144),(106,5),(0,6);:_ZN11stlpmtx_std6vectorIPN8NativeUI5LabelENS_9allocatorIS3_EEE18_M_fill_insert_auxEPS3_mRKS3_RKNS_11__true_typeE;0A.(84,226)=#(84,187),(0,6),(84,192),(84,136),(0,16),(84,144),(106,13),(0,6);:_ZN11stlpmtx_std6vectorIPN8NativeUI5LabelENS_9allocatorIS3_EEE18_M_fill_insert_auxEPS3_mRKS3_RKNS_12__false_typeE;0A.;_M_fill_insert::(84,227)=#(84,187),(0,6),(84,192),(84,136),(0,16),(84,144),(0,6);:_ZN11stlpmtx_std6vectorIPN8NativeUI5LabelENS_9allocatorIS3_EEE14_M_fill_insertEPS3_mRKS3_;0A.;_M_is_inside::(84,228)=#(84,187),(0,4),(84,189),(84,144),(0,6);:_ZNK11stlpmtx_std6vectorIPN8NativeUI5LabelENS_9allocatorIS3_EEE12_M_is_insideERKS3_;0B.;insert::(84,227):_ZN11stlpmtx_std6vectorIPN8NativeUI5LabelENS_9allocatorIS3_EEE6insertEPS3_mRKS3_;2A.;pop_back::(84,218):_ZN11stlpmtx_std6vectorIPN8NativeUI5LabelENS_9allocatorIS3_EEE8pop_backEv;2A.;_M_erase::(84,229)=#(84,187),(84,136),(84,192),(84,136),(106,5),(0,6);:_ZN11stlpmtx_std6vectorIPN8NativeUI5LabelENS_9allocatorIS3_EEE8_M_eraseEPS3_RKNS_11__true_typeE;0A.(84,230)=#(84,187),(84,136),(84,192),(84,136),(106,13),(0,6);:_ZN11stlpmtx_std6vectorIPN8NativeUI5LabelENS_9allocatorIS3_EEE8_M_eraseEPS3_RKNS_12__false_typeE;0A.(84,231)=#(84,187),(84,136),(84,192),(84,136),(84,136),(106,5),(0,6);:_ZN11stlpmtx_std6vectorIPN8NativeUI5LabelENS_9allocatorIS3_EEE8_M_eraseEPS3_S7_RKNS_11__true_typeE;0A.(84,232)=#(84,187),(84,136),(84,192),(84,136),(84,136),(106,13),(0,6);:_ZN11stlpmtx_std6vectorIPN8NativeUI5LabelENS_9allocatorIS3_EEE8_M_eraseEPS3_S7_RKNS_12__false_typeE;0A.;erase::(84,233)=#(84,187),(84,136),(84,192),(84,136),(0,6);:_ZN11stlpmtx_std6vectorIPN8NativeUI5LabelENS_9allocatorIS3_EEE5eraseEPS3_;2A.(84,234)=#(84,187),(84,136),(84,192),(84,136),(84,136),(0,6);:_ZN11stlpmtx_std6vectorIPN8NativeUI5LabelENS_9allocatorIS3_EEE5eraseEPS3_S7_;2A.;resize::(84,235)=#(84,187),(0,6),(84,192),(0,16),(84,144),(0,6);:_ZN11stlpmtx_std6vectorIPN8NativeUI5LabelENS_9allocatorIS3_EEE6resizeEmRKS3_;2A.;clear::(84,218):_ZN11stlpmtx_std6vectorIPN8NativeUI5LabelENS_9allocatorIS3_EEE5clearEv;2A.;_M_clear::(84,218):_ZN11stlpmtx_std6vectorIPN8NativeUI5LabelENS_9allocatorIS3_EEE8_M_clearEv;0A.;_M_clear_after_move::(84,218):_ZN11stlpmtx_std6vectorIPN8NativeUI5LabelENS_9allocatorIS3_EEE19_M_clear_after_moveEv;0A.;_M_set::(84,236)=#(84,187),(0,6),(84,192),(84,136),(84,136),(84,136),(0,6);:_ZN11stlpmtx_std6vectorIPN8NativeUI5LabelENS_9allocatorIS3_EEE6_M_setEPS3_S7_S7_;0A.;;",128,0,113,0
	.stabs	"__stlport_class<stlpmtx_std::allocator<NativeUI::Button*> >:Tt(84,237)=s1operator=::(84,238)=#(84,237),(84,239)=&(84,237),(84,240)=*(84,237),(84,241)=&(84,242)=k(84,237),(0,6);:_ZN11stlpmtx_std15__stlport_classINS_9allocatorIPN8NativeUI6ButtonEEEEaSERKS6_;2A.;__base_ctor::(84,243)=#(84,237),(0,6),(84,240),(84,241),(0,6);:_ZN11stlpmtx_std15__stlport_classINS_9allocatorIPN8NativeUI6ButtonEEEEC2ERKS6_;2A.;__comp_ctor::(84,243):_ZN11stlpmtx_std15__stlport_classINS_9allocatorIPN8NativeUI6ButtonEEEEC1ERKS6_;2A.;__base_ctor::(84,244)=#(84,237),(0,6),(84,240),(0,6);:_ZN11stlpmtx_std15__stlport_classINS_9allocatorIPN8NativeUI6ButtonEEEEC2Ev;2A.;__comp_ctor::(84,244):_ZN11stlpmtx_std15__stlport_classINS_9allocatorIPN8NativeUI6ButtonEEEEC1Ev;2A.;;",128,0,572,0
	.stabs	"allocator<NativeUI::Button*>:Tt(84,245)=s1!1,020,(84,237);__base_ctor::(84,246)=#(84,245),(0,6),(84,247)=*(84,245),(0,6);:_ZN11stlpmtx_std9allocatorIPN8NativeUI6ButtonEEC2Ev;2A.;__comp_ctor::(84,246):_ZN11stlpmtx_std9allocatorIPN8NativeUI6ButtonEEC1Ev;2A.;__base_ctor::(84,248)=#(84,245),(0,6),(84,247),(84,249)=&(84,250)=k(84,245),(0,6);:_ZN11stlpmtx_std9allocatorIPN8NativeUI6ButtonEEC2ERKS4_;2A.;__comp_ctor::(84,248):_ZN11stlpmtx_std9allocatorIPN8NativeUI6ButtonEEC1ERKS4_;2A.;__base_ctor::(84,251)=#(84,245),(0,6),(84,247),(84,252)=xs__move_source<stlpmtx_std::allocator<NativeUI::Button*> >:,(0,6);:_ZN11stlpmtx_std9allocatorIPN8NativeUI6ButtonEEC2ENS_13__move_sourceIS4_EE;2A.;__comp_ctor::(84,251):_ZN11stlpmtx_std9allocatorIPN8NativeUI6ButtonEEC1ENS_13__move_sourceIS4_EE;2A.;__base_dtor::(84,246):_ZN11stlpmtx_std9allocatorIPN8NativeUI6ButtonEED2Ev;2A.;__comp_dtor::(84,246):_ZN11stlpmtx_std9allocatorIPN8NativeUI6ButtonEED1Ev;2A.;address::(84,253)=#(84,245),(84,254)=*(84,255)=*(84,256)=xsButton:,(84,257)=*(84,250),(84,258)=&(84,255),(0,6);:_ZNK11stlpmtx_std9allocatorIPN8NativeUI6ButtonEE7addressERS3_;2B.(84,259)=#(84,245),(84,260)=*(84,261)=k(84,255),(84,257),(84,262)=&(84,261),(0,6);:_ZNK11stlpmtx_std9allocatorIPN8NativeUI6ButtonEE7addressERKS3_;2B.;allocate::(84,263)=#(84,245),(84,254),(84,247),(0,16),(15,5),(0,6);:_ZN11stlpmtx_std9allocatorIPN8NativeUI6ButtonEE8allocateEmPKv;2A.;deallocate::(84,264)=#(84,245),(0,6),(84,247),(84,254),(0,16),(0,6);:_ZN11stlpmtx_std9allocatorIPN8NativeUI6ButtonEE10deallocateEPS3_m;2A.(84,265)=#(84,245),(0,6),(84,257),(84,254),(0,6);:_ZNK11stlpmtx_std9allocatorIPN8NativeUI6ButtonEE10deallocateEPS3_;2B.;max_size::(84,266)=#(84,245),(1,1),(84,257),(0,6);:_ZNK11stlpmtx_std9allocatorIPN8NativeUI6ButtonEE8max_sizeEv;2B.;construct::(84,267)=#(84,245),(0,6),(84,247),(84,254),(84,262),(0,6);:_ZN11stlpmtx_std9allocatorIPN8NativeUI6ButtonEE9constructEPS3_RKS3_;2A.;destroy::(84,268)=#(84,245),(0,6),(84,247),(84,254),(0,6);:_ZN11stlpmtx_std9allocatorIPN8NativeUI6ButtonEE7destroyEPS3_;2A.;_M_allocate::(84,269)=#(84,245),(84,254),(84,247),(0,16),(86,44),(0,6);:_ZN11stlpmtx_std9allocatorIPN8NativeUI6ButtonEE11_M_allocateEmRm;2A.;operator=::(84,270)=#(84,245),(84,271)=&(84,245),(84,247),(84,249),(0,6);:_ZN11stlpmtx_std9allocatorIPN8NativeUI6ButtonEEaSERKS4_;2A.;;",128,0,275,0
	.stabs	"_STLP_alloc_proxy<NativeUI::Button**,NativeUI::Button*,stlpmtx_std::allocator<NativeUI::Button*> >:Tt(84,272)=s4!1,020,(84,245);_M_data:(84,254),0,32;__base_ctor::(84,273)=#(84,272),(0,6),(84,274)=*(84,272),(84,249),(84,254),(0,6);:_ZN11stlpmtx_std4priv17_STLP_alloc_proxyIPPN8NativeUI6ButtonES4_NS_9allocatorIS4_EEEC2ERKS7_S5_;2A.;__comp_ctor::(84,273):_ZN11stlpmtx_std4priv17_STLP_alloc_proxyIPPN8NativeUI6ButtonES4_NS_9allocatorIS4_EEEC1ERKS7_S5_;2A.;__base_ctor::(84,275)=#(84,272),(0,6),(84,274),(84,276)=xs__move_source<stlpmtx_std::priv::_STLP_alloc_proxy<NativeUI::Button**, NativeUI::Button*, stlpmtx_std::allocator<NativeUI::Button*> > >:,(0,6);:_ZN11stlpmtx_std4priv17_STLP_alloc_proxyIPPN8NativeUI6ButtonES4_NS_9allocatorIS4_EEEC2ENS_13__move_sourceIS8_EE;2A.;__comp_ctor::(84,275):_ZN11stlpmtx_std4priv17_STLP_alloc_proxyIPPN8NativeUI6ButtonES4_NS_9allocatorIS4_EEEC1ENS_13__move_sourceIS8_EE;2A.;_M_base::(84,277)=#(84,272),(84,271),(84,274),(0,6);:_ZN11stlpmtx_std4priv17_STLP_alloc_proxyIPPN8NativeUI6ButtonES4_NS_9allocatorIS4_EEE7_M_baseEv;2A.;_M_swap_alloc::(84,278)=#(84,272),(0,6),(84,274),(84,279)=&(84,272),(106,5),(0,6);:_ZN11stlpmtx_std4priv17_STLP_alloc_proxyIPPN8NativeUI6ButtonES4_NS_9allocatorIS4_EEE13_M_swap_allocERS8_RKNS_11__true_typeE;0A.(84,280)=#(84,272),(0,6),(84,274),(84,279),(106,13),(0,6);:_ZN11stlpmtx_std4priv17_STLP_alloc_proxyIPPN8NativeUI6ButtonES4_NS_9allocatorIS4_EEE13_M_swap_allocERS8_RKNS_12__false_typeE;0A.(84,281)=#(84,272),(0,6),(84,274),(84,279),(0,6);:_ZN11stlpmtx_std4priv17_STLP_alloc_proxyIPPN8NativeUI6ButtonES4_NS_9allocatorIS4_EEE13_M_swap_allocERS8_;2A.;swap::(84,281):_ZN11stlpmtx_std4priv17_STLP_alloc_proxyIPPN8NativeUI6ButtonES4_NS_9allocatorIS4_EEE4swapERS8_;2A.;allocate::(84,282)=#(84,272),(84,254),(84,274),(0,16),(86,44),(0,6);:_ZN11stlpmtx_std4priv17_STLP_alloc_proxyIPPN8NativeUI6ButtonES4_NS_9allocatorIS4_EEE8allocateEmRm;2A.(84,283)=#(84,272),(84,254),(84,274),(0,16),(0,6);:_ZN11stlpmtx_std4priv17_STLP_alloc_proxyIPPN8NativeUI6ButtonES4_NS_9allocatorIS4_EEE8allocateEm;2A.(84,284)=#(84,272),(84,254),(84,274),(0,16),(86,44),(106,5),(0,6);:_ZN11stlpmtx_std4priv17_STLP_alloc_proxyIPPN8NativeUI6ButtonES4_NS_9allocatorIS4_EEE8allocateEmRmRKNS_11__true_typeE;0A.(84,285)=#(84,272),(84,254),(84,274),(0,16),(86,44),(106,13),(0,6);:_ZN11stlpmtx_std4priv17_STLP_alloc_proxyIPPN8NativeUI6ButtonES4_NS_9allocatorIS4_EEE8allocateEmRmRKNS_12__false_typeE;0A.;operator=::(84,286)=#(84,272),(84,279),(84,274),(84,287)=&(84,288)=k(84,272),(0,6);:_ZN11stlpmtx_std4priv17_STLP_alloc_proxyIPPN8NativeUI6ButtonES4_NS_9allocatorIS4_EEEaSERKS8_;2A.;__base_ctor::(84,289)=#(84,272),(0,6),(84,274),(84,287),(0,6);:_ZN11stlpmtx_std4priv17_STLP_alloc_proxyIPPN8NativeUI6ButtonES4_NS_9allocatorIS4_EEEC2ERKS8_;2A.;__comp_ctor::(84,289):_ZN11stlpmtx_std4priv17_STLP_alloc_proxyIPPN8NativeUI6ButtonES4_NS_9allocatorIS4_EEEC1ERKS8_;2A.;__base_dtor::(84,290)=#(84,272),(0,6),(84,274),(0,6);:_ZN11stlpmtx_std4priv17_STLP_alloc_proxyIPPN8NativeUI6ButtonES4_NS_9allocatorIS4_EEED2Ev;2A.;__comp_dtor::(84,290):_ZN11stlpmtx_std4priv17_STLP_alloc_proxyIPPN8NativeUI6ButtonES4_NS_9allocatorIS4_EEED1Ev;2A.;;",128,0,472,0
	.stabs	"_Vector_base<NativeUI::Button*,stlpmtx_std::allocator<NativeUI::Button*> >:Tt(84,291)=s12_M_start:/1(84,254),0,32;_M_finish:/1(84,254),32,32;_M_end_of_storage:/1(84,272),64,32;__base_ctor::(84,292)=#(84,291),(0,6),(84,293)=*(84,291),(84,249),(0,6);:_ZN11stlpmtx_std4priv12_Vector_baseIPN8NativeUI6ButtonENS_9allocatorIS4_EEEC2ERKS6_;2A.;__comp_ctor::(84,292):_ZN11stlpmtx_std4priv12_Vector_baseIPN8NativeUI6ButtonENS_9allocatorIS4_EEEC1ERKS6_;2A.;__base_ctor::(84,294)=#(84,291),(0,6),(84,293),(0,16),(84,249),(0,6);:_ZN11stlpmtx_std4priv12_Vector_baseIPN8NativeUI6ButtonENS_9allocatorIS4_EEEC2EmRKS6_;2A.;__comp_ctor::(84,294):_ZN11stlpmtx_std4priv12_Vector_baseIPN8NativeUI6ButtonENS_9allocatorIS4_EEEC1EmRKS6_;2A.;__base_ctor::(84,295)=#(84,291),(0,6),(84,293),(84,296)=xs__move_source<stlpmtx_std::priv::_Vector_base<NativeUI::Button*, stlpmtx_std::allocator<NativeUI::Button*> > >:,(0,6);:_ZN11stlpmtx_std4priv12_Vector_baseIPN8NativeUI6ButtonENS_9allocatorIS4_EEEC2ENS_13__move_sourceIS7_EE;2A.;__comp_ctor::(84,295):_ZN11stlpmtx_std4priv12_Vector_baseIPN8NativeUI6ButtonENS_9allocatorIS4_EEEC1ENS_13__move_sourceIS7_EE;2A.;__base_dtor::(84,297)=#(84,291),(0,6),(84,293),(0,6);:_ZN11stlpmtx_std4priv12_Vector_baseIPN8NativeUI6ButtonENS_9allocatorIS4_EEED2Ev;2A.;__comp_dtor::(84,297):_ZN11stlpmtx_std4priv12_Vector_baseIPN8NativeUI6ButtonENS_9allocatorIS4_EEED1Ev;2A.;_M_throw_length_error::(84,298)=#(84,291),(0,6),(84,299)=*(84,300)=k(84,291),(0,6);:_ZNK11stlpmtx_std4priv12_Vector_baseIPN8NativeUI6ButtonENS_9allocatorIS4_EEE21_M_throw_length_errorEv;1B.;_M_throw_out_of_range::(84,298):_ZNK11stlpmtx_std4priv12_Vector_baseIPN8NativeUI6ButtonENS_9allocatorIS4_EEE21_M_throw_out_of_rangeEv;1B.;operator=::(84,301)=#(84,291),(84,302)=&(84,291),(84,293),(84,303)=&(84,300),(0,6);:_ZN11stlpmtx_std4priv12_Vector_baseIPN8NativeUI6ButtonENS_9allocatorIS4_EEEaSERKS7_;2A.;__base_ctor::(84,304)=#(84,291),(0,6),(84,293),(84,303),(0,6);:_ZN11stlpmtx_std4priv12_Vector_baseIPN8NativeUI6ButtonENS_9allocatorIS4_EEEC2ERKS7_;2A.;__comp_ctor::(84,304):_ZN11stlpmtx_std4priv12_Vector_baseIPN8NativeUI6ButtonENS_9allocatorIS4_EEEC1ERKS7_;2A.;;",128,0,58,0
	.stabs	"vector<NativeUI::Button*,stlpmtx_std::allocator<NativeUI::Button*> >:Tt(84,305)=s12!1,010,(84,291);get_allocator::(84,306)=#(84,305),(84,245),(84,307)=*(84,308)=k(84,305),(0,6);:_ZNK11stlpmtx_std6vectorIPN8NativeUI6ButtonENS_9allocatorIS3_EEE13get_allocatorEv;2B.;_M_insert_overflow_aux::(84,309)=#(84,305),(0,6),(84,310)=*(84,305),(84,254),(84,262),(106,13),(0,16),(0,4),(0,6);:_ZN11stlpmtx_std6vectorIPN8NativeUI6ButtonENS_9allocatorIS3_EEE22_M_insert_overflow_auxEPS3_RKS3_RKNS_12__false_typeEmb;0A.(84,311)=#(84,305),(0,6),(84,310),(84,254),(84,262),(106,5),(0,16),(0,4),(0,6);:_ZN11stlpmtx_std6vectorIPN8NativeUI6ButtonENS_9allocatorIS3_EEE22_M_insert_overflow_auxEPS3_RKS3_RKNS_11__true_typeEmb;0A.;_M_insert_overflow::(84,312)=#(84,305),(0,6),(84,310),(84,254),(84,262),(106,13),(0,16),(0,4),(0,6);:_ZN11stlpmtx_std6vectorIPN8NativeUI6ButtonENS_9allocatorIS3_EEE18_M_insert_overflowEPS3_RKS3_RKNS_12__false_typeEmb;0A.(84,313)=#(84,305),(0,6),(84,310),(84,254),(84,262),(106,5),(0,16),(0,4),(0,6);:_ZN11stlpmtx_std6vectorIPN8NativeUI6ButtonENS_9allocatorIS3_EEE18_M_insert_overflowEPS3_RKS3_RKNS_11__true_typeEmb;0A.;_M_range_check::(84,314)=#(84,305),(0,6),(84,307),(0,16),(0,6);:_ZNK11stlpmtx_std6vectorIPN8NativeUI6ButtonENS_9allocatorIS3_EEE14_M_range_checkEm;0B.;_M_compute_next_size::(84,315)=#(84,305),(1,1),(84,310),(0,16),(0,6);:_ZN11stlpmtx_std6vectorIPN8NativeUI6ButtonENS_9allocatorIS3_EEE20_M_compute_next_sizeEm;0A.;begin::(84,316)=#(84,305),(84,254),(84,310),(0,6);:_ZN11stlpmtx_std6vectorIPN8NativeUI6ButtonENS_9allocatorIS3_EEE5beginEv;2A.(84,317)=#(84,305),(84,260),(84,307),(0,6);:_ZNK11stlpmtx_std6vectorIPN8NativeUI6ButtonENS_9allocatorIS3_EEE5beginEv;2B.;end::(84,316):_ZN11stlpmtx_std6vectorIPN8NativeUI6ButtonENS_9allocatorIS3_EEE3endEv;2A.(84,317):_ZNK11stlpmtx_std6vectorIPN8NativeUI6ButtonENS_9allocatorIS3_EEE3endEv;2B.;rbegin::(84,318)=#(84,305),(84,319)=xsreverse_iterator<NativeUI::Button**>:,(84,310),(0,6);:_ZN11stlpmtx_std6vectorIPN8NativeUI6ButtonENS_9allocatorIS3_EEE6rbeginEv;2A.(84,320)=#(84,305),(84,321)=xsreverse_iterator<NativeUI::Button* const*>:,(84,307),(0,6);:_ZNK11stlpmtx_std6vectorIPN8NativeUI6ButtonENS_9allocatorIS3_EEE6rbeginEv;2B.;rend::(84,318):_ZN11stlpmtx_std6vectorIPN8NativeUI6ButtonENS_9allocatorIS3_EEE4rendEv;2A.(84,320):_ZNK11stlpmtx_std6vectorIPN8NativeUI6ButtonENS_9allocatorIS3_EEE4rendEv;2B.;size::(84,322)=#(84,305),(1,1),(84,307),(0,6);:_ZNK11stlpmtx_std6vectorIPN8NativeUI6ButtonENS_9allocatorIS3_EEE4sizeEv;2B.;max_size::(84,322):_ZNK11stlpmtx_std6vectorIPN8NativeUI6ButtonENS_9allocatorIS3_EEE8max_sizeEv;2B.;capacity::(84,322):_ZNK11stlpmtx_std6vectorIPN8NativeUI6ButtonENS_9allocatorIS3_EEE8capacityEv;2B.;empty::(84,323)=#(84,305),(0,4),(84,307),(0,6);:_ZNK11stlpmtx_std6vectorIPN8NativeUI6ButtonENS_9allocatorIS3_EEE5emptyEv;2B.;operator[]::(84,324)=#(84,305),(84,258),(84,310),(0,16),(0,6);:_ZN11stlpmtx_std6vectorIPN8NativeUI6ButtonENS_9allocatorIS3_EEEixEm;2A.(84,325)=#(84,305),(84,262),(84,307),(0,16),(0,6);:_ZNK11stlpmtx_std6vectorIPN8NativeUI6ButtonENS_9allocatorIS3_EEEixEm;2B.;front::(84,326)=#(84,305),(84,258),(84,310),(0,6);:_ZN11stlpmtx_std6vectorIPN8NativeUI6ButtonENS_9allocatorIS3_EEE5frontEv;2A.(84,327)=#(84,305),(84,262),(84,307),(0,6);:_ZNK11stlpmtx_std6vectorIPN8NativeUI6ButtonENS_9allocatorIS3_EEE5frontEv;2B.;back::(84,326):_ZN11stlpmtx_std6vectorIPN8NativeUI6ButtonENS_9allocatorIS3_EEE4backEv;2A.(84,327):_ZNK11stlpmtx_std6vectorIPN8NativeUI6ButtonENS_9allocatorIS3_EEE4backEv;2B.;at::(84,324):_ZN11stlpmtx_std6vectorIPN8NativeUI6ButtonENS_9allocatorIS3_EEE2atEm;2A.(84,325):_ZNK11stlpmtx_std6vectorIPN8NativeUI6ButtonENS_9allocatorIS3_EEE2atEm;2B.;__base_ctor::(84,328)=#(84,305),(0,6),(84,310),(84,249),(0,6);:_ZN11stlpmtx_std6vectorIPN8NativeUI6ButtonENS_9allocatorIS3_EEEC2ERKS5_;2A.;__comp_ctor::(84,328):_ZN11stlpmtx_std6vectorIPN8NativeUI6ButtonENS_9allocatorIS3_EEEC1ERKS5_;2A.;_M_initialize::(84,329)=#(84,305),(0,6),(84,310),(0,16),(84,262),(0,6);:_ZN11stlpmtx_std6vectorIPN8NativeUI6ButtonENS_9allocatorIS3_EEE13_M_initializeEmRKS3_;0A.;__base_ctor::(84,330)=#(84,305),(0,6),(84,310),(0,16),(0,6);:_ZN11stlpmtx_std6vectorIPN8NativeUI6ButtonENS_9allocatorIS3_EEEC2Em;2A.;__comp_ctor::(84,330):_ZN11stlpmtx_std6vectorIPN8NativeUI6ButtonENS_9allocatorIS3_EEEC1Em;2A.;__base_ctor::(84,331)=#(84,305),(0,6),(84,310),(0,16),(84,262),(84,249),(0,6);:_ZN11stlpmtx_std6vectorIPN8NativeUI6ButtonENS_9allocatorIS3_EEEC2EmRKS3_RKS5_;2A.;__comp_ctor::(84,331):_ZN11stlpmtx_std6vectorIPN8NativeUI6ButtonENS_9allocatorIS3_EEEC1EmRKS3_RKS5_;2A.;__base_ctor::(84,332)=#(84,305),(0,6),(84,310),(84,333)=&(84,308),(0,6);:_ZN11stlpmtx_std6vectorIPN8NativeUI6ButtonENS_9allocatorIS3_EEEC2ERKS6_;2A.;__comp_ctor::(84,332):_ZN11stlpmtx_std6vectorIPN8NativeUI6ButtonENS_9allocatorIS3_EEEC1ERKS6_;2A.;__base_ctor::(84,334)=#(84,305),(0,6),(84,310),(84,335)=xs__move_source<stlpmtx_std::vector<NativeUI::Button*, stlpmtx_std::allocator<NativeUI::Button*> > >:,(0,6);:_ZN11stlpmtx_std6vectorIPN8NativeUI6ButtonENS_9allocatorIS3_EEEC2ENS_13__move_sourceIS6_EE;2A.;__comp_ctor::(84,334):_ZN11stlpmtx_std6vectorIPN8NativeUI6ButtonENS_9allocatorIS3_EEEC1ENS_13__move_sourceIS6_EE;2A.;__base_dtor::(84,336)=#(84,305),(0,6),(84,310),(0,6);:_ZN11stlpmtx_std6vectorIPN8NativeUI6ButtonENS_9allocatorIS3_EEED2Ev;2A.;__comp_dtor::(84,336):_ZN11stlpmtx_std6vectorIPN8NativeUI6ButtonENS_9allocatorIS3_EEED1Ev;2A.;operator=::(84,337)=#(84,305),(84,338)=&(84,305),(84,310),(84,333),(0,6);:_ZN11stlpmtx_std6vectorIPN8NativeUI6ButtonENS_9allocatorIS3_EEEaSERKS6_;2A.;reserve::(84,330):_ZN11stlpmtx_std6vectorIPN8NativeUI6ButtonENS_9allocatorIS3_EEE7reserveEm;2A.;assign::(84,339)=#(84,305),(0,6),(84,310),(0,16),(84,262),(0,6);:_ZN11stlpmtx_std6vectorIPN8NativeUI6ButtonENS_9allocatorIS3_EEE6assignEmRKS3_;2A.;_M_fill_assign::(84,339):_ZN11stlpmtx_std6vectorIPN8NativeUI6ButtonENS_9allocatorIS3_EEE14_M_fill_assignEmRKS3_;2A.;push_back::(84,340)=#(84,305),(0,6),(84,310),(84,262),(0,6);:_ZN11stlpmtx_std6vectorIPN8NativeUI6ButtonENS_9allocatorIS3_EEE9push_backERKS3_;2A.;insert::(84,341)=#(84,305),(84,254),(84,310),(84,254),(84,262),(0,6);:_ZN11stlpmtx_std6vectorIPN8NativeUI6ButtonENS_9allocatorIS3_EEE6insertEPS3_RKS3_;2A.;swap::(84,342)=#(84,305),(0,6),(84,310),(84,338),(0,6);:_ZN11stlpmtx_std6vectorIPN8NativeUI6ButtonENS_9allocatorIS3_EEE4swapERS6_;2A.;_M_fill_insert_aux::(84,343)=#(84,305),(0,6),(84,310),(84,254),(0,16),(84,262),(106,5),(0,6);:_ZN11stlpmtx_std6vectorIPN8NativeUI6ButtonENS_9allocatorIS3_EEE18_M_fill_insert_auxEPS3_mRKS3_RKNS_11__true_typeE;0A.(84,344)=#(84,305),(0,6),(84,310),(84,254),(0,16),(84,262),(106,13),(0,6);:_ZN11stlpmtx_std6vectorIPN8NativeUI6ButtonENS_9allocatorIS3_EEE18_M_fill_insert_auxEPS3_mRKS3_RKNS_12__false_typeE;0A.;_M_fill_insert::(84,345)=#(84,305),(0,6),(84,310),(84,254),(0,16),(84,262),(0,6);:_ZN11stlpmtx_std6vectorIPN8NativeUI6ButtonENS_9allocatorIS3_EEE14_M_fill_insertEPS3_mRKS3_;0A.;_M_is_inside::(84,346)=#(84,305),(0,4),(84,307),(84,262),(0,6);:_ZNK11stlpmtx_std6vectorIPN8NativeUI6ButtonENS_9allocatorIS3_EEE12_M_is_insideERKS3_;0B.;insert::(84,345):_ZN11stlpmtx_std6vectorIPN8NativeUI6ButtonENS_9allocatorIS3_EEE6insertEPS3_mRKS3_;2A.;pop_back::(84,336):_ZN11stlpmtx_std6vectorIPN8NativeUI6ButtonENS_9allocatorIS3_EEE8pop_backEv;2A.;_M_erase::(84,347)=#(84,305),(84,254),(84,310),(84,254),(106,5),(0,6);:_ZN11stlpmtx_std6vectorIPN8NativeUI6ButtonENS_9allocatorIS3_EEE8_M_eraseEPS3_RKNS_11__true_typeE;0A.(84,348)=#(84,305),(84,254),(84,310),(84,254),(106,13),(0,6);:_ZN11stlpmtx_std6vectorIPN8NativeUI6ButtonENS_9allocatorIS3_EEE8_M_eraseEPS3_RKNS_12__false_typeE;0A.(84,349)=#(84,305),(84,254),(84,310),(84,254),(84,254),(106,5),(0,6);:_ZN11stlpmtx_std6vectorIPN8NativeUI6ButtonENS_9allocatorIS3_EEE8_M_eraseEPS3_S7_RKNS_11__true_typeE;0A.(84,350)=#(84,305),(84,254),(84,310),(84,254),(84,254),(106,13),(0,6);:_ZN11stlpmtx_std6vectorIPN8NativeUI6ButtonENS_9allocatorIS3_EEE8_M_eraseEPS3_S7_RKNS_12__false_typeE;0A.;erase::(84,351)=#(84,305),(84,254),(84,310),(84,254),(0,6);:_ZN11stlpmtx_std6vectorIPN8NativeUI6ButtonENS_9allocatorIS3_EEE5eraseEPS3_;2A.(84,352)=#(84,305),(84,254),(84,310),(84,254),(84,254),(0,6);:_ZN11stlpmtx_std6vectorIPN8NativeUI6ButtonENS_9allocatorIS3_EEE5eraseEPS3_S7_;2A.;resize::(84,353)=#(84,305),(0,6),(84,310),(0,16),(84,262),(0,6);:_ZN11stlpmtx_std6vectorIPN8NativeUI6ButtonENS_9allocatorIS3_EEE6resizeEmRKS3_;2A.;clear::(84,336):_ZN11stlpmtx_std6vectorIPN8NativeUI6ButtonENS_9allocatorIS3_EEE5clearEv;2A.;_M_clear::(84,336):_ZN11stlpmtx_std6vectorIPN8NativeUI6ButtonENS_9allocatorIS3_EEE8_M_clearEv;0A.;_M_clear_after_move::(84,336):_ZN11stlpmtx_std6vectorIPN8NativeUI6ButtonENS_9allocatorIS3_EEE19_M_clear_after_moveEv;0A.;_M_set::(84,354)=#(84,305),(0,6),(84,310),(84,254),(84,254),(84,254),(0,6);:_ZN11stlpmtx_std6vectorIPN8NativeUI6ButtonENS_9allocatorIS3_EEE6_M_setEPS3_S7_S7_;0A.;;",128,0,113,0
	.stabn	162,0,0,0
	.stabs	"NativeUIMoblet:Tt(0,25)=s240!1,020,(0,26)=xsMoblet:;mMainScreen:/0(0,27)=*(0,28)=xsMainScreen:,1888,32;__base_ctor::(0,29)=#(0,25),(0,6),(0,30)=*(0,25),(0,6);:_ZN14NativeUIMobletC2Ev;2A.;__comp_ctor::(0,29):_ZN14NativeUIMobletC1Ev;2A.;__base_dtor::(0,29):_ZN14NativeUIMobletD2Ev;2A.;__comp_dtor::(0,29):_ZN14NativeUIMobletD1Ev;2A*2;(0,25);;__deleting_dtor::(0,29):_ZN14NativeUIMobletD0Ev;2A*3;(0,25);;closeEvent::(0,29):_ZN14NativeUIMoblet10closeEventEv;2A*12;(0,25);;keyPressEvent::(0,31)=#(0,25),(0,6),(0,30),(0,3),(0,3),(0,6);:_ZN14NativeUIMoblet13keyPressEventEii;2A*4;(0,25);;operator=::(0,32)=#(0,25),(0,33)=&(0,25),(0,30),(0,34)=&(0,35)=k(0,25),(0,6);:_ZN14NativeUIMobletaSERKS_;2A.;__base_ctor::(0,36)=#(0,25),(0,6),(0,30),(0,34),(0,6);:_ZN14NativeUIMobletC2ERKS_;2A.;__comp_ctor::(0,36):_ZN14NativeUIMobletC1ERKS_;2A.;;~%(0,37)=xsEnvironment:;",128,0,15,0
	.stabs	"WebViewListener:Tt(80,4)=s4_vptr$WebViewListener:(0,38)=*(0,1),0,32;__base_ctor::(0,39)=#(80,4),(0,6),(80,3),(0,6);:_ZN8NativeUI15WebViewListenerC2Ev;2A.;__comp_ctor::(0,39):_ZN8NativeUI15WebViewListenerC1Ev;2A.;__base_dtor::(0,39):_ZN8NativeUI15WebViewListenerD2Ev;2A.;__comp_dtor::(0,39):_ZN8NativeUI15WebViewListenerD1Ev;2A*0;(80,4);;__deleting_dtor::(0,39):_ZN8NativeUI15WebViewListenerD0Ev;2A*1;(80,4);;webViewHookInvoked::(0,40)=#(80,4),(0,6),(80,3),(0,41)=*(0,42)=xsWebView:,(0,3),(2,10),(0,6);:_ZN8NativeUI15WebViewListener18webViewHookInvokedEPNS_7WebViewEii;2A*2;(80,4);;webViewContentLoading::(0,43)=#(80,4),(0,6),(80,3),(0,41),(0,3),(0,6);:_ZN8NativeUI15WebViewListener21webViewContentLoadingEPNS_7WebViewEi;2A*3;(80,4);;operator=::(0,44)=#(80,4),(0,45)=&(80,4),(80,3),(0,46)=&(0,47)=k(80,4),(0,6);:_ZN8NativeUI15WebViewListeneraSERKS0_;2A.;__base_ctor::(0,48)=#(80,4),(0,6),(80,3),(0,46),(0,6);:_ZN8NativeUI15WebViewListenerC2ERKS0_;2A.;__comp_ctor::(0,48):_ZN8NativeUI15WebViewListenerC1ERKS0_;2A.;;~%(80,4);",128,0,50,0
	.stabs	"CustomEventListener:Tt(7,350)=s4_vptr$CustomEventListener:(0,38),0,32;customEvent::(0,49)=#(7,350),(0,6),(7,349),(0,50)=&(0,51)=k(2,165),(0,6);:_ZN6MAUtil19CustomEventListener11customEventERK7MAEvent;2A*0;(7,350);;operator=::(0,52)=#(7,350),(0,53)=&(7,350),(7,349),(0,54)=&(0,55)=k(7,350),(0,6);:_ZN6MAUtil19CustomEventListeneraSERKS0_;2A.;__base_ctor::(0,56)=#(7,350),(0,6),(7,349),(0,54),(0,6);:_ZN6MAUtil19CustomEventListenerC2ERKS0_;2A.;__comp_ctor::(0,56):_ZN6MAUtil19CustomEventListenerC1ERKS0_;2A.;__base_ctor::(0,57)=#(7,350),(0,6),(7,349),(0,6);:_ZN6MAUtil19CustomEventListenerC2Ev;2A.;__comp_ctor::(0,57):_ZN6MAUtil19CustomEventListenerC1Ev;2A.;;~%(7,350);",128,0,152,0
	.stabs	"CloseListener:Tt(7,107)=s4_vptr$CloseListener:(0,38),0,32;closeEvent::(0,58)=#(7,107),(0,6),(7,106),(0,6);:_ZN6MAUtil13CloseListener10closeEventEv;2A*0;(7,107);;operator=::(0,59)=#(7,107),(0,60)=&(7,107),(7,106),(0,61)=&(0,62)=k(7,107),(0,6);:_ZN6MAUtil13CloseListeneraSERKS0_;2A.;__base_ctor::(0,63)=#(7,107),(0,6),(7,106),(0,61),(0,6);:_ZN6MAUtil13CloseListenerC2ERKS0_;2A.;__comp_ctor::(0,63):_ZN6MAUtil13CloseListenerC1ERKS0_;2A.;__base_ctor::(0,64)=#(7,107),(0,6),(7,106),(0,6);:_ZN6MAUtil13CloseListenerC2Ev;2A.;__comp_ctor::(0,64):_ZN6MAUtil13CloseListenerC1Ev;2A.;;~%(7,107);",128,0,112,0
	.stabs	"RefCounted:Tt(0,65)=s8_vptr$RefCounted:(0,38),0,32;mRefCount:/0(0,3),32,32;__base_ctor::(0,66)=#(0,65),(0,6),(0,67)=*(0,65),(0,3),(0,6);:_ZN6MAUtil10RefCountedC2Ei;2A.;__comp_ctor::(0,66):_ZN6MAUtil10RefCountedC1Ei;2A.;addRef::(0,68)=#(0,65),(0,6),(0,67),(0,6);:_ZN6MAUtil10RefCounted6addRefEv;2A.;release::(0,68):_ZN6MAUtil10RefCounted7releaseEv;2A.;getRefCount::(0,69)=#(0,65),(0,3),(0,67),(0,6);:_ZN6MAUtil10RefCounted11getRefCountEv;2A.;__base_dtor::(0,68):_ZN6MAUtil10RefCountedD2Ev;2A.;__comp_dtor::(0,68):_ZN6MAUtil10RefCountedD1Ev;2A*0;(0,65);;__deleting_dtor::(0,68):_ZN6MAUtil10RefCountedD0Ev;2A*1;(0,65);;operator=::(0,70)=#(0,65),(0,71)=&(0,65),(0,67),(0,72)=&(0,73)=k(0,65),(0,6);:_ZN6MAUtil10RefCountedaSERKS0_;2A.;__base_ctor::(0,74)=#(0,65),(0,6),(0,67),(0,72),(0,6);:_ZN6MAUtil10RefCountedC2ERKS0_;2A.;__comp_ctor::(0,74):_ZN6MAUtil10RefCountedC1ERKS0_;2A.;;~%(0,65);",128,0,28,0
	.ctor __GLOBAL__I_MAMain
	.dtor __GLOBAL__D_MAMain
	.lcomm	__ZN3Ads13TEST_EMULATORE, 4 ; size=4
.data
	.align 4
__ZTV14NativeUIMoblet:
	.long	0
	.long	0
	.long	__ZN6MAUtil11Environment15addIdleListenerEPNS_12IdleListenerE
	.long	__ZN6MAUtil11Environment18removeIdleListenerEPNS_12IdleListenerE
	.long	__ZN14NativeUIMobletD1Ev
	.long	__ZN14NativeUIMobletD0Ev
	.long	__ZN14NativeUIMoblet13keyPressEventEii
	.long	__ZN6MAUtil6Moblet15keyReleaseEventEii
	.long	__ZN6MAUtil6Moblet17pointerPressEventE9MAPoint2d
	.long	__ZN6MAUtil6Moblet16pointerMoveEventE9MAPoint2d
	.long	__ZN6MAUtil6Moblet19pointerReleaseEventE9MAPoint2d
	.long	__ZN6MAUtil6Moblet20multitouchPressEventE9MAPoint2di
	.long	__ZN6MAUtil6Moblet19multitouchMoveEventE9MAPoint2di
	.long	__ZN6MAUtil6Moblet22multitouchReleaseEventE9MAPoint2di
	.long	__ZN14NativeUIMoblet10closeEventEv
	.long	__ZN6MAUtil6Moblet11customEventERK7MAEvent
	.long	-216
	.long	0
	.long	__ZThn216_N14NativeUIMobletD1Ev
	.long	__ZThn216_N14NativeUIMobletD0Ev
	.long	__ZThn216_N14NativeUIMoblet13keyPressEventEii
	.long	__ZThn216_N6MAUtil6Moblet15keyReleaseEventEii
	.long	__ZN6MAUtil11KeyListener9charEventEj
	.long	__ZN6MAUtil11KeyListener13keyPressEventEi
	.long	__ZN6MAUtil11KeyListener15keyReleaseEventEi
	.long	-220
	.long	0
	.long	__ZThn220_N14NativeUIMobletD1Ev
	.long	__ZThn220_N14NativeUIMobletD0Ev
	.long	__ZThn220_N6MAUtil6Moblet17pointerPressEventE9MAPoint2d
	.long	__ZThn220_N6MAUtil6Moblet16pointerMoveEventE9MAPoint2d
	.long	__ZThn220_N6MAUtil6Moblet19pointerReleaseEventE9MAPoint2d
	.long	__ZThn220_N6MAUtil6Moblet20multitouchPressEventE9MAPoint2di
	.long	__ZThn220_N6MAUtil6Moblet19multitouchMoveEventE9MAPoint2di
	.long	__ZThn220_N6MAUtil6Moblet22multitouchReleaseEventE9MAPoint2di
	.long	-224
	.long	0
	.long	__ZThn224_N14NativeUIMoblet10closeEventEv
	.long	-228
	.long	0
	.long	__ZThn228_N6MAUtil6Moblet11customEventERK7MAEvent
.code
	.stabs	"_ZN6MAUtil11KeyListener13keyPressEventEi:f(0,6)",36,0,68,__ZN6MAUtil11KeyListener13keyPressEventEi
	.stabs	"this:P(0,75)=k(7,46)",64,0,68,12
	.stabs	"keyCode:P(0,3)",64,0,68,13

.func __ZN6MAUtil11KeyListener13keyPressEventEi, 2, void
	.stabs	"/Applications/MoSync/include/MAUtil/Environment.h",132,0,0,Ltext1
Ltext1:
	.line 68
	push fr,fr
	ld   fr,sp
	add  fr,#0x4
	.line 68
	pop  fr,fr
	ret
Lscope0:
	.stabs	"_ZN6MAUtil11KeyListener15keyReleaseEventEi:f(0,6)",36,0,69,__ZN6MAUtil11KeyListener15keyReleaseEventEi
	.stabs	"this:P(0,75)",64,0,69,12
	.stabs	"keyCode:P(0,3)",64,0,69,13

.func __ZN6MAUtil11KeyListener15keyReleaseEventEi, 2, void
	.line 69
	push fr,fr
	ld   fr,sp
	add  fr,#0x4
	.line 69
	pop  fr,fr
	ret
Lscope1:
	.set	%0=__ZN6MAUtil6Moblet15keyReleaseEventEii
	.stabs	"this:P(0,76)=k(0,77)=*(0,26)",64,0,58,12
	.stabs	"keyCode:P(0,3)",64,0,58,13
	.stabs	"nativeCode:P(0,3)",64,0,58,14

.func __ZThn216_N6MAUtil6Moblet15keyReleaseEventEii, 3, void
	.stabs	"/Applications/MoSync/include/MAUtil/Moblet.h",132,0,0,Ltext2
Ltext2:
	.line 49
	push rt,fr
	ld   fr,sp
	add  fr,#0x8
	.line 49
	add  i0,#0xffffff28
	call &%0 ; call non-native
	pop  rt,fr
	ret
Lscope2:
	.stabs	"_ZN6MAUtil6Moblet15keyReleaseEventEii:f(0,6)",36,0,58,__ZN6MAUtil6Moblet15keyReleaseEventEii
	.stabs	"this:P(0,76)",64,0,58,12
	.stabs	"keyCode:P(0,3)",64,0,58,13
	.stabs	"nativeCode:P(0,3)",64,0,58,14

.func __ZN6MAUtil6Moblet15keyReleaseEventEii, 3, void
	.line 58
	push fr,fr
	ld   fr,sp
	add  fr,#0x4
	.line 58
	pop  fr,fr
	ret
Lscope3:
	.set	%1=__ZN6MAUtil6Moblet17pointerPressEventE9MAPoint2d
	.stabs	"this:P(0,76)",64,0,63,12
	.stabs	"p:P(2,27)",64,0,63,30

.func __ZThn220_N6MAUtil6Moblet17pointerPressEventE9MAPoint2d, 3, void
	.line 49
	push rt,fr
	ld   fr,sp
	add  fr,#0x8
	.line 49
	add  i0,#0xffffff24
	call &%1 ; call non-native
	pop  rt,fr
	ret
Lscope4:
	.stabs	"_ZN6MAUtil6Moblet17pointerPressEventE9MAPoint2d:f(0,6)",36,0,63,__ZN6MAUtil6Moblet17pointerPressEventE9MAPoint2d
	.stabs	"this:P(0,76)",64,0,63,12
	.stabs	"p:P(2,27)",64,0,63,13

.func __ZN6MAUtil6Moblet17pointerPressEventE9MAPoint2d, 3, void
	.line 63
	push fr,fr
	ld   fr,sp
	add  fr,#0x4
	.line 63
	pop  fr,fr
	ret
Lscope5:
	.set	%2=__ZN6MAUtil6Moblet16pointerMoveEventE9MAPoint2d
	.stabs	"this:P(0,76)",64,0,68,12
	.stabs	"p:P(2,27)",64,0,68,30

.func __ZThn220_N6MAUtil6Moblet16pointerMoveEventE9MAPoint2d, 3, void
	.line 49
	push rt,fr
	ld   fr,sp
	add  fr,#0x8
	.line 49
	add  i0,#0xffffff24
	call &%2 ; call non-native
	pop  rt,fr
	ret
Lscope6:
	.stabs	"_ZN6MAUtil6Moblet16pointerMoveEventE9MAPoint2d:f(0,6)",36,0,68,__ZN6MAUtil6Moblet16pointerMoveEventE9MAPoint2d
	.stabs	"this:P(0,76)",64,0,68,12
	.stabs	"p:P(2,27)",64,0,68,13

.func __ZN6MAUtil6Moblet16pointerMoveEventE9MAPoint2d, 3, void
	.line 68
	push fr,fr
	ld   fr,sp
	add  fr,#0x4
	.line 68
	pop  fr,fr
	ret
Lscope7:
	.set	%3=__ZN6MAUtil6Moblet19pointerReleaseEventE9MAPoint2d
	.stabs	"this:P(0,76)",64,0,73,12
	.stabs	"p:P(2,27)",64,0,73,30

.func __ZThn220_N6MAUtil6Moblet19pointerReleaseEventE9MAPoint2d, 3, void
	.line 49
	push rt,fr
	ld   fr,sp
	add  fr,#0x8
	.line 49
	add  i0,#0xffffff24
	call &%3 ; call non-native
	pop  rt,fr
	ret
Lscope8:
	.stabs	"_ZN6MAUtil6Moblet19pointerReleaseEventE9MAPoint2d:f(0,6)",36,0,73,__ZN6MAUtil6Moblet19pointerReleaseEventE9MAPoint2d
	.stabs	"this:P(0,76)",64,0,73,12
	.stabs	"p:P(2,27)",64,0,73,13

.func __ZN6MAUtil6Moblet19pointerReleaseEventE9MAPoint2d, 3, void
	.line 73
	push fr,fr
	ld   fr,sp
	add  fr,#0x4
	.line 73
	pop  fr,fr
	ret
Lscope9:
	.set	%4=__ZN6MAUtil6Moblet20multitouchPressEventE9MAPoint2di
	.stabs	"this:P(0,76)",64,0,78,12
	.stabs	"p:P(2,27)",64,0,78,30
	.stabs	"touchId:P(0,3)",64,0,78,15

.func __ZThn220_N6MAUtil6Moblet20multitouchPressEventE9MAPoint2di, 4, void
	.line 49
	push rt,fr
	ld   fr,sp
	add  fr,#0x8
	.line 49
	add  i0,#0xffffff24
	call &%4 ; call non-native
	pop  rt,fr
	ret
Lscope10:
	.stabs	"_ZN6MAUtil6Moblet20multitouchPressEventE9MAPoint2di:f(0,6)",36,0,78,__ZN6MAUtil6Moblet20multitouchPressEventE9MAPoint2di
	.stabs	"this:P(0,76)",64,0,78,12
	.stabs	"p:P(2,27)",64,0,78,13
	.stabs	"touchId:P(0,3)",64,0,78,15

.func __ZN6MAUtil6Moblet20multitouchPressEventE9MAPoint2di, 4, void
	.line 78
	push fr,fr
	ld   fr,sp
	add  fr,#0x4
	.line 78
	pop  fr,fr
	ret
Lscope11:
	.set	%5=__ZN6MAUtil6Moblet19multitouchMoveEventE9MAPoint2di
	.stabs	"this:P(0,76)",64,0,83,12
	.stabs	"p:P(2,27)",64,0,83,30
	.stabs	"touchId:P(0,3)",64,0,83,15

.func __ZThn220_N6MAUtil6Moblet19multitouchMoveEventE9MAPoint2di, 4, void
	.line 49
	push rt,fr
	ld   fr,sp
	add  fr,#0x8
	.line 49
	add  i0,#0xffffff24
	call &%5 ; call non-native
	pop  rt,fr
	ret
Lscope12:
	.stabs	"_ZN6MAUtil6Moblet19multitouchMoveEventE9MAPoint2di:f(0,6)",36,0,83,__ZN6MAUtil6Moblet19multitouchMoveEventE9MAPoint2di
	.stabs	"this:P(0,76)",64,0,83,12
	.stabs	"p:P(2,27)",64,0,83,13
	.stabs	"touchId:P(0,3)",64,0,83,15

.func __ZN6MAUtil6Moblet19multitouchMoveEventE9MAPoint2di, 4, void
	.line 83
	push fr,fr
	ld   fr,sp
	add  fr,#0x4
	.line 83
	pop  fr,fr
	ret
Lscope13:
	.set	%6=__ZN6MAUtil6Moblet22multitouchReleaseEventE9MAPoint2di
	.stabs	"this:P(0,76)",64,0,88,12
	.stabs	"p:P(2,27)",64,0,88,30
	.stabs	"touchId:P(0,3)",64,0,88,15

.func __ZThn220_N6MAUtil6Moblet22multitouchReleaseEventE9MAPoint2di, 4, void
	.line 49
	push rt,fr
	ld   fr,sp
	add  fr,#0x8
	.line 49
	add  i0,#0xffffff24
	call &%6 ; call non-native
	pop  rt,fr
	ret
Lscope14:
	.stabs	"_ZN6MAUtil6Moblet22multitouchReleaseEventE9MAPoint2di:f(0,6)",36,0,88,__ZN6MAUtil6Moblet22multitouchReleaseEventE9MAPoint2di
	.stabs	"this:P(0,76)",64,0,88,12
	.stabs	"p:P(2,27)",64,0,88,13
	.stabs	"touchId:P(0,3)",64,0,88,15

.func __ZN6MAUtil6Moblet22multitouchReleaseEventE9MAPoint2di, 4, void
	.line 88
	push fr,fr
	ld   fr,sp
	add  fr,#0x4
	.line 88
	pop  fr,fr
	ret
Lscope15:
	.set	%7=__ZN6MAUtil6Moblet11customEventERK7MAEvent
	.stabs	"this:P(0,76)",64,0,99,12
	.stabs	"event:P(0,50)",64,0,99,13

.func __ZThn228_N6MAUtil6Moblet11customEventERK7MAEvent, 2, void
	.line 49
	push rt,fr
	ld   fr,sp
	add  fr,#0x8
	.line 49
	add  i0,#0xffffff1c
	call &%7 ; call non-native
	pop  rt,fr
	ret
Lscope16:
	.stabs	"_ZN6MAUtil6Moblet11customEventERK7MAEvent:f(0,6)",36,0,99,__ZN6MAUtil6Moblet11customEventERK7MAEvent
	.stabs	"this:P(0,76)",64,0,99,12
	.stabs	"event:P(0,50)",64,0,99,13

.func __ZN6MAUtil6Moblet11customEventERK7MAEvent, 2, void
	.line 99
	push fr,fr
	ld   fr,sp
	add  fr,#0x4
	.line 99
	pop  fr,fr
	ret
Lscope17:
	.set	%8=__ZN14NativeUIMobletD1Ev
	.stabs	"this:P(0,78)=k(0,30)",64,0,34,12

.func __ZThn220_N14NativeUIMobletD1Ev, 1, void
	.stabs	"/Users/brzeszczot/workspace/Sterownik/main.cpp",132,0,0,Ltext3
Ltext3:
	.line 15
	push rt,fr
	ld   fr,sp
	add  fr,#0x8
	.line 15
	add  i0,#0xffffff24
	call &%8 ; call non-native
	pop  rt,fr
	ret
Lscope18:
	.set	%9=__ZN14NativeUIMobletD1Ev
	.stabs	"this:P(0,78)",64,0,34,12

.func __ZThn216_N14NativeUIMobletD1Ev, 1, void
	.line 15
	push rt,fr
	ld   fr,sp
	add  fr,#0x8
	.line 15
	add  i0,#0xffffff28
	call &%9 ; call non-native
	pop  rt,fr
	ret
Lscope19:
	.stabs	"_ZN14NativeUIMobletD1Ev:f(0,6)",36,0,34,__ZN14NativeUIMobletD1Ev
	.stabs	"this:P(0,78)",64,0,34,5

.func __ZN14NativeUIMobletD1Ev, 1, void
	.line 34
	push rt,d1
	ld   fr,sp
	add  fr,#0x10
	ld   d1,i0
	.dlab LBB2
	.line 35
	ld   i0,[i0,236]
	ld   r14,#0x0
	jc   ne,i0,r14,#L32
L24:
	.dlab LBB3
	.dlab LBB4
	.stabs	"/Applications/MoSync/include/MAUtil/Moblet.h",132,0,0,Ltext4
Ltext4:
	.line 136
	ld   r14,#__ZTVN6MAUtil6MobletE+8
	ld   [d1],r14
	ld   r14,#__ZTVN6MAUtil6MobletE+72
	ld   [d1,216],r14
	ld   r14,#__ZTVN6MAUtil6MobletE+108
	ld   [d1,220],r14
	ld   r14,#__ZTVN6MAUtil6MobletE+148
	ld   [d1,224],r14
	ld   r14,#__ZTVN6MAUtil6MobletE+160
	ld   [d1,228],r14
	ld   i0,d1
	call &__ZN6MAUtil6Moblet4exitEv ; call non-native
	ld   i0,d1
	add  i0,#0xdc
	call &__ZN6MAUtil15PointerListenerD2Ev ; call non-native
	ld   i0,d1
	add  i0,#0xd8
	call &__ZN6MAUtil11KeyListenerD2Ev ; call non-native
	ld   i0,d1
	call &__ZN6MAUtil11EnvironmentD2Ev ; call non-native
	.dlab LBE4
	.dlab LBE3
	.dlab LBE2
	.stabs	"/Users/brzeszczot/workspace/Sterownik/main.cpp",132,0,0,Ltext5
Ltext5:
	.line 36
	pop  rt,d1
	ret
L32:
	ld   r14,#__ZTV14NativeUIMoblet+8
	ld   [d1],r14
	ld   r14,#__ZTV14NativeUIMoblet+72
	ld   [d1,216],r14
	ld   r14,#__ZTV14NativeUIMoblet+108
	ld   [d1,220],r14
	ld   r14,#__ZTV14NativeUIMoblet+148
	ld   [d1,224],r14
	ld   r14,#__ZTV14NativeUIMoblet+160
	ld   [d1,228],r14
	.dlab LBB5
	.line 35
	ld   r14,[i0]
	ld   d0,[r14,4]
	call d0 ; call non-native
	jp   #L24
	.dlab LBE5
Lscope20:
	.set	%10=__ZN14NativeUIMobletD0Ev
	.stabs	"this:P(0,78)",64,0,34,12

.func __ZThn220_N14NativeUIMobletD0Ev, 1, void
	.line 15
	push rt,fr
	ld   fr,sp
	add  fr,#0x8
	.line 15
	add  i0,#0xffffff24
	call &%10 ; call non-native
	pop  rt,fr
	ret
Lscope21:
	.set	%11=__ZN14NativeUIMobletD0Ev
	.stabs	"this:P(0,78)",64,0,34,12

.func __ZThn216_N14NativeUIMobletD0Ev, 1, void
	.line 15
	push rt,fr
	ld   fr,sp
	add  fr,#0x8
	.line 15
	add  i0,#0xffffff28
	call &%11 ; call non-native
	pop  rt,fr
	ret
Lscope22:
	.stabs	"_ZN14NativeUIMobletD0Ev:f(0,6)",36,0,34,__ZN14NativeUIMobletD0Ev
	.stabs	"this:P(0,78)",64,0,34,5

.func __ZN14NativeUIMobletD0Ev, 1, void
	.line 34
	push rt,d1
	ld   fr,sp
	add  fr,#0x10
	ld   d1,i0
	.dlab LBB6
	.line 35
	ld   i0,[i0,236]
	ld   r14,#0x0
	jc   ne,i0,r14,#L45
L38:
	.dlab LBB7
	.dlab LBB8
	.stabs	"/Applications/MoSync/include/MAUtil/Moblet.h",132,0,0,Ltext6
Ltext6:
	.line 136
	ld   r14,#__ZTVN6MAUtil6MobletE+8
	ld   [d1],r14
	ld   r14,#__ZTVN6MAUtil6MobletE+72
	ld   [d1,216],r14
	ld   r14,#__ZTVN6MAUtil6MobletE+108
	ld   [d1,220],r14
	ld   r14,#__ZTVN6MAUtil6MobletE+148
	ld   [d1,224],r14
	ld   r14,#__ZTVN6MAUtil6MobletE+160
	ld   [d1,228],r14
	ld   i0,d1
	call &__ZN6MAUtil6Moblet4exitEv ; call non-native
	ld   i0,d1
	add  i0,#0xdc
	call &__ZN6MAUtil15PointerListenerD2Ev ; call non-native
	ld   i0,d1
	add  i0,#0xd8
	call &__ZN6MAUtil11KeyListenerD2Ev ; call non-native
	ld   i0,d1
	call &__ZN6MAUtil11EnvironmentD2Ev ; call non-native
	.dlab LBE8
	.dlab LBE7
	.dlab LBE6
	.stabs	"/Users/brzeszczot/workspace/Sterownik/main.cpp",132,0,0,Ltext7
Ltext7:
	.line 36
	ld   i0,d1
	call &__ZdlPv ; call non-native
	pop  rt,d1
	ret
L45:
	ld   r14,#__ZTV14NativeUIMoblet+8
	ld   [d1],r14
	ld   r14,#__ZTV14NativeUIMoblet+72
	ld   [d1,216],r14
	ld   r14,#__ZTV14NativeUIMoblet+108
	ld   [d1,220],r14
	ld   r14,#__ZTV14NativeUIMoblet+148
	ld   [d1,224],r14
	ld   r14,#__ZTV14NativeUIMoblet+160
	ld   [d1,228],r14
	.dlab LBB9
	.line 35
	ld   r14,[i0]
	ld   d0,[r14,4]
	call d0 ; call non-native
	jp   #L38
	.dlab LBE9
Lscope23:
	.set	%12=__ZN14NativeUIMoblet10closeEventEv
	.stabs	"this:P(0,78)",64,0,43,12

.func __ZThn224_N14NativeUIMoblet10closeEventEv, 1, void
	.line 15
	push rt,fr
	ld   fr,sp
	add  fr,#0x8
	.line 15
	add  i0,#0xffffff20
	call &%12 ; call non-native
Lscope24:
	.stabs	"_ZN14NativeUIMoblet10closeEventEv:f(0,6)",36,0,43,__ZN14NativeUIMoblet10closeEventEv
	.stabs	"this:P(0,78)",64,0,43,5

.func __ZN14NativeUIMoblet10closeEventEv, 1, void
	.line 43
	push rt,d1
	ld   fr,sp
	add  fr,#0x10
	ld   d1,i0
	.dlab LBB10
	.line 45
	ld   i0,[i0,236]
	ld   r14,#0x0
	jc   ne,i0,r14,#L50
L49:
	.line 46
	ld   r14,#0x0
	ld   [d1,236],r14
	.line 49
	call &__ZN6MAUtil6Moblet5closeEv ; call non-native
L50:
	.line 45
	ld   r14,[i0]
	ld   d0,[r14,4]
	call d0 ; call non-native
	jp   #L49
	.dlab LBE10
Lscope25:
	.set	%13=__ZN14NativeUIMoblet13keyPressEventEii
	.stabs	"this:P(0,78)",64,0,56,12
	.stabs	"keyCode:P(0,3)",64,0,56,13
	.stabs	"nativeCode:P(0,3)",64,0,56,14

.func __ZThn216_N14NativeUIMoblet13keyPressEventEii, 3, void
	.line 15
	push rt,fr
	ld   fr,sp
	add  fr,#0x8
	.line 15
	add  i0,#0xffffff28
	call &%13 ; call non-native
	pop  rt,fr
	ret
Lscope26:
	.stabs	"_ZN14NativeUIMoblet13keyPressEventEii:f(0,6)",36,0,56,__ZN14NativeUIMoblet13keyPressEventEii
	.stabs	"this:P(0,78)",64,0,56,30
	.stabs	"keyCode:P(0,3)",64,0,56,13
	.stabs	"nativeCode:P(0,3)",64,0,56,14

.func __ZN14NativeUIMoblet13keyPressEventEii, 3, void
	.line 56
	push rt,d0
	ld   fr,sp
	add  fr,#0xc
	.dlab LBB11
	.line 58
	ld   r0,#0x124
	jc   eq,i1,r0,#L54
	.dlab LBE11
	.line 62
	pop  rt,d0
	ret
L54:
	.dlab LBB12
	.line 60
	ld   r14,[i0]
	ld   d0,[r14,48]
	call d0 ; call non-native
	.dlab LBE12
	.line 62
	pop  rt,d0
	ret
Lscope27:
	.stabs	"MAMain:F(0,3)",36,0,72,_MAMain
	.global	_MAMain

.func _MAMain, 0, int
	.line 72
	push rt,d2
	ld   fr,sp
	add  fr,#0x14
	.dlab LBB13
	.dlab LBB14
	.line 74
	ld   i0,#0xf0
	call &__Znwm ; call non-native
	ld   d1,r14
	.line 27
	ld   d2,r14
	.line 74
	ld   r14,#0x0
	jc   ne,d1,r14,#L62
L57:
	.line 77
	ld   i0,d2
	call &__ZN6MAUtil6Moblet3runEPS0_ ; call non-native
	.line 80
	ld   r14,#0x0
	jc   eq,d2,r14,#L61
	ld   r14,[d2]
	ld   d0,[r14,12]
	ld   i0,d2
	call d0 ; call non-native
L61:
	.dlab LBE14
	.dlab LBE13
	.line 83
	ld   r14,#0x0
	pop  rt,d2
	ret
L62:
	.dlab LBB15
	.dlab LBB16
	.dlab LBB17
	.dlab LBB18
	.line 21
	ld   i0,d1
	call &__ZN6MAUtil6MobletC2Ev ; call non-native
	ld   r14,#__ZTV14NativeUIMoblet+8
	ld   [d1],r14
	ld   r14,#__ZTV14NativeUIMoblet+72
	ld   [d1,216],r14
	ld   r14,#__ZTV14NativeUIMoblet+108
	ld   [d1,220],r14
	ld   r14,#__ZTV14NativeUIMoblet+148
	ld   [d1,224],r14
	ld   r14,#__ZTV14NativeUIMoblet+160
	ld   [d1,228],r14
	.line 23
	ld   i0,#0x4b8
	call &__Znwm ; call non-native
	ld   d2,r14
	ld   r14,#0x0
	jc   ne,d2,r14,#L63
L58:
	ld   [d1,236],d2
	.line 27
	ld   r14,[d2]
	ld   d0,[r14,160]
	ld   i0,d2
	call d0 ; call non-native
	.dlab LBE18
	.dlab LBE17
	ld   d2,d1
	jp   #L57
L63:
	.dlab LBB19
	.dlab LBB20
	.line 23
	ld   i0,d2
	call &__ZN10MainScreenC1Ev ; call non-native
	jp   #L58
	.dlab LBE20
	.dlab LBE19
	.dlab LBE16
	.dlab LBE15
	.stabs	"moblet:r(0,30)",64,0,74,6
	.stabn	192,0,0,LBB14-_MAMain
	.stabn	224,0,0,LBE14-_MAMain
	.stabs	"moblet:r(0,30)",64,0,74,6
	.stabn	192,0,0,LBB16-_MAMain
	.stabn	224,0,0,LBE16-_MAMain
Lscope28:
.data
LC0:
	.ascii "TEST_EMULATOR\0"
.code
	.stabs	"_Z41__static_initialization_and_destruction_0ii:f(0,6)",36,0,83,__Z41__static_initialization_and_destruction_0ii
	.stabs	"__initialize_p:P(0,3)",64,0,83,12
	.stabs	"__priority:P(0,3)",64,0,83,13

.func __Z41__static_initialization_and_destruction_0ii, 2, void
	.line 83
	push rt,fr
	ld   fr,sp
	add  fr,#0x8
	.stabs	"/Applications/MoSync/include/Ads/Banner.h",132,0,0,Ltext8
Ltext8:
	.line 99
	ld   r14,#0xffff
	jc   eq,i1,r14,#L68
L64:
	.stabs	"/Users/brzeszczot/workspace/Sterownik/main.cpp",132,0,0,Ltext9
Ltext9:
	.line 83
	pop  rt,fr
	ret
L68:
	.stabs	"/Applications/MoSync/include/Ads/Banner.h",132,0,0,Ltext10
Ltext10:
	.line 99
	ld   r14,#0x1
	jc   eq,i0,r14,#L69
	ld   r14,#0x0
	jc   ne,i0,r14,#L64
	ld   i0,#__ZN3Ads13TEST_EMULATORE
	call &__ZN6MAUtil11BasicStringIcED1Ev ; call non-native
	.stabs	"/Users/brzeszczot/workspace/Sterownik/main.cpp",132,0,0,Ltext11
Ltext11:
	.line 83
	pop  rt,fr
	ret
L69:
	.stabs	"/Applications/MoSync/include/Ads/Banner.h",132,0,0,Ltext12
Ltext12:
	.line 99
	ld   i0,#__ZN3Ads13TEST_EMULATORE
	ld   i1,#LC0
	call &__ZN6MAUtil11BasicStringIcEC1EPKc ; call non-native
	.stabs	"/Users/brzeszczot/workspace/Sterownik/main.cpp",132,0,0,Ltext13
Ltext13:
	.line 83
	pop  rt,fr
	ret
Lscope29:
	.stabs	"_GLOBAL__I_MAMain:f(0,6)",36,0,84,__GLOBAL__I_MAMain

.func __GLOBAL__I_MAMain, 0, void
	.line 84
	push rt,fr
	ld   fr,sp
	add  fr,#0x8
	.line 84
	ld   i0,#0x1
	ld   i1,#0xffff
	call &__Z41__static_initialization_and_destruction_0ii ; call non-native
	pop  rt,fr
	ret
Lscope30:
	.stabs	"_GLOBAL__D_MAMain:f(0,6)",36,0,85,__GLOBAL__D_MAMain

.func __GLOBAL__D_MAMain, 0, void
	.line 85
	push rt,fr
	ld   fr,sp
	add  fr,#0x8
	.line 85
	ld   i0,#0x0
	ld   i1,#0xffff
	call &__Z41__static_initialization_and_destruction_0ii ; call non-native
	pop  rt,fr
	ret
Lscope31:
	.stabs	"_ZN3Ads13TEST_EMULATORE:S(12,39)",40,0,99,__ZN3Ads13TEST_EMULATORE
	.text
	.stabs "",100,0,0,Letext
Letext:
